
mtmtp:     file format elf64-littleriscv


Disassembly of section .text:

00000000000100e8 <register_fini>:
   100e8:	00000793          	li	a5,0
   100ec:	c791                	beqz	a5,100f8 <register_fini+0x10>
   100ee:	6549                	lui	a0,0x12
   100f0:	79650513          	addi	a0,a0,1942 # 12796 <__libc_fini_array>
   100f4:	5670806f          	j	18e5a <atexit>
   100f8:	8082                	ret

00000000000100fa <_start>:
   100fa:	0000e197          	auipc	gp,0xe
   100fe:	6f618193          	addi	gp,gp,1782 # 1e7f0 <__global_pointer$>
   10102:	77018513          	addi	a0,gp,1904 # 1ef60 <_PathLocale>
   10106:	0000f617          	auipc	a2,0xf
   1010a:	eea60613          	addi	a2,a2,-278 # 1eff0 <__BSS_END__>
   1010e:	8e09                	sub	a2,a2,a0
   10110:	4581                	li	a1,0
   10112:	350000ef          	jal	ra,10462 <memset>
   10116:	00009517          	auipc	a0,0x9
   1011a:	d4450513          	addi	a0,a0,-700 # 18e5a <atexit>
   1011e:	c519                	beqz	a0,1012c <_start+0x32>
   10120:	00002517          	auipc	a0,0x2
   10124:	67650513          	addi	a0,a0,1654 # 12796 <__libc_fini_array>
   10128:	533080ef          	jal	ra,18e5a <atexit>
   1012c:	2cc000ef          	jal	ra,103f8 <__libc_init_array>
   10130:	4502                	lw	a0,0(sp)
   10132:	002c                	addi	a1,sp,8
   10134:	4601                	li	a2,0
   10136:	052000ef          	jal	ra,10188 <main>
   1013a:	a445                	j	103da <exit>

000000000001013c <__do_global_dtors_aux>:
   1013c:	7981c703          	lbu	a4,1944(gp) # 1ef88 <completed.5528>
   10140:	e715                	bnez	a4,1016c <__do_global_dtors_aux+0x30>
   10142:	1141                	addi	sp,sp,-16
   10144:	e022                	sd	s0,0(sp)
   10146:	843e                	mv	s0,a5
   10148:	e406                	sd	ra,8(sp)
   1014a:	00000793          	li	a5,0
   1014e:	cb81                	beqz	a5,1015e <__do_global_dtors_aux+0x22>
   10150:	6579                	lui	a0,0x1e
   10152:	de850513          	addi	a0,a0,-536 # 1dde8 <__FRAME_END__>
   10156:	00000097          	auipc	ra,0x0
   1015a:	000000e7          	jalr	zero # 0 <register_fini-0x100e8>
   1015e:	4785                	li	a5,1
   10160:	60a2                	ld	ra,8(sp)
   10162:	78f18c23          	sb	a5,1944(gp) # 1ef88 <completed.5528>
   10166:	6402                	ld	s0,0(sp)
   10168:	0141                	addi	sp,sp,16
   1016a:	8082                	ret
   1016c:	8082                	ret

000000000001016e <frame_dummy>:
   1016e:	00000793          	li	a5,0
   10172:	cb91                	beqz	a5,10186 <frame_dummy+0x18>
   10174:	6579                	lui	a0,0x1e
   10176:	7a018593          	addi	a1,gp,1952 # 1ef90 <object.5533>
   1017a:	de850513          	addi	a0,a0,-536 # 1dde8 <__FRAME_END__>
   1017e:	00000317          	auipc	t1,0x0
   10182:	00000067          	jr	zero # 0 <register_fini-0x100e8>
   10186:	8082                	ret

0000000000010188 <main>:
   10188:	7111                	addi	sp,sp,-256
   1018a:	fd86                	sd	ra,248(sp)
   1018c:	f9a2                	sd	s0,240(sp)
   1018e:	0200                	addi	s0,sp,256
   10190:	862a                	mv	a2,a0
   10192:	4681                	li	a3,0
   10194:	fed42623          	sw	a3,-20(s0)
   10198:	fea42423          	sw	a0,-24(s0)
   1019c:	feb43023          	sd	a1,-32(s0)
   101a0:	6571                	lui	a0,0x1c
   101a2:	02050593          	addi	a1,a0,32 # 1c020 <__clzdi2+0x2e>
   101a6:	0385e703          	lwu	a4,56(a1)
   101aa:	03c5e783          	lwu	a5,60(a1)
   101ae:	1782                	slli	a5,a5,0x20
   101b0:	8f5d                	or	a4,a4,a5
   101b2:	fce43c23          	sd	a4,-40(s0)
   101b6:	0305e703          	lwu	a4,48(a1)
   101ba:	0345e783          	lwu	a5,52(a1)
   101be:	1782                	slli	a5,a5,0x20
   101c0:	8f5d                	or	a4,a4,a5
   101c2:	fce43823          	sd	a4,-48(s0)
   101c6:	0285e703          	lwu	a4,40(a1)
   101ca:	02c5e783          	lwu	a5,44(a1)
   101ce:	1782                	slli	a5,a5,0x20
   101d0:	8f5d                	or	a4,a4,a5
   101d2:	fce43423          	sd	a4,-56(s0)
   101d6:	0205e703          	lwu	a4,32(a1)
   101da:	0245e783          	lwu	a5,36(a1)
   101de:	1782                	slli	a5,a5,0x20
   101e0:	8f5d                	or	a4,a4,a5
   101e2:	fce43023          	sd	a4,-64(s0)
   101e6:	0185e703          	lwu	a4,24(a1)
   101ea:	01c5e783          	lwu	a5,28(a1)
   101ee:	1782                	slli	a5,a5,0x20
   101f0:	8f5d                	or	a4,a4,a5
   101f2:	fae43c23          	sd	a4,-72(s0)
   101f6:	0105e703          	lwu	a4,16(a1)
   101fa:	0145e783          	lwu	a5,20(a1)
   101fe:	1782                	slli	a5,a5,0x20
   10200:	8f5d                	or	a4,a4,a5
   10202:	fae43823          	sd	a4,-80(s0)
   10206:	0085e703          	lwu	a4,8(a1)
   1020a:	00c5e783          	lwu	a5,12(a1)
   1020e:	1782                	slli	a5,a5,0x20
   10210:	8f5d                	or	a4,a4,a5
   10212:	fae43423          	sd	a4,-88(s0)
   10216:	02056503          	lwu	a0,32(a0)
   1021a:	0045e583          	lwu	a1,4(a1)
   1021e:	1582                	slli	a1,a1,0x20
   10220:	8d4d                	or	a0,a0,a1
   10222:	faa43023          	sd	a0,-96(s0)
   10226:	6571                	lui	a0,0x1c
   10228:	06050593          	addi	a1,a0,96 # 1c060 <__clzdi2+0x6e>
   1022c:	0385e703          	lwu	a4,56(a1)
   10230:	03c5e783          	lwu	a5,60(a1)
   10234:	1782                	slli	a5,a5,0x20
   10236:	8f5d                	or	a4,a4,a5
   10238:	f8e43c23          	sd	a4,-104(s0)
   1023c:	0305e703          	lwu	a4,48(a1)
   10240:	0345e783          	lwu	a5,52(a1)
   10244:	1782                	slli	a5,a5,0x20
   10246:	8f5d                	or	a4,a4,a5
   10248:	f8e43823          	sd	a4,-112(s0)
   1024c:	0285e703          	lwu	a4,40(a1)
   10250:	02c5e783          	lwu	a5,44(a1)
   10254:	1782                	slli	a5,a5,0x20
   10256:	8f5d                	or	a4,a4,a5
   10258:	f8e43423          	sd	a4,-120(s0)
   1025c:	0205e703          	lwu	a4,32(a1)
   10260:	0245e783          	lwu	a5,36(a1)
   10264:	1782                	slli	a5,a5,0x20
   10266:	8f5d                	or	a4,a4,a5
   10268:	f8e43023          	sd	a4,-128(s0)
   1026c:	0185e703          	lwu	a4,24(a1)
   10270:	01c5e783          	lwu	a5,28(a1)
   10274:	1782                	slli	a5,a5,0x20
   10276:	8f5d                	or	a4,a4,a5
   10278:	f6e43c23          	sd	a4,-136(s0)
   1027c:	0105e703          	lwu	a4,16(a1)
   10280:	0145e783          	lwu	a5,20(a1)
   10284:	1782                	slli	a5,a5,0x20
   10286:	8f5d                	or	a4,a4,a5
   10288:	f6e43823          	sd	a4,-144(s0)
   1028c:	0085e703          	lwu	a4,8(a1)
   10290:	00c5e783          	lwu	a5,12(a1)
   10294:	1782                	slli	a5,a5,0x20
   10296:	8f5d                	or	a4,a4,a5
   10298:	f6e43423          	sd	a4,-152(s0)
   1029c:	06056503          	lwu	a0,96(a0)
   102a0:	0045e583          	lwu	a1,4(a1)
   102a4:	1582                	slli	a1,a1,0x20
   102a6:	8d4d                	or	a0,a0,a1
   102a8:	f6a43023          	sd	a0,-160(s0)
   102ac:	6571                	lui	a0,0x1c
   102ae:	0a050593          	addi	a1,a0,160 # 1c0a0 <__clzdi2+0xae>
   102b2:	0385e703          	lwu	a4,56(a1)
   102b6:	03c5e783          	lwu	a5,60(a1)
   102ba:	1782                	slli	a5,a5,0x20
   102bc:	8f5d                	or	a4,a4,a5
   102be:	f4e43c23          	sd	a4,-168(s0)
   102c2:	0305e703          	lwu	a4,48(a1)
   102c6:	0345e783          	lwu	a5,52(a1)
   102ca:	1782                	slli	a5,a5,0x20
   102cc:	8f5d                	or	a4,a4,a5
   102ce:	f4e43823          	sd	a4,-176(s0)
   102d2:	0285e703          	lwu	a4,40(a1)
   102d6:	02c5e783          	lwu	a5,44(a1)
   102da:	1782                	slli	a5,a5,0x20
   102dc:	8f5d                	or	a4,a4,a5
   102de:	f4e43423          	sd	a4,-184(s0)
   102e2:	0205e703          	lwu	a4,32(a1)
   102e6:	0245e783          	lwu	a5,36(a1)
   102ea:	1782                	slli	a5,a5,0x20
   102ec:	8f5d                	or	a4,a4,a5
   102ee:	f4e43023          	sd	a4,-192(s0)
   102f2:	0185e703          	lwu	a4,24(a1)
   102f6:	01c5e783          	lwu	a5,28(a1)
   102fa:	1782                	slli	a5,a5,0x20
   102fc:	8f5d                	or	a4,a4,a5
   102fe:	f2e43c23          	sd	a4,-200(s0)
   10302:	0105e703          	lwu	a4,16(a1)
   10306:	0145e783          	lwu	a5,20(a1)
   1030a:	1782                	slli	a5,a5,0x20
   1030c:	8f5d                	or	a4,a4,a5
   1030e:	f2e43823          	sd	a4,-208(s0)
   10312:	0085e703          	lwu	a4,8(a1)
   10316:	00c5e783          	lwu	a5,12(a1)
   1031a:	1782                	slli	a5,a5,0x20
   1031c:	8f5d                	or	a4,a4,a5
   1031e:	f2e43423          	sd	a4,-216(s0)
   10322:	0a056503          	lwu	a0,160(a0)
   10326:	0045e583          	lwu	a1,4(a1)
   1032a:	1582                	slli	a1,a1,0x20
   1032c:	8d4d                	or	a0,a0,a1
   1032e:	f2a43023          	sd	a0,-224(s0)
   10332:	4541                	li	a0,16
   10334:	fa040593          	addi	a1,s0,-96
   10338:	f6040713          	addi	a4,s0,-160
   1033c:	f2040793          	addi	a5,s0,-224
   10340:	f0c43823          	sd	a2,-240(s0)
   10344:	863a                	mv	a2,a4
   10346:	f0d43423          	sd	a3,-248(s0)
   1034a:	86be                	mv	a3,a5
   1034c:	064000ef          	jal	ra,103b0 <tensormul>
   10350:	f0843583          	ld	a1,-248(s0)
   10354:	f0b42e23          	sw	a1,-228(s0)
   10358:	0040006f          	j	1035c <main+0x1d4>
   1035c:	f1c42503          	lw	a0,-228(s0)
   10360:	45bd                	li	a1,15
   10362:	02a5c963          	blt	a1,a0,10394 <main+0x20c>
   10366:	0040006f          	j	1036a <main+0x1e2>
   1036a:	f1c42503          	lw	a0,-228(s0)
   1036e:	050a                	slli	a0,a0,0x2
   10370:	f2040593          	addi	a1,s0,-224
   10374:	952e                	add	a0,a0,a1
   10376:	410c                	lw	a1,0(a0)
   10378:	6571                	lui	a0,0x1c
   1037a:	0e050513          	addi	a0,a0,224 # 1c0e0 <__clzdi2+0xee>
   1037e:	1b0000ef          	jal	ra,1052e <printf>
   10382:	0040006f          	j	10386 <main+0x1fe>
   10386:	f1c42503          	lw	a0,-228(s0)
   1038a:	0505                	addi	a0,a0,1
   1038c:	f0a42e23          	sw	a0,-228(s0)
   10390:	fcdff06f          	j	1035c <main+0x1d4>
   10394:	6571                	lui	a0,0x1c
   10396:	0e450513          	addi	a0,a0,228 # 1c0e4 <__clzdi2+0xf2>
   1039a:	194000ef          	jal	ra,1052e <printf>
   1039e:	fec42583          	lw	a1,-20(s0)
   103a2:	f0a43023          	sd	a0,-256(s0)
   103a6:	852e                	mv	a0,a1
   103a8:	744e                	ld	s0,240(sp)
   103aa:	70ee                	ld	ra,248(sp)
   103ac:	6111                	addi	sp,sp,256
   103ae:	8082                	ret

00000000000103b0 <tensormul>:
   103b0:	0d2572d7          	vsetvli	t0,a0,e128,m4,ta,ma,d1
   103b4:	0205e207          	vle32.v	v4,(a1)
   103b8:	40550533          	sub	a0,a0,t0
   103bc:	028a                	slli	t0,t0,0x2
   103be:	9596                	add	a1,a1,t0
   103c0:	02066407          	vle32.v	v8,(a2)
   103c4:	9616                	add	a2,a2,t0
   103c6:	0206e007          	vle32.v	v0,(a3)
   103ca:	e6820057          	vdot.vv	v0,v8,v4
   103ce:	0206e027          	vse32.v	v0,(a3)
   103d2:	9696                	add	a3,a3,t0
   103d4:	fc051ee3          	bnez	a0,103b0 <tensormul>
   103d8:	8082                	ret

00000000000103da <exit>:
   103da:	1141                	addi	sp,sp,-16
   103dc:	4581                	li	a1,0
   103de:	e022                	sd	s0,0(sp)
   103e0:	e406                	sd	ra,8(sp)
   103e2:	842a                	mv	s0,a0
   103e4:	6ad010ef          	jal	ra,12290 <__call_exitprocs>
   103e8:	7481b503          	ld	a0,1864(gp) # 1ef38 <_global_impure_ptr>
   103ec:	6d3c                	ld	a5,88(a0)
   103ee:	c391                	beqz	a5,103f2 <exit+0x18>
   103f0:	9782                	jalr	a5
   103f2:	8522                	mv	a0,s0
   103f4:	6160a0ef          	jal	ra,1aa0a <_exit>

00000000000103f8 <__libc_init_array>:
   103f8:	1101                	addi	sp,sp,-32
   103fa:	e822                	sd	s0,16(sp)
   103fc:	e04a                	sd	s2,0(sp)
   103fe:	6479                	lui	s0,0x1e
   10400:	6979                	lui	s2,0x1e
   10402:	dec40793          	addi	a5,s0,-532 # 1ddec <__preinit_array_end>
   10406:	dec90913          	addi	s2,s2,-532 # 1ddec <__preinit_array_end>
   1040a:	40f90933          	sub	s2,s2,a5
   1040e:	ec06                	sd	ra,24(sp)
   10410:	e426                	sd	s1,8(sp)
   10412:	40395913          	srai	s2,s2,0x3
   10416:	00090b63          	beqz	s2,1042c <__libc_init_array+0x34>
   1041a:	dec40413          	addi	s0,s0,-532
   1041e:	4481                	li	s1,0
   10420:	601c                	ld	a5,0(s0)
   10422:	0485                	addi	s1,s1,1
   10424:	0421                	addi	s0,s0,8
   10426:	9782                	jalr	a5
   10428:	fe991ce3          	bne	s2,s1,10420 <__libc_init_array+0x28>
   1042c:	6479                	lui	s0,0x1e
   1042e:	6979                	lui	s2,0x1e
   10430:	df040793          	addi	a5,s0,-528 # 1ddf0 <__init_array_start>
   10434:	e0090913          	addi	s2,s2,-512 # 1de00 <__do_global_dtors_aux_fini_array_entry>
   10438:	40f90933          	sub	s2,s2,a5
   1043c:	40395913          	srai	s2,s2,0x3
   10440:	00090b63          	beqz	s2,10456 <__libc_init_array+0x5e>
   10444:	df040413          	addi	s0,s0,-528
   10448:	4481                	li	s1,0
   1044a:	601c                	ld	a5,0(s0)
   1044c:	0485                	addi	s1,s1,1
   1044e:	0421                	addi	s0,s0,8
   10450:	9782                	jalr	a5
   10452:	fe991ce3          	bne	s2,s1,1044a <__libc_init_array+0x52>
   10456:	60e2                	ld	ra,24(sp)
   10458:	6442                	ld	s0,16(sp)
   1045a:	64a2                	ld	s1,8(sp)
   1045c:	6902                	ld	s2,0(sp)
   1045e:	6105                	addi	sp,sp,32
   10460:	8082                	ret

0000000000010462 <memset>:
   10462:	433d                	li	t1,15
   10464:	872a                	mv	a4,a0
   10466:	02c37163          	bgeu	t1,a2,10488 <memset+0x26>
   1046a:	00f77793          	andi	a5,a4,15
   1046e:	e3c1                	bnez	a5,104ee <memset+0x8c>
   10470:	e1bd                	bnez	a1,104d6 <memset+0x74>
   10472:	ff067693          	andi	a3,a2,-16
   10476:	8a3d                	andi	a2,a2,15
   10478:	96ba                	add	a3,a3,a4
   1047a:	e30c                	sd	a1,0(a4)
   1047c:	e70c                	sd	a1,8(a4)
   1047e:	0741                	addi	a4,a4,16
   10480:	fed76de3          	bltu	a4,a3,1047a <memset+0x18>
   10484:	e211                	bnez	a2,10488 <memset+0x26>
   10486:	8082                	ret
   10488:	40c306b3          	sub	a3,t1,a2
   1048c:	068a                	slli	a3,a3,0x2
   1048e:	00000297          	auipc	t0,0x0
   10492:	9696                	add	a3,a3,t0
   10494:	00a68067          	jr	10(a3)
   10498:	00b70723          	sb	a1,14(a4)
   1049c:	00b706a3          	sb	a1,13(a4)
   104a0:	00b70623          	sb	a1,12(a4)
   104a4:	00b705a3          	sb	a1,11(a4)
   104a8:	00b70523          	sb	a1,10(a4)
   104ac:	00b704a3          	sb	a1,9(a4)
   104b0:	00b70423          	sb	a1,8(a4)
   104b4:	00b703a3          	sb	a1,7(a4)
   104b8:	00b70323          	sb	a1,6(a4)
   104bc:	00b702a3          	sb	a1,5(a4)
   104c0:	00b70223          	sb	a1,4(a4)
   104c4:	00b701a3          	sb	a1,3(a4)
   104c8:	00b70123          	sb	a1,2(a4)
   104cc:	00b700a3          	sb	a1,1(a4)
   104d0:	00b70023          	sb	a1,0(a4)
   104d4:	8082                	ret
   104d6:	0ff5f593          	andi	a1,a1,255
   104da:	00859693          	slli	a3,a1,0x8
   104de:	8dd5                	or	a1,a1,a3
   104e0:	01059693          	slli	a3,a1,0x10
   104e4:	8dd5                	or	a1,a1,a3
   104e6:	02059693          	slli	a3,a1,0x20
   104ea:	8dd5                	or	a1,a1,a3
   104ec:	b759                	j	10472 <memset+0x10>
   104ee:	00279693          	slli	a3,a5,0x2
   104f2:	00000297          	auipc	t0,0x0
   104f6:	9696                	add	a3,a3,t0
   104f8:	8286                	mv	t0,ra
   104fa:	fa2680e7          	jalr	-94(a3)
   104fe:	8096                	mv	ra,t0
   10500:	17c1                	addi	a5,a5,-16
   10502:	8f1d                	sub	a4,a4,a5
   10504:	963e                	add	a2,a2,a5
   10506:	f8c371e3          	bgeu	t1,a2,10488 <memset+0x26>
   1050a:	b79d                	j	10470 <memset+0xe>

000000000001050c <_printf_r>:
   1050c:	715d                	addi	sp,sp,-80
   1050e:	f032                	sd	a2,32(sp)
   10510:	f436                	sd	a3,40(sp)
   10512:	f83a                	sd	a4,48(sp)
   10514:	fc3e                	sd	a5,56(sp)
   10516:	e0c2                	sd	a6,64(sp)
   10518:	e4c6                	sd	a7,72(sp)
   1051a:	862e                	mv	a2,a1
   1051c:	690c                	ld	a1,16(a0)
   1051e:	1014                	addi	a3,sp,32
   10520:	ec06                	sd	ra,24(sp)
   10522:	e436                	sd	a3,8(sp)
   10524:	036000ef          	jal	ra,1055a <_vfprintf_r>
   10528:	60e2                	ld	ra,24(sp)
   1052a:	6161                	addi	sp,sp,80
   1052c:	8082                	ret

000000000001052e <printf>:
   1052e:	7581b303          	ld	t1,1880(gp) # 1ef48 <_impure_ptr>
   10532:	711d                	addi	sp,sp,-96
   10534:	f832                	sd	a2,48(sp)
   10536:	fc36                	sd	a3,56(sp)
   10538:	f42e                	sd	a1,40(sp)
   1053a:	e0ba                	sd	a4,64(sp)
   1053c:	e4be                	sd	a5,72(sp)
   1053e:	e8c2                	sd	a6,80(sp)
   10540:	ecc6                	sd	a7,88(sp)
   10542:	01033583          	ld	a1,16(t1) # 1018e <main+0x6>
   10546:	1034                	addi	a3,sp,40
   10548:	862a                	mv	a2,a0
   1054a:	851a                	mv	a0,t1
   1054c:	ec06                	sd	ra,24(sp)
   1054e:	e436                	sd	a3,8(sp)
   10550:	00a000ef          	jal	ra,1055a <_vfprintf_r>
   10554:	60e2                	ld	ra,24(sp)
   10556:	6125                	addi	sp,sp,96
   10558:	8082                	ret

000000000001055a <_vfprintf_r>:
   1055a:	d8010113          	addi	sp,sp,-640
   1055e:	26113c23          	sd	ra,632(sp)
   10562:	25313c23          	sd	s3,600(sp)
   10566:	25413823          	sd	s4,592(sp)
   1056a:	23a13023          	sd	s10,544(sp)
   1056e:	89ae                	mv	s3,a1
   10570:	8d32                	mv	s10,a2
   10572:	e836                	sd	a3,16(sp)
   10574:	26813823          	sd	s0,624(sp)
   10578:	26913423          	sd	s1,616(sp)
   1057c:	27213023          	sd	s2,608(sp)
   10580:	25513423          	sd	s5,584(sp)
   10584:	25613023          	sd	s6,576(sp)
   10588:	23713c23          	sd	s7,568(sp)
   1058c:	23813823          	sd	s8,560(sp)
   10590:	23913423          	sd	s9,552(sp)
   10594:	21b13c23          	sd	s11,536(sp)
   10598:	8a2a                	mv	s4,a0
   1059a:	6ca040ef          	jal	ra,14c64 <_localeconv_r>
   1059e:	611c                	ld	a5,0(a0)
   105a0:	853e                	mv	a0,a5
   105a2:	f8be                	sd	a5,112(sp)
   105a4:	673050ef          	jal	ra,16416 <strlen>
   105a8:	f4aa                	sd	a0,104(sp)
   105aa:	e202                	sd	zero,256(sp)
   105ac:	e602                	sd	zero,264(sp)
   105ae:	000a0663          	beqz	s4,105ba <_vfprintf_r+0x60>
   105b2:	050a2783          	lw	a5,80(s4)
   105b6:	6e078763          	beqz	a5,10ca4 <_vfprintf_r+0x74a>
   105ba:	01099703          	lh	a4,16(s3)
   105be:	03071793          	slli	a5,a4,0x30
   105c2:	03271693          	slli	a3,a4,0x32
   105c6:	93c1                	srli	a5,a5,0x30
   105c8:	0206c363          	bltz	a3,105ee <_vfprintf_r+0x94>
   105cc:	6789                	lui	a5,0x2
   105ce:	0ac9a683          	lw	a3,172(s3)
   105d2:	8fd9                	or	a5,a5,a4
   105d4:	0107979b          	slliw	a5,a5,0x10
   105d8:	7779                	lui	a4,0xffffe
   105da:	4107d79b          	sraiw	a5,a5,0x10
   105de:	177d                	addi	a4,a4,-1
   105e0:	8f75                	and	a4,a4,a3
   105e2:	00f99823          	sh	a5,16(s3)
   105e6:	17c2                	slli	a5,a5,0x30
   105e8:	0ae9a623          	sw	a4,172(s3)
   105ec:	93c1                	srli	a5,a5,0x30
   105ee:	0087f713          	andi	a4,a5,8
   105f2:	26070963          	beqz	a4,10864 <_vfprintf_r+0x30a>
   105f6:	0189b703          	ld	a4,24(s3)
   105fa:	26070563          	beqz	a4,10864 <_vfprintf_r+0x30a>
   105fe:	8be9                	andi	a5,a5,26
   10600:	4729                	li	a4,10
   10602:	26e78e63          	beq	a5,a4,1087e <_vfprintf_r+0x324>
   10606:	67f1                	lui	a5,0x1c
   10608:	3087b783          	ld	a5,776(a5) # 1c308 <zeroes.4521+0x40>
   1060c:	19010b13          	addi	s6,sp,400
   10610:	ea5a                	sd	s6,272(sp)
   10612:	f13e                	sd	a5,160(sp)
   10614:	67f1                	lui	a5,0x1c
   10616:	2e87b783          	ld	a5,744(a5) # 1c2e8 <zeroes.4521+0x20>
   1061a:	f202                	sd	zero,288(sp)
   1061c:	10012c23          	sw	zero,280(sp)
   10620:	e93e                	sd	a5,144(sp)
   10622:	67f1                	lui	a5,0x1c
   10624:	2f87b783          	ld	a5,760(a5) # 1c2f8 <zeroes.4521+0x30>
   10628:	f002                	sd	zero,32(sp)
   1062a:	f402                	sd	zero,40(sp)
   1062c:	ed3e                	sd	a5,152(sp)
   1062e:	000d4783          	lbu	a5,0(s10)
   10632:	fc82                	sd	zero,120(sp)
   10634:	f082                	sd	zero,96(sp)
   10636:	e102                	sd	zero,128(sp)
   10638:	e502                	sd	zero,136(sp)
   1063a:	e402                	sd	zero,8(sp)
   1063c:	835a                	mv	t1,s6
   1063e:	1c078463          	beqz	a5,10806 <_vfprintf_r+0x2ac>
   10642:	846a                	mv	s0,s10
   10644:	02500713          	li	a4,37
   10648:	30e78263          	beq	a5,a4,1094c <_vfprintf_r+0x3f2>
   1064c:	00144783          	lbu	a5,1(s0)
   10650:	0405                	addi	s0,s0,1
   10652:	fbfd                	bnez	a5,10648 <_vfprintf_r+0xee>
   10654:	41a404bb          	subw	s1,s0,s10
   10658:	1a048763          	beqz	s1,10806 <_vfprintf_r+0x2ac>
   1065c:	7712                	ld	a4,288(sp)
   1065e:	11812783          	lw	a5,280(sp)
   10662:	01a33023          	sd	s10,0(t1)
   10666:	9726                	add	a4,a4,s1
   10668:	2785                	addiw	a5,a5,1
   1066a:	00933423          	sd	s1,8(t1)
   1066e:	f23a                	sd	a4,288(sp)
   10670:	10f12c23          	sw	a5,280(sp)
   10674:	0007871b          	sext.w	a4,a5
   10678:	479d                	li	a5,7
   1067a:	0341                	addi	t1,t1,16
   1067c:	2ce7cf63          	blt	a5,a4,1095a <_vfprintf_r+0x400>
   10680:	6722                	ld	a4,8(sp)
   10682:	00044783          	lbu	a5,0(s0)
   10686:	9f25                	addw	a4,a4,s1
   10688:	e43a                	sd	a4,8(sp)
   1068a:	16078e63          	beqz	a5,10806 <_vfprintf_r+0x2ac>
   1068e:	67f1                	lui	a5,0x1c
   10690:	00144e83          	lbu	t4,1(s0)
   10694:	0c010fa3          	sb	zero,223(sp)
   10698:	0405                	addi	s0,s0,1
   1069a:	5c7d                	li	s8,-1
   1069c:	4a81                	li	s5,0
   1069e:	4481                	li	s1,0
   106a0:	05a00913          	li	s2,90
   106a4:	14878b93          	addi	s7,a5,328 # 1c148 <__clzdi2+0x156>
   106a8:	4da5                	li	s11,9
   106aa:	0405                	addi	s0,s0,1
   106ac:	000e8c9b          	sext.w	s9,t4
   106b0:	02a00693          	li	a3,42
   106b4:	fe0c879b          	addiw	a5,s9,-32
   106b8:	0007871b          	sext.w	a4,a5
   106bc:	04e96163          	bltu	s2,a4,106fe <_vfprintf_r+0x1a4>
   106c0:	1782                	slli	a5,a5,0x20
   106c2:	83f9                	srli	a5,a5,0x1e
   106c4:	97de                	add	a5,a5,s7
   106c6:	439c                	lw	a5,0(a5)
   106c8:	8782                	jr	a5
   106ca:	4a81                	li	s5,0
   106cc:	00044703          	lbu	a4,0(s0)
   106d0:	002a979b          	slliw	a5,s5,0x2
   106d4:	01578abb          	addw	s5,a5,s5
   106d8:	fd0c8e9b          	addiw	t4,s9,-48
   106dc:	001a9a9b          	slliw	s5,s5,0x1
   106e0:	fd07079b          	addiw	a5,a4,-48
   106e4:	0405                	addi	s0,s0,1
   106e6:	015e8abb          	addw	s5,t4,s5
   106ea:	00070c9b          	sext.w	s9,a4
   106ee:	fcfdffe3          	bgeu	s11,a5,106cc <_vfprintf_r+0x172>
   106f2:	fe0c879b          	addiw	a5,s9,-32
   106f6:	0007871b          	sext.w	a4,a5
   106fa:	fce973e3          	bgeu	s2,a4,106c0 <_vfprintf_r+0x166>
   106fe:	100c8463          	beqz	s9,10806 <_vfprintf_r+0x2ac>
   10702:	13910423          	sb	s9,296(sp)
   10706:	0c010fa3          	sb	zero,223(sp)
   1070a:	4905                	li	s2,1
   1070c:	4b85                	li	s7,1
   1070e:	12810d13          	addi	s10,sp,296
   10712:	ec02                	sd	zero,24(sp)
   10714:	4c01                	li	s8,0
   10716:	e482                	sd	zero,72(sp)
   10718:	ec82                	sd	zero,88(sp)
   1071a:	e882                	sd	zero,80(sp)
   1071c:	0024f793          	andi	a5,s1,2
   10720:	0007829b          	sext.w	t0,a5
   10724:	c391                	beqz	a5,10728 <_vfprintf_r+0x1ce>
   10726:	2909                	addiw	s2,s2,2
   10728:	0844fd93          	andi	s11,s1,132
   1072c:	7792                	ld	a5,288(sp)
   1072e:	000d9663          	bnez	s11,1073a <_vfprintf_r+0x1e0>
   10732:	412a86bb          	subw	a3,s5,s2
   10736:	2ad045e3          	bgtz	a3,111e0 <_vfprintf_r+0xc86>
   1073a:	0df14703          	lbu	a4,223(sp)
   1073e:	c70d                	beqz	a4,10768 <_vfprintf_r+0x20e>
   10740:	11812703          	lw	a4,280(sp)
   10744:	0df10693          	addi	a3,sp,223
   10748:	00d33023          	sd	a3,0(t1)
   1074c:	2705                	addiw	a4,a4,1
   1074e:	4685                	li	a3,1
   10750:	0785                	addi	a5,a5,1
   10752:	00d33423          	sd	a3,8(t1)
   10756:	10e12c23          	sw	a4,280(sp)
   1075a:	0007069b          	sext.w	a3,a4
   1075e:	f23e                	sd	a5,288(sp)
   10760:	471d                	li	a4,7
   10762:	0341                	addi	t1,t1,16
   10764:	40d74b63          	blt	a4,a3,10b7a <_vfprintf_r+0x620>
   10768:	02028563          	beqz	t0,10792 <_vfprintf_r+0x238>
   1076c:	11812703          	lw	a4,280(sp)
   10770:	1194                	addi	a3,sp,224
   10772:	00d33023          	sd	a3,0(t1)
   10776:	2705                	addiw	a4,a4,1
   10778:	4689                	li	a3,2
   1077a:	0789                	addi	a5,a5,2
   1077c:	00d33423          	sd	a3,8(t1)
   10780:	10e12c23          	sw	a4,280(sp)
   10784:	0007069b          	sext.w	a3,a4
   10788:	f23e                	sd	a5,288(sp)
   1078a:	471d                	li	a4,7
   1078c:	0341                	addi	t1,t1,16
   1078e:	2ed745e3          	blt	a4,a3,11278 <_vfprintf_r+0xd1e>
   10792:	08000713          	li	a4,128
   10796:	02ed8ae3          	beq	s11,a4,10fca <_vfprintf_r+0xa70>
   1079a:	417c0c3b          	subw	s8,s8,s7
   1079e:	0b804ee3          	bgtz	s8,1105a <_vfprintf_r+0xb00>
   107a2:	1004f713          	andi	a4,s1,256
   107a6:	74071a63          	bnez	a4,10efa <_vfprintf_r+0x9a0>
   107aa:	11812703          	lw	a4,280(sp)
   107ae:	97de                	add	a5,a5,s7
   107b0:	01a33023          	sd	s10,0(t1)
   107b4:	0017069b          	addiw	a3,a4,1
   107b8:	8736                	mv	a4,a3
   107ba:	01733423          	sd	s7,8(t1)
   107be:	10e12c23          	sw	a4,280(sp)
   107c2:	f23e                	sd	a5,288(sp)
   107c4:	471d                	li	a4,7
   107c6:	42d74763          	blt	a4,a3,10bf4 <_vfprintf_r+0x69a>
   107ca:	0341                	addi	t1,t1,16
   107cc:	8891                	andi	s1,s1,4
   107ce:	c489                	beqz	s1,107d8 <_vfprintf_r+0x27e>
   107d0:	412a84bb          	subw	s1,s5,s2
   107d4:	2a904de3          	bgtz	s1,1128e <_vfprintf_r+0xd34>
   107d8:	8756                	mv	a4,s5
   107da:	012ad363          	bge	s5,s2,107e0 <_vfprintf_r+0x286>
   107de:	874a                	mv	a4,s2
   107e0:	66a2                	ld	a3,8(sp)
   107e2:	9f35                	addw	a4,a4,a3
   107e4:	e43a                	sd	a4,8(sp)
   107e6:	0e079be3          	bnez	a5,110dc <_vfprintf_r+0xb82>
   107ea:	67e2                	ld	a5,24(sp)
   107ec:	10012c23          	sw	zero,280(sp)
   107f0:	c789                	beqz	a5,107fa <_vfprintf_r+0x2a0>
   107f2:	65e2                	ld	a1,24(sp)
   107f4:	8552                	mv	a0,s4
   107f6:	0a4020ef          	jal	ra,1289a <_free_r>
   107fa:	835a                	mv	t1,s6
   107fc:	8d22                	mv	s10,s0
   107fe:	000d4783          	lbu	a5,0(s10)
   10802:	e40790e3          	bnez	a5,10642 <_vfprintf_r+0xe8>
   10806:	7792                	ld	a5,288(sp)
   10808:	c399                	beqz	a5,1080e <_vfprintf_r+0x2b4>
   1080a:	2a60106f          	j	11ab0 <_vfprintf_r+0x1556>
   1080e:	0109d783          	lhu	a5,16(s3)
   10812:	0407f793          	andi	a5,a5,64
   10816:	c399                	beqz	a5,1081c <_vfprintf_r+0x2c2>
   10818:	64a0106f          	j	11e62 <_vfprintf_r+0x1908>
   1081c:	27813083          	ld	ra,632(sp)
   10820:	27013403          	ld	s0,624(sp)
   10824:	6522                	ld	a0,8(sp)
   10826:	26813483          	ld	s1,616(sp)
   1082a:	26013903          	ld	s2,608(sp)
   1082e:	25813983          	ld	s3,600(sp)
   10832:	25013a03          	ld	s4,592(sp)
   10836:	24813a83          	ld	s5,584(sp)
   1083a:	24013b03          	ld	s6,576(sp)
   1083e:	23813b83          	ld	s7,568(sp)
   10842:	23013c03          	ld	s8,560(sp)
   10846:	22813c83          	ld	s9,552(sp)
   1084a:	22013d03          	ld	s10,544(sp)
   1084e:	21813d83          	ld	s11,536(sp)
   10852:	28010113          	addi	sp,sp,640
   10856:	8082                	ret
   10858:	0104e493          	ori	s1,s1,16
   1085c:	00044e83          	lbu	t4,0(s0)
   10860:	2481                	sext.w	s1,s1
   10862:	b5a1                	j	106aa <_vfprintf_r+0x150>
   10864:	85ce                	mv	a1,s3
   10866:	8552                	mv	a0,s4
   10868:	13b010ef          	jal	ra,121a2 <__swsetup_r>
   1086c:	c119                	beqz	a0,10872 <_vfprintf_r+0x318>
   1086e:	5f40106f          	j	11e62 <_vfprintf_r+0x1908>
   10872:	0109d783          	lhu	a5,16(s3)
   10876:	4729                	li	a4,10
   10878:	8be9                	andi	a5,a5,26
   1087a:	d8e796e3          	bne	a5,a4,10606 <_vfprintf_r+0xac>
   1087e:	01299783          	lh	a5,18(s3)
   10882:	d807c2e3          	bltz	a5,10606 <_vfprintf_r+0xac>
   10886:	66c2                	ld	a3,16(sp)
   10888:	866a                	mv	a2,s10
   1088a:	85ce                	mv	a1,s3
   1088c:	8552                	mv	a0,s4
   1088e:	081010ef          	jal	ra,1210e <__sbprintf>
   10892:	e42a                	sd	a0,8(sp)
   10894:	b761                	j	1081c <_vfprintf_r+0x2c2>
   10896:	0104e493          	ori	s1,s1,16
   1089a:	2481                	sext.w	s1,s1
   1089c:	66c2                	ld	a3,16(sp)
   1089e:	0204f793          	andi	a5,s1,32
   108a2:	00868713          	addi	a4,a3,8
   108a6:	38078063          	beqz	a5,10c26 <_vfprintf_r+0x6cc>
   108aa:	629c                	ld	a5,0(a3)
   108ac:	893e                	mv	s2,a5
   108ae:	3807ca63          	bltz	a5,10c42 <_vfprintf_r+0x6e8>
   108b2:	57fd                	li	a5,-1
   108b4:	46fc03e3          	beq	s8,a5,1151a <_vfprintf_r+0xfc0>
   108b8:	f7f4f493          	andi	s1,s1,-129
   108bc:	e83a                	sd	a4,16(sp)
   108be:	00048d9b          	sext.w	s11,s1
   108c2:	100912e3          	bnez	s2,111c6 <_vfprintf_r+0xc6c>
   108c6:	100c13e3          	bnez	s8,111cc <_vfprintf_r+0xc72>
   108ca:	84ee                	mv	s1,s11
   108cc:	4c01                	li	s8,0
   108ce:	4b81                	li	s7,0
   108d0:	18c10d13          	addi	s10,sp,396
   108d4:	000b891b          	sext.w	s2,s7
   108d8:	018bd463          	bge	s7,s8,108e0 <_vfprintf_r+0x386>
   108dc:	000c091b          	sext.w	s2,s8
   108e0:	0df14783          	lbu	a5,223(sp)
   108e4:	ec02                	sd	zero,24(sp)
   108e6:	e482                	sd	zero,72(sp)
   108e8:	ec82                	sd	zero,88(sp)
   108ea:	e882                	sd	zero,80(sp)
   108ec:	e20788e3          	beqz	a5,1071c <_vfprintf_r+0x1c2>
   108f0:	2905                	addiw	s2,s2,1
   108f2:	b52d                	j	1071c <_vfprintf_r+0x1c2>
   108f4:	0104e493          	ori	s1,s1,16
   108f8:	2481                	sext.w	s1,s1
   108fa:	66c2                	ld	a3,16(sp)
   108fc:	0204f793          	andi	a5,s1,32
   10900:	00868713          	addi	a4,a3,8
   10904:	30078263          	beqz	a5,10c08 <_vfprintf_r+0x6ae>
   10908:	0006b903          	ld	s2,0(a3)
   1090c:	bff4f493          	andi	s1,s1,-1025
   10910:	00048d9b          	sext.w	s11,s1
   10914:	e83a                	sd	a4,16(sp)
   10916:	4781                	li	a5,0
   10918:	0c010fa3          	sb	zero,223(sp)
   1091c:	577d                	li	a4,-1
   1091e:	32ec0e63          	beq	s8,a4,10c5a <_vfprintf_r+0x700>
   10922:	f7fdf493          	andi	s1,s11,-129
   10926:	2481                	sext.w	s1,s1
   10928:	08091be3          	bnez	s2,111be <_vfprintf_r+0xc64>
   1092c:	580c1a63          	bnez	s8,10ec0 <_vfprintf_r+0x966>
   10930:	ffd1                	bnez	a5,108cc <_vfprintf_r+0x372>
   10932:	001dfb93          	andi	s7,s11,1
   10936:	18c10d13          	addi	s10,sp,396
   1093a:	f80b8de3          	beqz	s7,108d4 <_vfprintf_r+0x37a>
   1093e:	03000793          	li	a5,48
   10942:	18f105a3          	sb	a5,395(sp)
   10946:	18b10d13          	addi	s10,sp,395
   1094a:	b769                	j	108d4 <_vfprintf_r+0x37a>
   1094c:	41a404bb          	subw	s1,s0,s10
   10950:	d00496e3          	bnez	s1,1065c <_vfprintf_r+0x102>
   10954:	00044783          	lbu	a5,0(s0)
   10958:	bb0d                	j	1068a <_vfprintf_r+0x130>
   1095a:	0a10                	addi	a2,sp,272
   1095c:	85ce                	mv	a1,s3
   1095e:	8552                	mv	a0,s4
   10960:	7bc070ef          	jal	ra,1811c <__sprint_r>
   10964:	ea0515e3          	bnez	a0,1080e <_vfprintf_r+0x2b4>
   10968:	835a                	mv	t1,s6
   1096a:	bb19                	j	10680 <_vfprintf_r+0x126>
   1096c:	0084f793          	andi	a5,s1,8
   10970:	38079ae3          	bnez	a5,11504 <_vfprintf_r+0xfaa>
   10974:	67c2                	ld	a5,16(sp)
   10976:	ec1a                	sd	t1,24(sp)
   10978:	2388                	fld	fa0,0(a5)
   1097a:	07a1                	addi	a5,a5,8
   1097c:	e83e                	sd	a5,16(sp)
   1097e:	3840b0ef          	jal	ra,1bd02 <__extenddftf2>
   10982:	6362                	ld	t1,24(sp)
   10984:	e22a                	sd	a0,256(sp)
   10986:	e62e                	sd	a1,264(sp)
   10988:	0208                	addi	a0,sp,256
   1098a:	ec1a                	sd	t1,24(sp)
   1098c:	29c040ef          	jal	ra,14c28 <_ldcheck>
   10990:	d5aa                	sw	a0,232(sp)
   10992:	4789                	li	a5,2
   10994:	6362                	ld	t1,24(sp)
   10996:	62f500e3          	beq	a0,a5,117b6 <_vfprintf_r+0x125c>
   1099a:	4785                	li	a5,1
   1099c:	6cf50ae3          	beq	a0,a5,11870 <_vfprintf_r+0x1316>
   109a0:	06100793          	li	a5,97
   109a4:	00fc9463          	bne	s9,a5,109ac <_vfprintf_r+0x452>
   109a8:	55a0106f          	j	11f02 <_vfprintf_r+0x19a8>
   109ac:	04100793          	li	a5,65
   109b0:	00fc9463          	bne	s9,a5,109b8 <_vfprintf_r+0x45e>
   109b4:	10a0106f          	j	11abe <_vfprintf_r+0x1564>
   109b8:	fdfcf713          	andi	a4,s9,-33
   109bc:	57fd                	li	a5,-1
   109be:	ecba                	sd	a4,88(sp)
   109c0:	00fc1463          	bne	s8,a5,109c8 <_vfprintf_r+0x46e>
   109c4:	5600106f          	j	11f24 <_vfprintf_r+0x19ca>
   109c8:	04700793          	li	a5,71
   109cc:	00f71463          	bne	a4,a5,109d4 <_vfprintf_r+0x47a>
   109d0:	5620106f          	j	11f32 <_vfprintf_r+0x19d8>
   109d4:	6bb2                	ld	s7,264(sp)
   109d6:	1004e793          	ori	a5,s1,256
   109da:	f526                	sd	s1,168(sp)
   109dc:	6d92                	ld	s11,256(sp)
   109de:	2781                	sext.w	a5,a5
   109e0:	000bd463          	bgez	s7,109e8 <_vfprintf_r+0x48e>
   109e4:	58a0106f          	j	11f6e <_vfprintf_r+0x1a14>
   109e8:	e582                	sd	zero,200(sp)
   109ea:	84be                	mv	s1,a5
   109ec:	ec02                	sd	zero,24(sp)
   109ee:	2701                	sext.w	a4,a4
   109f0:	04600793          	li	a5,70
   109f4:	00f71463          	bne	a4,a5,109fc <_vfprintf_r+0x4a2>
   109f8:	3320106f          	j	11d2a <_vfprintf_r+0x17d0>
   109fc:	6766                	ld	a4,88(sp)
   109fe:	04500793          	li	a5,69
   10a02:	f01a                	sd	t1,32(sp)
   10a04:	00f70463          	beq	a4,a5,10a0c <_vfprintf_r+0x4b2>
   10a08:	2e80106f          	j	11cf0 <_vfprintf_r+0x1796>
   10a0c:	001c091b          	addiw	s2,s8,1
   10a10:	874a                	mv	a4,s2
   10a12:	0f810893          	addi	a7,sp,248
   10a16:	0ec10813          	addi	a6,sp,236
   10a1a:	11bc                	addi	a5,sp,232
   10a1c:	4689                	li	a3,2
   10a1e:	85ee                	mv	a1,s11
   10a20:	865e                	mv	a2,s7
   10a22:	8552                	mv	a0,s4
   10a24:	3ca030ef          	jal	ra,13dee <_ldtoa_r>
   10a28:	7302                	ld	t1,32(sp)
   10a2a:	8d2a                	mv	s10,a0
   10a2c:	992a                	add	s2,s2,a0
   10a2e:	4681                	li	a3,0
   10a30:	4601                	li	a2,0
   10a32:	856e                	mv	a0,s11
   10a34:	85de                	mv	a1,s7
   10a36:	f01a                	sd	t1,32(sp)
   10a38:	1c80a0ef          	jal	ra,1ac00 <__eqtf2>
   10a3c:	7302                	ld	t1,32(sp)
   10a3e:	86ca                	mv	a3,s2
   10a40:	cd11                	beqz	a0,10a5c <_vfprintf_r+0x502>
   10a42:	76ee                	ld	a3,248(sp)
   10a44:	0126fc63          	bgeu	a3,s2,10a5c <_vfprintf_r+0x502>
   10a48:	03000713          	li	a4,48
   10a4c:	00168793          	addi	a5,a3,1
   10a50:	fdbe                	sd	a5,248(sp)
   10a52:	00e68023          	sb	a4,0(a3)
   10a56:	76ee                	ld	a3,248(sp)
   10a58:	ff26eae3          	bltu	a3,s2,10a4c <_vfprintf_r+0x4f2>
   10a5c:	41a687bb          	subw	a5,a3,s10
   10a60:	f03e                	sd	a5,32(sp)
   10a62:	572e                	lw	a4,232(sp)
   10a64:	04700793          	li	a5,71
   10a68:	e8ba                	sd	a4,80(sp)
   10a6a:	6766                	ld	a4,88(sp)
   10a6c:	00f71463          	bne	a4,a5,10a74 <_vfprintf_r+0x51a>
   10a70:	1c60106f          	j	11c36 <_vfprintf_r+0x16dc>
   10a74:	6766                	ld	a4,88(sp)
   10a76:	04600793          	li	a5,70
   10a7a:	00f71463          	bne	a4,a5,10a82 <_vfprintf_r+0x528>
   10a7e:	3760106f          	j	11df4 <_vfprintf_r+0x189a>
   10a82:	67c6                	ld	a5,80(sp)
   10a84:	65e6                	ld	a1,88(sp)
   10a86:	04100613          	li	a2,65
   10a8a:	37fd                	addiw	a5,a5,-1
   10a8c:	d5be                	sw	a5,232(sp)
   10a8e:	0ffcf713          	andi	a4,s9,255
   10a92:	4681                	li	a3,0
   10a94:	00c59663          	bne	a1,a2,10aa0 <_vfprintf_r+0x546>
   10a98:	273d                	addiw	a4,a4,15
   10a9a:	0ff77713          	andi	a4,a4,255
   10a9e:	4685                	li	a3,1
   10aa0:	0ee10823          	sb	a4,240(sp)
   10aa4:	02b00713          	li	a4,43
   10aa8:	0007d763          	bgez	a5,10ab6 <_vfprintf_r+0x55c>
   10aac:	6746                	ld	a4,80(sp)
   10aae:	4785                	li	a5,1
   10ab0:	9f99                	subw	a5,a5,a4
   10ab2:	02d00713          	li	a4,45
   10ab6:	0ee108a3          	sb	a4,241(sp)
   10aba:	4725                	li	a4,9
   10abc:	00f74463          	blt	a4,a5,10ac4 <_vfprintf_r+0x56a>
   10ac0:	56a0106f          	j	1202a <_vfprintf_r+0x1ad0>
   10ac4:	0ff10513          	addi	a0,sp,255
   10ac8:	85aa                	mv	a1,a0
   10aca:	46a9                	li	a3,10
   10acc:	06300e13          	li	t3,99
   10ad0:	02d7e73b          	remw	a4,a5,a3
   10ad4:	862e                	mv	a2,a1
   10ad6:	88be                	mv	a7,a5
   10ad8:	15fd                	addi	a1,a1,-1
   10ada:	0307071b          	addiw	a4,a4,48
   10ade:	fee60fa3          	sb	a4,-1(a2)
   10ae2:	02d7c7bb          	divw	a5,a5,a3
   10ae6:	ff1e45e3          	blt	t3,a7,10ad0 <_vfprintf_r+0x576>
   10aea:	0307879b          	addiw	a5,a5,48
   10aee:	0ff7f693          	andi	a3,a5,255
   10af2:	fed58fa3          	sb	a3,-1(a1)
   10af6:	ffe60793          	addi	a5,a2,-2
   10afa:	00a7e463          	bltu	a5,a0,10b02 <_vfprintf_r+0x5a8>
   10afe:	5f80106f          	j	120f6 <_vfprintf_r+0x1b9c>
   10b02:	0f210713          	addi	a4,sp,242
   10b06:	a019                	j	10b0c <_vfprintf_r+0x5b2>
   10b08:	0007c683          	lbu	a3,0(a5)
   10b0c:	00d70023          	sb	a3,0(a4) # ffffffffffffe000 <__BSS_END__+0xfffffffffffdf010>
   10b10:	0785                	addi	a5,a5,1
   10b12:	0705                	addi	a4,a4,1
   10b14:	fea79ae3          	bne	a5,a0,10b08 <_vfprintf_r+0x5ae>
   10b18:	10110793          	addi	a5,sp,257
   10b1c:	0f210713          	addi	a4,sp,242
   10b20:	8f91                	sub	a5,a5,a2
   10b22:	97ba                	add	a5,a5,a4
   10b24:	1998                	addi	a4,sp,240
   10b26:	9f99                	subw	a5,a5,a4
   10b28:	fcbe                	sd	a5,120(sp)
   10b2a:	77e6                	ld	a5,120(sp)
   10b2c:	7682                	ld	a3,32(sp)
   10b2e:	4705                	li	a4,1
   10b30:	00f68bbb          	addw	s7,a3,a5
   10b34:	87de                	mv	a5,s7
   10b36:	00d74463          	blt	a4,a3,10b3e <_vfprintf_r+0x5e4>
   10b3a:	52a0106f          	j	12064 <_vfprintf_r+0x1b0a>
   10b3e:	7726                	ld	a4,104(sp)
   10b40:	00e78bbb          	addw	s7,a5,a4
   10b44:	77aa                	ld	a5,168(sp)
   10b46:	fffbc913          	not	s2,s7
   10b4a:	43f95913          	srai	s2,s2,0x3f
   10b4e:	bff7f493          	andi	s1,a5,-1025
   10b52:	2481                	sext.w	s1,s1
   10b54:	012bf933          	and	s2,s7,s2
   10b58:	1004e493          	ori	s1,s1,256
   10b5c:	2901                	sext.w	s2,s2
   10b5e:	e482                	sd	zero,72(sp)
   10b60:	ec82                	sd	zero,88(sp)
   10b62:	e882                	sd	zero,80(sp)
   10b64:	67ae                	ld	a5,200(sp)
   10b66:	e399                	bnez	a5,10b6c <_vfprintf_r+0x612>
   10b68:	1240106f          	j	11c8c <_vfprintf_r+0x1732>
   10b6c:	02d00793          	li	a5,45
   10b70:	0cf10fa3          	sb	a5,223(sp)
   10b74:	4c01                	li	s8,0
   10b76:	2905                	addiw	s2,s2,1
   10b78:	b655                	j	1071c <_vfprintf_r+0x1c2>
   10b7a:	0a10                	addi	a2,sp,272
   10b7c:	85ce                	mv	a1,s3
   10b7e:	8552                	mv	a0,s4
   10b80:	f816                	sd	t0,48(sp)
   10b82:	59a070ef          	jal	ra,1811c <__sprint_r>
   10b86:	56051263          	bnez	a0,110ea <_vfprintf_r+0xb90>
   10b8a:	7792                	ld	a5,288(sp)
   10b8c:	72c2                	ld	t0,48(sp)
   10b8e:	835a                	mv	t1,s6
   10b90:	bee1                	j	10768 <_vfprintf_r+0x20e>
   10b92:	7746                	ld	a4,112(sp)
   10b94:	76a6                	ld	a3,104(sp)
   10b96:	0341                	addi	t1,t1,16
   10b98:	fee33823          	sd	a4,-16(t1)
   10b9c:	11812703          	lw	a4,280(sp)
   10ba0:	97b6                	add	a5,a5,a3
   10ba2:	fed33c23          	sd	a3,-8(t1)
   10ba6:	2705                	addiw	a4,a4,1
   10ba8:	0007069b          	sext.w	a3,a4
   10bac:	10e12c23          	sw	a4,280(sp)
   10bb0:	f23e                	sd	a5,288(sp)
   10bb2:	471d                	li	a4,7
   10bb4:	00d75e63          	bge	a4,a3,10bd0 <_vfprintf_r+0x676>
   10bb8:	0a10                	addi	a2,sp,272
   10bba:	85ce                	mv	a1,s3
   10bbc:	8552                	mv	a0,s4
   10bbe:	55e070ef          	jal	ra,1811c <__sprint_r>
   10bc2:	52051463          	bnez	a0,110ea <_vfprintf_r+0xb90>
   10bc6:	562e                	lw	a2,232(sp)
   10bc8:	7792                	ld	a5,288(sp)
   10bca:	11812683          	lw	a3,280(sp)
   10bce:	835a                	mv	t1,s6
   10bd0:	00065463          	bgez	a2,10bd8 <_vfprintf_r+0x67e>
   10bd4:	2420106f          	j	11e16 <_vfprintf_r+0x18bc>
   10bd8:	7702                	ld	a4,32(sp)
   10bda:	0016861b          	addiw	a2,a3,1
   10bde:	01a33023          	sd	s10,0(t1)
   10be2:	97ba                	add	a5,a5,a4
   10be4:	00e33423          	sd	a4,8(t1)
   10be8:	f23e                	sd	a5,288(sp)
   10bea:	10c12c23          	sw	a2,280(sp)
   10bee:	471d                	li	a4,7
   10bf0:	bcc75de3          	bge	a4,a2,107ca <_vfprintf_r+0x270>
   10bf4:	0a10                	addi	a2,sp,272
   10bf6:	85ce                	mv	a1,s3
   10bf8:	8552                	mv	a0,s4
   10bfa:	522070ef          	jal	ra,1811c <__sprint_r>
   10bfe:	4e051663          	bnez	a0,110ea <_vfprintf_r+0xb90>
   10c02:	7792                	ld	a5,288(sp)
   10c04:	835a                	mv	t1,s6
   10c06:	b6d9                	j	107cc <_vfprintf_r+0x272>
   10c08:	0104f793          	andi	a5,s1,16
   10c0c:	0e0797e3          	bnez	a5,114fa <_vfprintf_r+0xfa0>
   10c10:	66c2                	ld	a3,16(sp)
   10c12:	0404f793          	andi	a5,s1,64
   10c16:	0006a903          	lw	s2,0(a3)
   10c1a:	440783e3          	beqz	a5,11860 <_vfprintf_r+0x1306>
   10c1e:	1942                	slli	s2,s2,0x30
   10c20:	03095913          	srli	s2,s2,0x30
   10c24:	b1e5                	j	1090c <_vfprintf_r+0x3b2>
   10c26:	0104f793          	andi	a5,s1,16
   10c2a:	0c0793e3          	bnez	a5,114f0 <_vfprintf_r+0xf96>
   10c2e:	0404f793          	andi	a5,s1,64
   10c32:	400786e3          	beqz	a5,1183e <_vfprintf_r+0x12e4>
   10c36:	67c2                	ld	a5,16(sp)
   10c38:	00079903          	lh	s2,0(a5)
   10c3c:	87ca                	mv	a5,s2
   10c3e:	c607dae3          	bgez	a5,108b2 <_vfprintf_r+0x358>
   10c42:	02d00793          	li	a5,45
   10c46:	0cf10fa3          	sb	a5,223(sp)
   10c4a:	e83a                	sd	a4,16(sp)
   10c4c:	577d                	li	a4,-1
   10c4e:	41200933          	neg	s2,s2
   10c52:	8da6                	mv	s11,s1
   10c54:	4785                	li	a5,1
   10c56:	ccec16e3          	bne	s8,a4,10922 <_vfprintf_r+0x3c8>
   10c5a:	4705                	li	a4,1
   10c5c:	56e78563          	beq	a5,a4,111c6 <_vfprintf_r+0xc6c>
   10c60:	4709                	li	a4,2
   10c62:	26e78863          	beq	a5,a4,10ed2 <_vfprintf_r+0x978>
   10c66:	18c10b93          	addi	s7,sp,396
   10c6a:	8d5e                	mv	s10,s7
   10c6c:	00797793          	andi	a5,s2,7
   10c70:	03078793          	addi	a5,a5,48
   10c74:	fefd0fa3          	sb	a5,-1(s10)
   10c78:	00395913          	srli	s2,s2,0x3
   10c7c:	876a                	mv	a4,s10
   10c7e:	1d7d                	addi	s10,s10,-1
   10c80:	fe0916e3          	bnez	s2,10c6c <_vfprintf_r+0x712>
   10c84:	001df693          	andi	a3,s11,1
   10c88:	26068563          	beqz	a3,10ef2 <_vfprintf_r+0x998>
   10c8c:	03000693          	li	a3,48
   10c90:	26d78163          	beq	a5,a3,10ef2 <_vfprintf_r+0x998>
   10c94:	1779                	addi	a4,a4,-2
   10c96:	fedd0fa3          	sb	a3,-1(s10)
   10c9a:	40eb8bbb          	subw	s7,s7,a4
   10c9e:	84ee                	mv	s1,s11
   10ca0:	8d3a                	mv	s10,a4
   10ca2:	b90d                	j	108d4 <_vfprintf_r+0x37a>
   10ca4:	8552                	mv	a0,s4
   10ca6:	2c9010ef          	jal	ra,1276e <__sinit>
   10caa:	ba01                	j	105ba <_vfprintf_r+0x60>
   10cac:	67c2                	ld	a5,16(sp)
   10cae:	0c010fa3          	sb	zero,223(sp)
   10cb2:	0007bd03          	ld	s10,0(a5)
   10cb6:	00878d93          	addi	s11,a5,8
   10cba:	1a0d0de3          	beqz	s10,11674 <_vfprintf_r+0x111a>
   10cbe:	57fd                	li	a5,-1
   10cc0:	32fc0be3          	beq	s8,a5,117f6 <_vfprintf_r+0x129c>
   10cc4:	8662                	mv	a2,s8
   10cc6:	4581                	li	a1,0
   10cc8:	856a                	mv	a0,s10
   10cca:	e81a                	sd	t1,16(sp)
   10ccc:	79e040ef          	jal	ra,1546a <memchr>
   10cd0:	ec2a                	sd	a0,24(sp)
   10cd2:	6342                	ld	t1,16(sp)
   10cd4:	e119                	bnez	a0,10cda <_vfprintf_r+0x780>
   10cd6:	0b80106f          	j	11d8e <_vfprintf_r+0x1834>
   10cda:	67e2                	ld	a5,24(sp)
   10cdc:	e86e                	sd	s11,16(sp)
   10cde:	ec02                	sd	zero,24(sp)
   10ce0:	41a78bbb          	subw	s7,a5,s10
   10ce4:	fffbc913          	not	s2,s7
   10ce8:	0df14783          	lbu	a5,223(sp)
   10cec:	43f95913          	srai	s2,s2,0x3f
   10cf0:	012bf933          	and	s2,s7,s2
   10cf4:	e482                	sd	zero,72(sp)
   10cf6:	ec82                	sd	zero,88(sp)
   10cf8:	e882                	sd	zero,80(sp)
   10cfa:	2901                	sext.w	s2,s2
   10cfc:	4c01                	li	s8,0
   10cfe:	be0799e3          	bnez	a5,108f0 <_vfprintf_r+0x396>
   10d02:	bc29                	j	1071c <_vfprintf_r+0x1c2>
   10d04:	6742                	ld	a4,16(sp)
   10d06:	0c010fa3          	sb	zero,223(sp)
   10d0a:	4905                	li	s2,1
   10d0c:	431c                	lw	a5,0(a4)
   10d0e:	0721                	addi	a4,a4,8
   10d10:	e83a                	sd	a4,16(sp)
   10d12:	12f10423          	sb	a5,296(sp)
   10d16:	4b85                	li	s7,1
   10d18:	12810d13          	addi	s10,sp,296
   10d1c:	badd                	j	10712 <_vfprintf_r+0x1b8>
   10d1e:	00044e83          	lbu	t4,0(s0)
   10d22:	0044e493          	ori	s1,s1,4
   10d26:	2481                	sext.w	s1,s1
   10d28:	b249                	j	106aa <_vfprintf_r+0x150>
   10d2a:	02b00793          	li	a5,43
   10d2e:	00044e83          	lbu	t4,0(s0)
   10d32:	0cf10fa3          	sb	a5,223(sp)
   10d36:	ba95                	j	106aa <_vfprintf_r+0x150>
   10d38:	0804e493          	ori	s1,s1,128
   10d3c:	00044e83          	lbu	t4,0(s0)
   10d40:	2481                	sext.w	s1,s1
   10d42:	b2a5                	j	106aa <_vfprintf_r+0x150>
   10d44:	00044c83          	lbu	s9,0(s0)
   10d48:	00140793          	addi	a5,s0,1
   10d4c:	00dc9463          	bne	s9,a3,10d54 <_vfprintf_r+0x7fa>
   10d50:	3780106f          	j	120c8 <_vfprintf_r+0x1b6e>
   10d54:	fd0c871b          	addiw	a4,s9,-48
   10d58:	843e                	mv	s0,a5
   10d5a:	4c01                	li	s8,0
   10d5c:	94edece3          	bltu	s11,a4,106b4 <_vfprintf_r+0x15a>
   10d60:	00044c83          	lbu	s9,0(s0)
   10d64:	002c179b          	slliw	a5,s8,0x2
   10d68:	01878e3b          	addw	t3,a5,s8
   10d6c:	001e1e1b          	slliw	t3,t3,0x1
   10d70:	00ee0c3b          	addw	s8,t3,a4
   10d74:	fd0c871b          	addiw	a4,s9,-48
   10d78:	0405                	addi	s0,s0,1
   10d7a:	feedf3e3          	bgeu	s11,a4,10d60 <_vfprintf_r+0x806>
   10d7e:	ba1d                	j	106b4 <_vfprintf_r+0x15a>
   10d80:	67c2                	ld	a5,16(sp)
   10d82:	00044e83          	lbu	t4,0(s0)
   10d86:	0007aa83          	lw	s5,0(a5)
   10d8a:	07a1                	addi	a5,a5,8
   10d8c:	e83e                	sd	a5,16(sp)
   10d8e:	900adee3          	bgez	s5,106aa <_vfprintf_r+0x150>
   10d92:	41500abb          	negw	s5,s5
   10d96:	b771                	j	10d22 <_vfprintf_r+0x7c8>
   10d98:	8552                	mv	a0,s4
   10d9a:	ec1a                	sd	t1,24(sp)
   10d9c:	6c9030ef          	jal	ra,14c64 <_localeconv_r>
   10da0:	651c                	ld	a5,8(a0)
   10da2:	853e                	mv	a0,a5
   10da4:	e53e                	sd	a5,136(sp)
   10da6:	670050ef          	jal	ra,16416 <strlen>
   10daa:	87aa                	mv	a5,a0
   10dac:	8552                	mv	a0,s4
   10dae:	8cbe                	mv	s9,a5
   10db0:	e13e                	sd	a5,128(sp)
   10db2:	6b3030ef          	jal	ra,14c64 <_localeconv_r>
   10db6:	691c                	ld	a5,16(a0)
   10db8:	6362                	ld	t1,24(sp)
   10dba:	00044e83          	lbu	t4,0(s0)
   10dbe:	f0be                	sd	a5,96(sp)
   10dc0:	8e0c85e3          	beqz	s9,106aa <_vfprintf_r+0x150>
   10dc4:	8e0783e3          	beqz	a5,106aa <_vfprintf_r+0x150>
   10dc8:	0007c783          	lbu	a5,0(a5)
   10dcc:	8c078fe3          	beqz	a5,106aa <_vfprintf_r+0x150>
   10dd0:	4004e493          	ori	s1,s1,1024
   10dd4:	2481                	sext.w	s1,s1
   10dd6:	b8d1                	j	106aa <_vfprintf_r+0x150>
   10dd8:	0014e493          	ori	s1,s1,1
   10ddc:	00044e83          	lbu	t4,0(s0)
   10de0:	2481                	sext.w	s1,s1
   10de2:	b0e1                	j	106aa <_vfprintf_r+0x150>
   10de4:	0df14783          	lbu	a5,223(sp)
   10de8:	00044e83          	lbu	t4,0(s0)
   10dec:	8a079fe3          	bnez	a5,106aa <_vfprintf_r+0x150>
   10df0:	02000793          	li	a5,32
   10df4:	0cf10fa3          	sb	a5,223(sp)
   10df8:	b84d                	j	106aa <_vfprintf_r+0x150>
   10dfa:	0084e493          	ori	s1,s1,8
   10dfe:	00044e83          	lbu	t4,0(s0)
   10e02:	2481                	sext.w	s1,s1
   10e04:	b05d                	j	106aa <_vfprintf_r+0x150>
   10e06:	0104e493          	ori	s1,s1,16
   10e0a:	00048d9b          	sext.w	s11,s1
   10e0e:	66c2                	ld	a3,16(sp)
   10e10:	020df793          	andi	a5,s11,32
   10e14:	00868713          	addi	a4,a3,8
   10e18:	68078a63          	beqz	a5,114ac <_vfprintf_r+0xf52>
   10e1c:	0006b903          	ld	s2,0(a3)
   10e20:	4785                	li	a5,1
   10e22:	e83a                	sd	a4,16(sp)
   10e24:	bcd5                	j	10918 <_vfprintf_r+0x3be>
   10e26:	0204e493          	ori	s1,s1,32
   10e2a:	00044e83          	lbu	t4,0(s0)
   10e2e:	2481                	sext.w	s1,s1
   10e30:	b8ad                	j	106aa <_vfprintf_r+0x150>
   10e32:	6742                	ld	a4,16(sp)
   10e34:	77e1                	lui	a5,0xffff8
   10e36:	8307c793          	xori	a5,a5,-2000
   10e3a:	0ef11023          	sh	a5,224(sp)
   10e3e:	00870793          	addi	a5,a4,8
   10e42:	e83e                	sd	a5,16(sp)
   10e44:	67f1                	lui	a5,0x1c
   10e46:	12078793          	addi	a5,a5,288 # 1c120 <__clzdi2+0x12e>
   10e4a:	0024e493          	ori	s1,s1,2
   10e4e:	f43e                	sd	a5,40(sp)
   10e50:	00073903          	ld	s2,0(a4)
   10e54:	00048d9b          	sext.w	s11,s1
   10e58:	4789                	li	a5,2
   10e5a:	07800c93          	li	s9,120
   10e5e:	bc6d                	j	10918 <_vfprintf_r+0x3be>
   10e60:	66c2                	ld	a3,16(sp)
   10e62:	0204f793          	andi	a5,s1,32
   10e66:	6298                	ld	a4,0(a3)
   10e68:	06a1                	addi	a3,a3,8
   10e6a:	e836                	sd	a3,16(sp)
   10e6c:	66079663          	bnez	a5,114d8 <_vfprintf_r+0xf7e>
   10e70:	0104f793          	andi	a5,s1,16
   10e74:	66079263          	bnez	a5,114d8 <_vfprintf_r+0xf7e>
   10e78:	0404f793          	andi	a5,s1,64
   10e7c:	3e0799e3          	bnez	a5,11a6e <_vfprintf_r+0x1514>
   10e80:	2004f493          	andi	s1,s1,512
   10e84:	67a2                	ld	a5,8(sp)
   10e86:	e099                	bnez	s1,10e8c <_vfprintf_r+0x932>
   10e88:	0a20106f          	j	11f2a <_vfprintf_r+0x19d0>
   10e8c:	00f70023          	sb	a5,0(a4)
   10e90:	8d22                	mv	s10,s0
   10e92:	b2b5                	j	107fe <_vfprintf_r+0x2a4>
   10e94:	00044e83          	lbu	t4,0(s0)
   10e98:	06c00793          	li	a5,108
   10e9c:	7afe8563          	beq	t4,a5,11646 <_vfprintf_r+0x10ec>
   10ea0:	0104e493          	ori	s1,s1,16
   10ea4:	2481                	sext.w	s1,s1
   10ea6:	805ff06f          	j	106aa <_vfprintf_r+0x150>
   10eaa:	00044e83          	lbu	t4,0(s0)
   10eae:	06800793          	li	a5,104
   10eb2:	78fe8263          	beq	t4,a5,11636 <_vfprintf_r+0x10dc>
   10eb6:	0404e493          	ori	s1,s1,64
   10eba:	2481                	sext.w	s1,s1
   10ebc:	feeff06f          	j	106aa <_vfprintf_r+0x150>
   10ec0:	4705                	li	a4,1
   10ec2:	00e79463          	bne	a5,a4,10eca <_vfprintf_r+0x970>
   10ec6:	0580106f          	j	11f1e <_vfprintf_r+0x19c4>
   10eca:	4709                	li	a4,2
   10ecc:	8da6                	mv	s11,s1
   10ece:	d8e79ce3          	bne	a5,a4,10c66 <_vfprintf_r+0x70c>
   10ed2:	18c10b93          	addi	s7,sp,396
   10ed6:	8d5e                	mv	s10,s7
   10ed8:	7722                	ld	a4,40(sp)
   10eda:	00f97793          	andi	a5,s2,15
   10ede:	1d7d                	addi	s10,s10,-1
   10ee0:	97ba                	add	a5,a5,a4
   10ee2:	0007c783          	lbu	a5,0(a5)
   10ee6:	00495913          	srli	s2,s2,0x4
   10eea:	00fd0023          	sb	a5,0(s10)
   10eee:	fe0915e3          	bnez	s2,10ed8 <_vfprintf_r+0x97e>
   10ef2:	41ab8bbb          	subw	s7,s7,s10
   10ef6:	84ee                	mv	s1,s11
   10ef8:	baf1                	j	108d4 <_vfprintf_r+0x37a>
   10efa:	06500713          	li	a4,101
   10efe:	1f975f63          	bge	a4,s9,110fc <_vfprintf_r+0xba2>
   10f02:	6512                	ld	a0,256(sp)
   10f04:	65b2                	ld	a1,264(sp)
   10f06:	4601                	li	a2,0
   10f08:	4681                	li	a3,0
   10f0a:	fc3e                	sd	a5,56(sp)
   10f0c:	f81a                	sd	t1,48(sp)
   10f0e:	4f3090ef          	jal	ra,1ac00 <__eqtf2>
   10f12:	7342                	ld	t1,48(sp)
   10f14:	77e2                	ld	a5,56(sp)
   10f16:	3e051d63          	bnez	a0,11310 <_vfprintf_r+0xdb6>
   10f1a:	11812703          	lw	a4,280(sp)
   10f1e:	66f1                	lui	a3,0x1c
   10f20:	14068693          	addi	a3,a3,320 # 1c140 <__clzdi2+0x14e>
   10f24:	2705                	addiw	a4,a4,1
   10f26:	00d33023          	sd	a3,0(t1)
   10f2a:	0785                	addi	a5,a5,1
   10f2c:	4685                	li	a3,1
   10f2e:	00d33423          	sd	a3,8(t1)
   10f32:	10e12c23          	sw	a4,280(sp)
   10f36:	0007069b          	sext.w	a3,a4
   10f3a:	f23e                	sd	a5,288(sp)
   10f3c:	471d                	li	a4,7
   10f3e:	0341                	addi	t1,t1,16
   10f40:	04d748e3          	blt	a4,a3,11790 <_vfprintf_r+0x1236>
   10f44:	572e                	lw	a4,232(sp)
   10f46:	7682                	ld	a3,32(sp)
   10f48:	58d75363          	bge	a4,a3,114ce <_vfprintf_r+0xf74>
   10f4c:	7746                	ld	a4,112(sp)
   10f4e:	76a6                	ld	a3,104(sp)
   10f50:	0341                	addi	t1,t1,16
   10f52:	fee33823          	sd	a4,-16(t1)
   10f56:	11812703          	lw	a4,280(sp)
   10f5a:	97b6                	add	a5,a5,a3
   10f5c:	fed33c23          	sd	a3,-8(t1)
   10f60:	2705                	addiw	a4,a4,1
   10f62:	0007069b          	sext.w	a3,a4
   10f66:	10e12c23          	sw	a4,280(sp)
   10f6a:	f23e                	sd	a5,288(sp)
   10f6c:	471d                	li	a4,7
   10f6e:	6ed74463          	blt	a4,a3,11656 <_vfprintf_r+0x10fc>
   10f72:	7702                	ld	a4,32(sp)
   10f74:	fff70b9b          	addiw	s7,a4,-1
   10f78:	85705ae3          	blez	s7,107cc <_vfprintf_r+0x272>
   10f7c:	68f1                	lui	a7,0x1c
   10f7e:	46c1                	li	a3,16
   10f80:	11812703          	lw	a4,280(sp)
   10f84:	2c888d93          	addi	s11,a7,712 # 1c2c8 <zeroes.4521>
   10f88:	4cc1                	li	s9,16
   10f8a:	4c1d                	li	s8,7
   10f8c:	0176c763          	blt	a3,s7,10f9a <_vfprintf_r+0xa40>
   10f90:	0170006f          	j	117a6 <_vfprintf_r+0x124c>
   10f94:	3bc1                	addiw	s7,s7,-16
   10f96:	017cd8e3          	bge	s9,s7,117a6 <_vfprintf_r+0x124c>
   10f9a:	2705                	addiw	a4,a4,1
   10f9c:	07c1                	addi	a5,a5,16
   10f9e:	01b33023          	sd	s11,0(t1)
   10fa2:	01933423          	sd	s9,8(t1)
   10fa6:	f23e                	sd	a5,288(sp)
   10fa8:	10e12c23          	sw	a4,280(sp)
   10fac:	0341                	addi	t1,t1,16
   10fae:	feec53e3          	bge	s8,a4,10f94 <_vfprintf_r+0xa3a>
   10fb2:	0a10                	addi	a2,sp,272
   10fb4:	85ce                	mv	a1,s3
   10fb6:	8552                	mv	a0,s4
   10fb8:	164070ef          	jal	ra,1811c <__sprint_r>
   10fbc:	12051763          	bnez	a0,110ea <_vfprintf_r+0xb90>
   10fc0:	7792                	ld	a5,288(sp)
   10fc2:	11812703          	lw	a4,280(sp)
   10fc6:	835a                	mv	t1,s6
   10fc8:	b7f1                	j	10f94 <_vfprintf_r+0xa3a>
   10fca:	412a86bb          	subw	a3,s5,s2
   10fce:	fcd05663          	blez	a3,1079a <_vfprintf_r+0x240>
   10fd2:	68f1                	lui	a7,0x1c
   10fd4:	4641                	li	a2,16
   10fd6:	11812703          	lw	a4,280(sp)
   10fda:	2c888d93          	addi	s11,a7,712 # 1c2c8 <zeroes.4521>
   10fde:	4f41                	li	t5,16
   10fe0:	4f9d                	li	t6,7
   10fe2:	00d64663          	blt	a2,a3,10fee <_vfprintf_r+0xa94>
   10fe6:	a089                	j	11028 <_vfprintf_r+0xace>
   10fe8:	36c1                	addiw	a3,a3,-16
   10fea:	02df5f63          	bge	t5,a3,11028 <_vfprintf_r+0xace>
   10fee:	2705                	addiw	a4,a4,1
   10ff0:	07c1                	addi	a5,a5,16
   10ff2:	01b33023          	sd	s11,0(t1)
   10ff6:	01e33423          	sd	t5,8(t1)
   10ffa:	f23e                	sd	a5,288(sp)
   10ffc:	10e12c23          	sw	a4,280(sp)
   11000:	0341                	addi	t1,t1,16
   11002:	feefd3e3          	bge	t6,a4,10fe8 <_vfprintf_r+0xa8e>
   11006:	0a10                	addi	a2,sp,272
   11008:	85ce                	mv	a1,s3
   1100a:	8552                	mv	a0,s4
   1100c:	f836                	sd	a3,48(sp)
   1100e:	10e070ef          	jal	ra,1811c <__sprint_r>
   11012:	ed61                	bnez	a0,110ea <_vfprintf_r+0xb90>
   11014:	76c2                	ld	a3,48(sp)
   11016:	4f41                	li	t5,16
   11018:	7792                	ld	a5,288(sp)
   1101a:	36c1                	addiw	a3,a3,-16
   1101c:	11812703          	lw	a4,280(sp)
   11020:	835a                	mv	t1,s6
   11022:	4f9d                	li	t6,7
   11024:	fcdf45e3          	blt	t5,a3,10fee <_vfprintf_r+0xa94>
   11028:	2705                	addiw	a4,a4,1
   1102a:	97b6                	add	a5,a5,a3
   1102c:	00d33423          	sd	a3,8(t1)
   11030:	01b33023          	sd	s11,0(t1)
   11034:	0007069b          	sext.w	a3,a4
   11038:	10e12c23          	sw	a4,280(sp)
   1103c:	f23e                	sd	a5,288(sp)
   1103e:	471d                	li	a4,7
   11040:	0341                	addi	t1,t1,16
   11042:	f4d75c63          	bge	a4,a3,1079a <_vfprintf_r+0x240>
   11046:	0a10                	addi	a2,sp,272
   11048:	85ce                	mv	a1,s3
   1104a:	8552                	mv	a0,s4
   1104c:	0d0070ef          	jal	ra,1811c <__sprint_r>
   11050:	ed49                	bnez	a0,110ea <_vfprintf_r+0xb90>
   11052:	7792                	ld	a5,288(sp)
   11054:	835a                	mv	t1,s6
   11056:	f44ff06f          	j	1079a <_vfprintf_r+0x240>
   1105a:	68f1                	lui	a7,0x1c
   1105c:	46c1                	li	a3,16
   1105e:	11812703          	lw	a4,280(sp)
   11062:	2c888d93          	addi	s11,a7,712 # 1c2c8 <zeroes.4521>
   11066:	4f41                	li	t5,16
   11068:	4f9d                	li	t6,7
   1106a:	0186c663          	blt	a3,s8,11076 <_vfprintf_r+0xb1c>
   1106e:	a83d                	j	110ac <_vfprintf_r+0xb52>
   11070:	3c41                	addiw	s8,s8,-16
   11072:	038f5d63          	bge	t5,s8,110ac <_vfprintf_r+0xb52>
   11076:	2705                	addiw	a4,a4,1
   11078:	07c1                	addi	a5,a5,16
   1107a:	01b33023          	sd	s11,0(t1)
   1107e:	01e33423          	sd	t5,8(t1)
   11082:	f23e                	sd	a5,288(sp)
   11084:	10e12c23          	sw	a4,280(sp)
   11088:	0341                	addi	t1,t1,16
   1108a:	feefd3e3          	bge	t6,a4,11070 <_vfprintf_r+0xb16>
   1108e:	0a10                	addi	a2,sp,272
   11090:	85ce                	mv	a1,s3
   11092:	8552                	mv	a0,s4
   11094:	088070ef          	jal	ra,1811c <__sprint_r>
   11098:	e929                	bnez	a0,110ea <_vfprintf_r+0xb90>
   1109a:	4f41                	li	t5,16
   1109c:	3c41                	addiw	s8,s8,-16
   1109e:	7792                	ld	a5,288(sp)
   110a0:	11812703          	lw	a4,280(sp)
   110a4:	835a                	mv	t1,s6
   110a6:	4f9d                	li	t6,7
   110a8:	fd8f47e3          	blt	t5,s8,11076 <_vfprintf_r+0xb1c>
   110ac:	0017069b          	addiw	a3,a4,1
   110b0:	97e2                	add	a5,a5,s8
   110b2:	01b33023          	sd	s11,0(t1)
   110b6:	01833423          	sd	s8,8(t1)
   110ba:	f23e                	sd	a5,288(sp)
   110bc:	10d12c23          	sw	a3,280(sp)
   110c0:	471d                	li	a4,7
   110c2:	0341                	addi	t1,t1,16
   110c4:	ecd75f63          	bge	a4,a3,107a2 <_vfprintf_r+0x248>
   110c8:	0a10                	addi	a2,sp,272
   110ca:	85ce                	mv	a1,s3
   110cc:	8552                	mv	a0,s4
   110ce:	04e070ef          	jal	ra,1811c <__sprint_r>
   110d2:	ed01                	bnez	a0,110ea <_vfprintf_r+0xb90>
   110d4:	7792                	ld	a5,288(sp)
   110d6:	835a                	mv	t1,s6
   110d8:	ecaff06f          	j	107a2 <_vfprintf_r+0x248>
   110dc:	0a10                	addi	a2,sp,272
   110de:	85ce                	mv	a1,s3
   110e0:	8552                	mv	a0,s4
   110e2:	03a070ef          	jal	ra,1811c <__sprint_r>
   110e6:	f0050263          	beqz	a0,107ea <_vfprintf_r+0x290>
   110ea:	67e2                	ld	a5,24(sp)
   110ec:	f2078163          	beqz	a5,1080e <_vfprintf_r+0x2b4>
   110f0:	85be                	mv	a1,a5
   110f2:	8552                	mv	a0,s4
   110f4:	7a6010ef          	jal	ra,1289a <_free_r>
   110f8:	f16ff06f          	j	1080e <_vfprintf_r+0x2b4>
   110fc:	11812603          	lw	a2,280(sp)
   11100:	00178c13          	addi	s8,a5,1
   11104:	7782                	ld	a5,32(sp)
   11106:	0016071b          	addiw	a4,a2,1
   1110a:	4585                	li	a1,1
   1110c:	01a33023          	sd	s10,0(t1)
   11110:	86ba                	mv	a3,a4
   11112:	01030b93          	addi	s7,t1,16
   11116:	32f5d163          	bge	a1,a5,11438 <_vfprintf_r+0xede>
   1111a:	4605                	li	a2,1
   1111c:	10d12c23          	sw	a3,280(sp)
   11120:	00c33423          	sd	a2,8(t1)
   11124:	f262                	sd	s8,288(sp)
   11126:	469d                	li	a3,7
   11128:	5ae6cf63          	blt	a3,a4,116e6 <_vfprintf_r+0x118c>
   1112c:	77a6                	ld	a5,104(sp)
   1112e:	0017069b          	addiw	a3,a4,1
   11132:	7746                	ld	a4,112(sp)
   11134:	9c3e                	add	s8,s8,a5
   11136:	00fbb423          	sd	a5,8(s7)
   1113a:	00ebb023          	sd	a4,0(s7)
   1113e:	10d12c23          	sw	a3,280(sp)
   11142:	0006871b          	sext.w	a4,a3
   11146:	f262                	sd	s8,288(sp)
   11148:	469d                	li	a3,7
   1114a:	0bc1                	addi	s7,s7,16
   1114c:	5ae6c963          	blt	a3,a4,116fe <_vfprintf_r+0x11a4>
   11150:	6512                	ld	a0,256(sp)
   11152:	65b2                	ld	a1,264(sp)
   11154:	00170e1b          	addiw	t3,a4,1
   11158:	4601                	li	a2,0
   1115a:	4681                	li	a3,0
   1115c:	f872                	sd	t3,48(sp)
   1115e:	fc3a                	sd	a4,56(sp)
   11160:	2a1090ef          	jal	ra,1ac00 <__eqtf2>
   11164:	7e42                	ld	t3,48(sp)
   11166:	7782                	ld	a5,32(sp)
   11168:	010b8313          	addi	t1,s7,16
   1116c:	000e061b          	sext.w	a2,t3
   11170:	fff78c9b          	addiw	s9,a5,-1
   11174:	2e050263          	beqz	a0,11458 <_vfprintf_r+0xefe>
   11178:	001d0813          	addi	a6,s10,1
   1117c:	9c66                	add	s8,s8,s9
   1117e:	010bb023          	sd	a6,0(s7)
   11182:	019bb423          	sd	s9,8(s7)
   11186:	f262                	sd	s8,288(sp)
   11188:	11c12c23          	sw	t3,280(sp)
   1118c:	469d                	li	a3,7
   1118e:	44c6c063          	blt	a3,a2,115ce <_vfprintf_r+0x1074>
   11192:	7762                	ld	a4,56(sp)
   11194:	020b8693          	addi	a3,s7,32
   11198:	8b9a                	mv	s7,t1
   1119a:	0027061b          	addiw	a2,a4,2
   1119e:	8336                	mv	t1,a3
   111a0:	76e6                	ld	a3,120(sp)
   111a2:	1998                	addi	a4,sp,240
   111a4:	00ebb023          	sd	a4,0(s7)
   111a8:	00dc07b3          	add	a5,s8,a3
   111ac:	00dbb423          	sd	a3,8(s7)
   111b0:	f23e                	sd	a5,288(sp)
   111b2:	10c12c23          	sw	a2,280(sp)
   111b6:	471d                	li	a4,7
   111b8:	e0c75a63          	bge	a4,a2,107cc <_vfprintf_r+0x272>
   111bc:	bc25                	j	10bf4 <_vfprintf_r+0x69a>
   111be:	4705                	li	a4,1
   111c0:	8da6                	mv	s11,s1
   111c2:	a8e79fe3          	bne	a5,a4,10c60 <_vfprintf_r+0x706>
   111c6:	47a5                	li	a5,9
   111c8:	3527ee63          	bltu	a5,s2,11524 <_vfprintf_r+0xfca>
   111cc:	0309091b          	addiw	s2,s2,48
   111d0:	192105a3          	sb	s2,395(sp)
   111d4:	84ee                	mv	s1,s11
   111d6:	4b85                	li	s7,1
   111d8:	18b10d13          	addi	s10,sp,395
   111dc:	ef8ff06f          	j	108d4 <_vfprintf_r+0x37a>
   111e0:	68f1                	lui	a7,0x1c
   111e2:	4641                	li	a2,16
   111e4:	11812703          	lw	a4,280(sp)
   111e8:	2b888893          	addi	a7,a7,696 # 1c2b8 <blanks.4520>
   111ec:	4f41                	li	t5,16
   111ee:	439d                	li	t2,7
   111f0:	00d64663          	blt	a2,a3,111fc <_vfprintf_r+0xca2>
   111f4:	a0b1                	j	11240 <_vfprintf_r+0xce6>
   111f6:	36c1                	addiw	a3,a3,-16
   111f8:	04df5463          	bge	t5,a3,11240 <_vfprintf_r+0xce6>
   111fc:	2705                	addiw	a4,a4,1
   111fe:	07c1                	addi	a5,a5,16
   11200:	01133023          	sd	a7,0(t1)
   11204:	01e33423          	sd	t5,8(t1)
   11208:	f23e                	sd	a5,288(sp)
   1120a:	10e12c23          	sw	a4,280(sp)
   1120e:	0341                	addi	t1,t1,16
   11210:	fee3d3e3          	bge	t2,a4,111f6 <_vfprintf_r+0xc9c>
   11214:	0a10                	addi	a2,sp,272
   11216:	85ce                	mv	a1,s3
   11218:	8552                	mv	a0,s4
   1121a:	e0c6                	sd	a7,64(sp)
   1121c:	fc16                	sd	t0,56(sp)
   1121e:	f836                	sd	a3,48(sp)
   11220:	6fd060ef          	jal	ra,1811c <__sprint_r>
   11224:	ec0513e3          	bnez	a0,110ea <_vfprintf_r+0xb90>
   11228:	76c2                	ld	a3,48(sp)
   1122a:	4f41                	li	t5,16
   1122c:	7792                	ld	a5,288(sp)
   1122e:	36c1                	addiw	a3,a3,-16
   11230:	11812703          	lw	a4,280(sp)
   11234:	6886                	ld	a7,64(sp)
   11236:	72e2                	ld	t0,56(sp)
   11238:	835a                	mv	t1,s6
   1123a:	439d                	li	t2,7
   1123c:	fcdf40e3          	blt	t5,a3,111fc <_vfprintf_r+0xca2>
   11240:	2705                	addiw	a4,a4,1
   11242:	97b6                	add	a5,a5,a3
   11244:	00d33423          	sd	a3,8(t1)
   11248:	01133023          	sd	a7,0(t1)
   1124c:	0007069b          	sext.w	a3,a4
   11250:	10e12c23          	sw	a4,280(sp)
   11254:	f23e                	sd	a5,288(sp)
   11256:	471d                	li	a4,7
   11258:	0341                	addi	t1,t1,16
   1125a:	ced75063          	bge	a4,a3,1073a <_vfprintf_r+0x1e0>
   1125e:	0a10                	addi	a2,sp,272
   11260:	85ce                	mv	a1,s3
   11262:	8552                	mv	a0,s4
   11264:	f816                	sd	t0,48(sp)
   11266:	6b7060ef          	jal	ra,1811c <__sprint_r>
   1126a:	e80510e3          	bnez	a0,110ea <_vfprintf_r+0xb90>
   1126e:	7792                	ld	a5,288(sp)
   11270:	72c2                	ld	t0,48(sp)
   11272:	835a                	mv	t1,s6
   11274:	cc6ff06f          	j	1073a <_vfprintf_r+0x1e0>
   11278:	0a10                	addi	a2,sp,272
   1127a:	85ce                	mv	a1,s3
   1127c:	8552                	mv	a0,s4
   1127e:	69f060ef          	jal	ra,1811c <__sprint_r>
   11282:	e60514e3          	bnez	a0,110ea <_vfprintf_r+0xb90>
   11286:	7792                	ld	a5,288(sp)
   11288:	835a                	mv	t1,s6
   1128a:	d08ff06f          	j	10792 <_vfprintf_r+0x238>
   1128e:	68f1                	lui	a7,0x1c
   11290:	46c1                	li	a3,16
   11292:	11812703          	lw	a4,280(sp)
   11296:	2b888893          	addi	a7,a7,696 # 1c2b8 <blanks.4520>
   1129a:	4bc1                	li	s7,16
   1129c:	4c1d                	li	s8,7
   1129e:	0096c663          	blt	a3,s1,112aa <_vfprintf_r+0xd50>
   112a2:	a081                	j	112e2 <_vfprintf_r+0xd88>
   112a4:	34c1                	addiw	s1,s1,-16
   112a6:	029bde63          	bge	s7,s1,112e2 <_vfprintf_r+0xd88>
   112aa:	2705                	addiw	a4,a4,1
   112ac:	07c1                	addi	a5,a5,16
   112ae:	01133023          	sd	a7,0(t1)
   112b2:	01733423          	sd	s7,8(t1)
   112b6:	f23e                	sd	a5,288(sp)
   112b8:	10e12c23          	sw	a4,280(sp)
   112bc:	0341                	addi	t1,t1,16
   112be:	feec53e3          	bge	s8,a4,112a4 <_vfprintf_r+0xd4a>
   112c2:	0a10                	addi	a2,sp,272
   112c4:	85ce                	mv	a1,s3
   112c6:	8552                	mv	a0,s4
   112c8:	f846                	sd	a7,48(sp)
   112ca:	653060ef          	jal	ra,1811c <__sprint_r>
   112ce:	e0051ee3          	bnez	a0,110ea <_vfprintf_r+0xb90>
   112d2:	34c1                	addiw	s1,s1,-16
   112d4:	7792                	ld	a5,288(sp)
   112d6:	11812703          	lw	a4,280(sp)
   112da:	78c2                	ld	a7,48(sp)
   112dc:	835a                	mv	t1,s6
   112de:	fc9bc6e3          	blt	s7,s1,112aa <_vfprintf_r+0xd50>
   112e2:	0017069b          	addiw	a3,a4,1
   112e6:	97a6                	add	a5,a5,s1
   112e8:	01133023          	sd	a7,0(t1)
   112ec:	00933423          	sd	s1,8(t1)
   112f0:	f23e                	sd	a5,288(sp)
   112f2:	10d12c23          	sw	a3,280(sp)
   112f6:	471d                	li	a4,7
   112f8:	ced75063          	bge	a4,a3,107d8 <_vfprintf_r+0x27e>
   112fc:	0a10                	addi	a2,sp,272
   112fe:	85ce                	mv	a1,s3
   11300:	8552                	mv	a0,s4
   11302:	61b060ef          	jal	ra,1811c <__sprint_r>
   11306:	de0512e3          	bnez	a0,110ea <_vfprintf_r+0xb90>
   1130a:	7792                	ld	a5,288(sp)
   1130c:	cccff06f          	j	107d8 <_vfprintf_r+0x27e>
   11310:	562e                	lw	a2,232(sp)
   11312:	40c05263          	blez	a2,11716 <_vfprintf_r+0x11bc>
   11316:	6746                	ld	a4,80(sp)
   11318:	7682                	ld	a3,32(sp)
   1131a:	00070b9b          	sext.w	s7,a4
   1131e:	28e6c463          	blt	a3,a4,115a6 <_vfprintf_r+0x104c>
   11322:	03705263          	blez	s7,11346 <_vfprintf_r+0xdec>
   11326:	11812703          	lw	a4,280(sp)
   1132a:	97de                	add	a5,a5,s7
   1132c:	01a33023          	sd	s10,0(t1)
   11330:	0017069b          	addiw	a3,a4,1
   11334:	01733423          	sd	s7,8(t1)
   11338:	f23e                	sd	a5,288(sp)
   1133a:	10d12c23          	sw	a3,280(sp)
   1133e:	471d                	li	a4,7
   11340:	0341                	addi	t1,t1,16
   11342:	6ed74d63          	blt	a4,a3,11a3c <_vfprintf_r+0x14e2>
   11346:	fffbc713          	not	a4,s7
   1134a:	977d                	srai	a4,a4,0x3f
   1134c:	00ebfbb3          	and	s7,s7,a4
   11350:	6746                	ld	a4,80(sp)
   11352:	41770bbb          	subw	s7,a4,s7
   11356:	33704b63          	bgtz	s7,1168c <_vfprintf_r+0x1132>
   1135a:	66c6                	ld	a3,80(sp)
   1135c:	4004f713          	andi	a4,s1,1024
   11360:	00dd0c33          	add	s8,s10,a3
   11364:	54071b63          	bnez	a4,118ba <_vfprintf_r+0x1360>
   11368:	572e                	lw	a4,232(sp)
   1136a:	7682                	ld	a3,32(sp)
   1136c:	00d74663          	blt	a4,a3,11378 <_vfprintf_r+0xe1e>
   11370:	0014f693          	andi	a3,s1,1
   11374:	6e068063          	beqz	a3,11a54 <_vfprintf_r+0x14fa>
   11378:	76c6                	ld	a3,112(sp)
   1137a:	7626                	ld	a2,104(sp)
   1137c:	0341                	addi	t1,t1,16
   1137e:	fed33823          	sd	a3,-16(t1)
   11382:	11812683          	lw	a3,280(sp)
   11386:	97b2                	add	a5,a5,a2
   11388:	fec33c23          	sd	a2,-8(t1)
   1138c:	2685                	addiw	a3,a3,1
   1138e:	0006861b          	sext.w	a2,a3
   11392:	10d12c23          	sw	a3,280(sp)
   11396:	f23e                	sd	a5,288(sp)
   11398:	469d                	li	a3,7
   1139a:	12c6cae3          	blt	a3,a2,11cce <_vfprintf_r+0x1774>
   1139e:	7682                	ld	a3,32(sp)
   113a0:	40e6863b          	subw	a2,a3,a4
   113a4:	96ea                	add	a3,a3,s10
   113a6:	418686bb          	subw	a3,a3,s8
   113aa:	8732                	mv	a4,a2
   113ac:	00c6d363          	bge	a3,a2,113b2 <_vfprintf_r+0xe58>
   113b0:	8736                	mv	a4,a3
   113b2:	00070b9b          	sext.w	s7,a4
   113b6:	03705263          	blez	s7,113da <_vfprintf_r+0xe80>
   113ba:	11812703          	lw	a4,280(sp)
   113be:	97de                	add	a5,a5,s7
   113c0:	01833023          	sd	s8,0(t1)
   113c4:	0017069b          	addiw	a3,a4,1
   113c8:	01733423          	sd	s7,8(t1)
   113cc:	f23e                	sd	a5,288(sp)
   113ce:	10d12c23          	sw	a3,280(sp)
   113d2:	471d                	li	a4,7
   113d4:	0341                	addi	t1,t1,16
   113d6:	1cd74ae3          	blt	a4,a3,11daa <_vfprintf_r+0x1850>
   113da:	fffbc713          	not	a4,s7
   113de:	977d                	srai	a4,a4,0x3f
   113e0:	00ebfbb3          	and	s7,s7,a4
   113e4:	41760bbb          	subw	s7,a2,s7
   113e8:	bf705263          	blez	s7,107cc <_vfprintf_r+0x272>
   113ec:	68f1                	lui	a7,0x1c
   113ee:	46c1                	li	a3,16
   113f0:	11812703          	lw	a4,280(sp)
   113f4:	2c888d93          	addi	s11,a7,712 # 1c2c8 <zeroes.4521>
   113f8:	4cc1                	li	s9,16
   113fa:	4c1d                	li	s8,7
   113fc:	0176c663          	blt	a3,s7,11408 <_vfprintf_r+0xeae>
   11400:	a65d                	j	117a6 <_vfprintf_r+0x124c>
   11402:	3bc1                	addiw	s7,s7,-16
   11404:	3b7cd163          	bge	s9,s7,117a6 <_vfprintf_r+0x124c>
   11408:	2705                	addiw	a4,a4,1
   1140a:	07c1                	addi	a5,a5,16
   1140c:	01b33023          	sd	s11,0(t1)
   11410:	01933423          	sd	s9,8(t1)
   11414:	f23e                	sd	a5,288(sp)
   11416:	10e12c23          	sw	a4,280(sp)
   1141a:	0341                	addi	t1,t1,16
   1141c:	feec53e3          	bge	s8,a4,11402 <_vfprintf_r+0xea8>
   11420:	0a10                	addi	a2,sp,272
   11422:	85ce                	mv	a1,s3
   11424:	8552                	mv	a0,s4
   11426:	4f7060ef          	jal	ra,1811c <__sprint_r>
   1142a:	cc0510e3          	bnez	a0,110ea <_vfprintf_r+0xb90>
   1142e:	7792                	ld	a5,288(sp)
   11430:	11812703          	lw	a4,280(sp)
   11434:	835a                	mv	t1,s6
   11436:	b7f1                	j	11402 <_vfprintf_r+0xea8>
   11438:	0014f513          	andi	a0,s1,1
   1143c:	cc051fe3          	bnez	a0,1111a <_vfprintf_r+0xbc0>
   11440:	00b33423          	sd	a1,8(t1)
   11444:	f262                	sd	s8,288(sp)
   11446:	10e12c23          	sw	a4,280(sp)
   1144a:	469d                	li	a3,7
   1144c:	18e6c163          	blt	a3,a4,115ce <_vfprintf_r+0x1074>
   11450:	2609                	addiw	a2,a2,2
   11452:	02030313          	addi	t1,t1,32
   11456:	b3a9                	j	111a0 <_vfprintf_r+0xc46>
   11458:	d59054e3          	blez	s9,111a0 <_vfprintf_r+0xc46>
   1145c:	4741                	li	a4,16
   1145e:	45975fe3          	bge	a4,s9,120bc <_vfprintf_r+0x1b62>
   11462:	68f1                	lui	a7,0x1c
   11464:	2c888d93          	addi	s11,a7,712 # 1c2c8 <zeroes.4521>
   11468:	4841                	li	a6,16
   1146a:	4d1d                	li	s10,7
   1146c:	a031                	j	11478 <_vfprintf_r+0xf1e>
   1146e:	3cc1                	addiw	s9,s9,-16
   11470:	15985063          	bge	a6,s9,115b0 <_vfprintf_r+0x1056>
   11474:	00170e1b          	addiw	t3,a4,1
   11478:	0c41                	addi	s8,s8,16
   1147a:	01bbb023          	sd	s11,0(s7)
   1147e:	010bb423          	sd	a6,8(s7)
   11482:	f262                	sd	s8,288(sp)
   11484:	000e071b          	sext.w	a4,t3
   11488:	11c12c23          	sw	t3,280(sp)
   1148c:	0bc1                	addi	s7,s7,16
   1148e:	feed50e3          	bge	s10,a4,1146e <_vfprintf_r+0xf14>
   11492:	0a10                	addi	a2,sp,272
   11494:	85ce                	mv	a1,s3
   11496:	8552                	mv	a0,s4
   11498:	485060ef          	jal	ra,1811c <__sprint_r>
   1149c:	c40517e3          	bnez	a0,110ea <_vfprintf_r+0xb90>
   114a0:	7c12                	ld	s8,288(sp)
   114a2:	11812703          	lw	a4,280(sp)
   114a6:	8bda                	mv	s7,s6
   114a8:	4841                	li	a6,16
   114aa:	b7d1                	j	1146e <_vfprintf_r+0xf14>
   114ac:	010df793          	andi	a5,s11,16
   114b0:	eb8d                	bnez	a5,114e2 <_vfprintf_r+0xf88>
   114b2:	66c2                	ld	a3,16(sp)
   114b4:	040df793          	andi	a5,s11,64
   114b8:	0006a903          	lw	s2,0(a3)
   114bc:	36078763          	beqz	a5,1182a <_vfprintf_r+0x12d0>
   114c0:	1942                	slli	s2,s2,0x30
   114c2:	03095913          	srli	s2,s2,0x30
   114c6:	e83a                	sd	a4,16(sp)
   114c8:	4785                	li	a5,1
   114ca:	c4eff06f          	j	10918 <_vfprintf_r+0x3be>
   114ce:	0014f713          	andi	a4,s1,1
   114d2:	ae070d63          	beqz	a4,107cc <_vfprintf_r+0x272>
   114d6:	bc9d                	j	10f4c <_vfprintf_r+0x9f2>
   114d8:	67a2                	ld	a5,8(sp)
   114da:	8d22                	mv	s10,s0
   114dc:	e31c                	sd	a5,0(a4)
   114de:	b20ff06f          	j	107fe <_vfprintf_r+0x2a4>
   114e2:	67c2                	ld	a5,16(sp)
   114e4:	e83a                	sd	a4,16(sp)
   114e6:	0007b903          	ld	s2,0(a5)
   114ea:	4785                	li	a5,1
   114ec:	c2cff06f          	j	10918 <_vfprintf_r+0x3be>
   114f0:	67c2                	ld	a5,16(sp)
   114f2:	639c                	ld	a5,0(a5)
   114f4:	893e                	mv	s2,a5
   114f6:	bb8ff06f          	j	108ae <_vfprintf_r+0x354>
   114fa:	67c2                	ld	a5,16(sp)
   114fc:	0007b903          	ld	s2,0(a5)
   11500:	c0cff06f          	j	1090c <_vfprintf_r+0x3b2>
   11504:	67c2                	ld	a5,16(sp)
   11506:	07bd                	addi	a5,a5,15
   11508:	9bc1                	andi	a5,a5,-16
   1150a:	6398                	ld	a4,0(a5)
   1150c:	6794                	ld	a3,8(a5)
   1150e:	07c1                	addi	a5,a5,16
   11510:	e83e                	sd	a5,16(sp)
   11512:	e23a                	sd	a4,256(sp)
   11514:	e636                	sd	a3,264(sp)
   11516:	c72ff06f          	j	10988 <_vfprintf_r+0x42e>
   1151a:	e83a                	sd	a4,16(sp)
   1151c:	47a5                	li	a5,9
   1151e:	8da6                	mv	s11,s1
   11520:	cb27f6e3          	bgeu	a5,s2,111cc <_vfprintf_r+0xc72>
   11524:	400df713          	andi	a4,s11,1024
   11528:	18c10b93          	addi	s7,sp,396
   1152c:	2701                	sext.w	a4,a4
   1152e:	f002                	sd	zero,32(sp)
   11530:	865e                	mv	a2,s7
   11532:	44a9                	li	s1,10
   11534:	46a5                	li	a3,9
   11536:	0ff00893          	li	a7,255
   1153a:	a039                	j	11548 <_vfprintf_r+0xfee>
   1153c:	029957b3          	divu	a5,s2,s1
   11540:	9b26f9e3          	bgeu	a3,s2,10ef2 <_vfprintf_r+0x998>
   11544:	893e                	mv	s2,a5
   11546:	866a                	mv	a2,s10
   11548:	7582                	ld	a1,32(sp)
   1154a:	fff60d13          	addi	s10,a2,-1
   1154e:	2585                	addiw	a1,a1,1
   11550:	f02e                	sd	a1,32(sp)
   11552:	029977b3          	remu	a5,s2,s1
   11556:	0307879b          	addiw	a5,a5,48
   1155a:	fef60fa3          	sb	a5,-1(a2)
   1155e:	df79                	beqz	a4,1153c <_vfprintf_r+0xfe2>
   11560:	7786                	ld	a5,96(sp)
   11562:	0007c783          	lbu	a5,0(a5)
   11566:	fcf59be3          	bne	a1,a5,1153c <_vfprintf_r+0xfe2>
   1156a:	fd1789e3          	beq	a5,a7,1153c <_vfprintf_r+0xfe2>
   1156e:	9926f2e3          	bgeu	a3,s2,10ef2 <_vfprintf_r+0x998>
   11572:	678a                	ld	a5,128(sp)
   11574:	65aa                	ld	a1,136(sp)
   11576:	f83a                	sd	a4,48(sp)
   11578:	40fd0d33          	sub	s10,s10,a5
   1157c:	863e                	mv	a2,a5
   1157e:	856a                	mv	a0,s10
   11580:	ec1a                	sd	t1,24(sp)
   11582:	725040ef          	jal	ra,164a6 <strncpy>
   11586:	7706                	ld	a4,96(sp)
   11588:	029957b3          	divu	a5,s2,s1
   1158c:	6362                	ld	t1,24(sp)
   1158e:	00174603          	lbu	a2,1(a4)
   11592:	f002                	sd	zero,32(sp)
   11594:	46a5                	li	a3,9
   11596:	00c03633          	snez	a2,a2
   1159a:	9732                	add	a4,a4,a2
   1159c:	f0ba                	sd	a4,96(sp)
   1159e:	0ff00893          	li	a7,255
   115a2:	7742                	ld	a4,48(sp)
   115a4:	b745                	j	11544 <_vfprintf_r+0xfea>
   115a6:	00068b9b          	sext.w	s7,a3
   115aa:	d7704ee3          	bgtz	s7,11326 <_vfprintf_r+0xdcc>
   115ae:	bb61                	j	11346 <_vfprintf_r+0xdec>
   115b0:	0017061b          	addiw	a2,a4,1
   115b4:	010b8713          	addi	a4,s7,16
   115b8:	9c66                	add	s8,s8,s9
   115ba:	01bbb023          	sd	s11,0(s7)
   115be:	019bb423          	sd	s9,8(s7)
   115c2:	f262                	sd	s8,288(sp)
   115c4:	10c12c23          	sw	a2,280(sp)
   115c8:	469d                	li	a3,7
   115ca:	44c6d463          	bge	a3,a2,11a12 <_vfprintf_r+0x14b8>
   115ce:	0a10                	addi	a2,sp,272
   115d0:	85ce                	mv	a1,s3
   115d2:	8552                	mv	a0,s4
   115d4:	349060ef          	jal	ra,1811c <__sprint_r>
   115d8:	b00519e3          	bnez	a0,110ea <_vfprintf_r+0xb90>
   115dc:	11812603          	lw	a2,280(sp)
   115e0:	7c12                	ld	s8,288(sp)
   115e2:	1a010313          	addi	t1,sp,416
   115e6:	2605                	addiw	a2,a2,1
   115e8:	8bda                	mv	s7,s6
   115ea:	be5d                	j	111a0 <_vfprintf_r+0xc46>
   115ec:	8da6                	mv	s11,s1
   115ee:	821ff06f          	j	10e0e <_vfprintf_r+0x8b4>
   115f2:	67f1                	lui	a5,0x1c
   115f4:	12078793          	addi	a5,a5,288 # 1c120 <__clzdi2+0x12e>
   115f8:	f43e                	sd	a5,40(sp)
   115fa:	66c2                	ld	a3,16(sp)
   115fc:	0204f793          	andi	a5,s1,32
   11600:	00868713          	addi	a4,a3,8
   11604:	cbf1                	beqz	a5,116d8 <_vfprintf_r+0x117e>
   11606:	0006b903          	ld	s2,0(a3)
   1160a:	0014f793          	andi	a5,s1,1
   1160e:	cf81                	beqz	a5,11626 <_vfprintf_r+0x10cc>
   11610:	00090b63          	beqz	s2,11626 <_vfprintf_r+0x10cc>
   11614:	0024e493          	ori	s1,s1,2
   11618:	03000793          	li	a5,48
   1161c:	0ef10023          	sb	a5,224(sp)
   11620:	0f9100a3          	sb	s9,225(sp)
   11624:	2481                	sext.w	s1,s1
   11626:	bff4f493          	andi	s1,s1,-1025
   1162a:	00048d9b          	sext.w	s11,s1
   1162e:	e83a                	sd	a4,16(sp)
   11630:	4789                	li	a5,2
   11632:	ae6ff06f          	j	10918 <_vfprintf_r+0x3be>
   11636:	2004e493          	ori	s1,s1,512
   1163a:	00144e83          	lbu	t4,1(s0)
   1163e:	2481                	sext.w	s1,s1
   11640:	0405                	addi	s0,s0,1
   11642:	868ff06f          	j	106aa <_vfprintf_r+0x150>
   11646:	0204e493          	ori	s1,s1,32
   1164a:	00144e83          	lbu	t4,1(s0)
   1164e:	2481                	sext.w	s1,s1
   11650:	0405                	addi	s0,s0,1
   11652:	858ff06f          	j	106aa <_vfprintf_r+0x150>
   11656:	0a10                	addi	a2,sp,272
   11658:	85ce                	mv	a1,s3
   1165a:	8552                	mv	a0,s4
   1165c:	2c1060ef          	jal	ra,1811c <__sprint_r>
   11660:	a80515e3          	bnez	a0,110ea <_vfprintf_r+0xb90>
   11664:	7792                	ld	a5,288(sp)
   11666:	835a                	mv	t1,s6
   11668:	b229                	j	10f72 <_vfprintf_r+0xa18>
   1166a:	67f1                	lui	a5,0x1c
   1166c:	10878793          	addi	a5,a5,264 # 1c108 <__clzdi2+0x116>
   11670:	f43e                	sd	a5,40(sp)
   11672:	b761                	j	115fa <_vfprintf_r+0x10a0>
   11674:	4799                	li	a5,6
   11676:	000c0b9b          	sext.w	s7,s8
   1167a:	3d87eb63          	bltu	a5,s8,11a50 <_vfprintf_r+0x14f6>
   1167e:	6871                	lui	a6,0x1c
   11680:	895e                	mv	s2,s7
   11682:	e86e                	sd	s11,16(sp)
   11684:	13880d13          	addi	s10,a6,312 # 1c138 <__clzdi2+0x146>
   11688:	88aff06f          	j	10712 <_vfprintf_r+0x1b8>
   1168c:	68f1                	lui	a7,0x1c
   1168e:	46c1                	li	a3,16
   11690:	11812703          	lw	a4,280(sp)
   11694:	2c888d93          	addi	s11,a7,712 # 1c2c8 <zeroes.4521>
   11698:	4cc1                	li	s9,16
   1169a:	4c1d                	li	s8,7
   1169c:	0176c663          	blt	a3,s7,116a8 <_vfprintf_r+0x114e>
   116a0:	a2ed                	j	1188a <_vfprintf_r+0x1330>
   116a2:	3bc1                	addiw	s7,s7,-16
   116a4:	1f7cd363          	bge	s9,s7,1188a <_vfprintf_r+0x1330>
   116a8:	2705                	addiw	a4,a4,1
   116aa:	07c1                	addi	a5,a5,16
   116ac:	01b33023          	sd	s11,0(t1)
   116b0:	01933423          	sd	s9,8(t1)
   116b4:	f23e                	sd	a5,288(sp)
   116b6:	10e12c23          	sw	a4,280(sp)
   116ba:	0341                	addi	t1,t1,16
   116bc:	feec53e3          	bge	s8,a4,116a2 <_vfprintf_r+0x1148>
   116c0:	0a10                	addi	a2,sp,272
   116c2:	85ce                	mv	a1,s3
   116c4:	8552                	mv	a0,s4
   116c6:	257060ef          	jal	ra,1811c <__sprint_r>
   116ca:	a20510e3          	bnez	a0,110ea <_vfprintf_r+0xb90>
   116ce:	7792                	ld	a5,288(sp)
   116d0:	11812703          	lw	a4,280(sp)
   116d4:	835a                	mv	t1,s6
   116d6:	b7f1                	j	116a2 <_vfprintf_r+0x1148>
   116d8:	0104f793          	andi	a5,s1,16
   116dc:	c3c5                	beqz	a5,1177c <_vfprintf_r+0x1222>
   116de:	67c2                	ld	a5,16(sp)
   116e0:	0007b903          	ld	s2,0(a5)
   116e4:	b71d                	j	1160a <_vfprintf_r+0x10b0>
   116e6:	0a10                	addi	a2,sp,272
   116e8:	85ce                	mv	a1,s3
   116ea:	8552                	mv	a0,s4
   116ec:	231060ef          	jal	ra,1811c <__sprint_r>
   116f0:	9e051de3          	bnez	a0,110ea <_vfprintf_r+0xb90>
   116f4:	7c12                	ld	s8,288(sp)
   116f6:	11812703          	lw	a4,280(sp)
   116fa:	8bda                	mv	s7,s6
   116fc:	bc05                	j	1112c <_vfprintf_r+0xbd2>
   116fe:	0a10                	addi	a2,sp,272
   11700:	85ce                	mv	a1,s3
   11702:	8552                	mv	a0,s4
   11704:	219060ef          	jal	ra,1811c <__sprint_r>
   11708:	9e0511e3          	bnez	a0,110ea <_vfprintf_r+0xb90>
   1170c:	7c12                	ld	s8,288(sp)
   1170e:	11812703          	lw	a4,280(sp)
   11712:	8bda                	mv	s7,s6
   11714:	bc35                	j	11150 <_vfprintf_r+0xbf6>
   11716:	11812703          	lw	a4,280(sp)
   1171a:	66f1                	lui	a3,0x1c
   1171c:	14068693          	addi	a3,a3,320 # 1c140 <__clzdi2+0x14e>
   11720:	2705                	addiw	a4,a4,1
   11722:	00d33023          	sd	a3,0(t1)
   11726:	0785                	addi	a5,a5,1
   11728:	4685                	li	a3,1
   1172a:	00d33423          	sd	a3,8(t1)
   1172e:	10e12c23          	sw	a4,280(sp)
   11732:	0007069b          	sext.w	a3,a4
   11736:	f23e                	sd	a5,288(sp)
   11738:	471d                	li	a4,7
   1173a:	0341                	addi	t1,t1,16
   1173c:	2ed74163          	blt	a4,a3,11a1e <_vfprintf_r+0x14c4>
   11740:	c4061963          	bnez	a2,10b92 <_vfprintf_r+0x638>
   11744:	7682                	ld	a3,32(sp)
   11746:	0014f713          	andi	a4,s1,1
   1174a:	8f55                	or	a4,a4,a3
   1174c:	e319                	bnez	a4,11752 <_vfprintf_r+0x11f8>
   1174e:	87eff06f          	j	107cc <_vfprintf_r+0x272>
   11752:	7746                	ld	a4,112(sp)
   11754:	76a6                	ld	a3,104(sp)
   11756:	00e33023          	sd	a4,0(t1)
   1175a:	11812703          	lw	a4,280(sp)
   1175e:	97b6                	add	a5,a5,a3
   11760:	00d33423          	sd	a3,8(t1)
   11764:	2705                	addiw	a4,a4,1
   11766:	0007069b          	sext.w	a3,a4
   1176a:	10e12c23          	sw	a4,280(sp)
   1176e:	f23e                	sd	a5,288(sp)
   11770:	471d                	li	a4,7
   11772:	c4d74363          	blt	a4,a3,10bb8 <_vfprintf_r+0x65e>
   11776:	0341                	addi	t1,t1,16
   11778:	c60ff06f          	j	10bd8 <_vfprintf_r+0x67e>
   1177c:	66c2                	ld	a3,16(sp)
   1177e:	0404f793          	andi	a5,s1,64
   11782:	0006a903          	lw	s2,0(a3)
   11786:	c7f1                	beqz	a5,11852 <_vfprintf_r+0x12f8>
   11788:	1942                	slli	s2,s2,0x30
   1178a:	03095913          	srli	s2,s2,0x30
   1178e:	bdb5                	j	1160a <_vfprintf_r+0x10b0>
   11790:	0a10                	addi	a2,sp,272
   11792:	85ce                	mv	a1,s3
   11794:	8552                	mv	a0,s4
   11796:	187060ef          	jal	ra,1811c <__sprint_r>
   1179a:	940518e3          	bnez	a0,110ea <_vfprintf_r+0xb90>
   1179e:	7792                	ld	a5,288(sp)
   117a0:	835a                	mv	t1,s6
   117a2:	fa2ff06f          	j	10f44 <_vfprintf_r+0x9ea>
   117a6:	0017069b          	addiw	a3,a4,1
   117aa:	8736                	mv	a4,a3
   117ac:	97de                	add	a5,a5,s7
   117ae:	01b33023          	sd	s11,0(t1)
   117b2:	808ff06f          	j	107ba <_vfprintf_r+0x260>
   117b6:	6512                	ld	a0,256(sp)
   117b8:	65b2                	ld	a1,264(sp)
   117ba:	4601                	li	a2,0
   117bc:	4681                	li	a3,0
   117be:	57e090ef          	jal	ra,1ad3c <__letf2>
   117c2:	6362                	ld	t1,24(sp)
   117c4:	52054163          	bltz	a0,11ce6 <_vfprintf_r+0x178c>
   117c8:	0df14783          	lbu	a5,223(sp)
   117cc:	04700713          	li	a4,71
   117d0:	27975263          	bge	a4,s9,11a34 <_vfprintf_r+0x14da>
   117d4:	6871                	lui	a6,0x1c
   117d6:	0f080d13          	addi	s10,a6,240 # 1c0f0 <__clzdi2+0xfe>
   117da:	f7f4f493          	andi	s1,s1,-129
   117de:	ec02                	sd	zero,24(sp)
   117e0:	e482                	sd	zero,72(sp)
   117e2:	ec82                	sd	zero,88(sp)
   117e4:	e882                	sd	zero,80(sp)
   117e6:	2481                	sext.w	s1,s1
   117e8:	490d                	li	s2,3
   117ea:	4b8d                	li	s7,3
   117ec:	4c01                	li	s8,0
   117ee:	90079163          	bnez	a5,108f0 <_vfprintf_r+0x396>
   117f2:	f2bfe06f          	j	1071c <_vfprintf_r+0x1c2>
   117f6:	856a                	mv	a0,s10
   117f8:	f81a                	sd	t1,48(sp)
   117fa:	41d040ef          	jal	ra,16416 <strlen>
   117fe:	00050b9b          	sext.w	s7,a0
   11802:	fffbc913          	not	s2,s7
   11806:	0df14783          	lbu	a5,223(sp)
   1180a:	43f95913          	srai	s2,s2,0x3f
   1180e:	012bf933          	and	s2,s7,s2
   11812:	e86e                	sd	s11,16(sp)
   11814:	ec02                	sd	zero,24(sp)
   11816:	e482                	sd	zero,72(sp)
   11818:	ec82                	sd	zero,88(sp)
   1181a:	e882                	sd	zero,80(sp)
   1181c:	7342                	ld	t1,48(sp)
   1181e:	2901                	sext.w	s2,s2
   11820:	4c01                	li	s8,0
   11822:	8c079763          	bnez	a5,108f0 <_vfprintf_r+0x396>
   11826:	ef7fe06f          	j	1071c <_vfprintf_r+0x1c2>
   1182a:	200df793          	andi	a5,s11,512
   1182e:	26078163          	beqz	a5,11a90 <_vfprintf_r+0x1536>
   11832:	0ff97913          	andi	s2,s2,255
   11836:	e83a                	sd	a4,16(sp)
   11838:	4785                	li	a5,1
   1183a:	8deff06f          	j	10918 <_vfprintf_r+0x3be>
   1183e:	2004f793          	andi	a5,s1,512
   11842:	24078163          	beqz	a5,11a84 <_vfprintf_r+0x152a>
   11846:	67c2                	ld	a5,16(sp)
   11848:	00078903          	lb	s2,0(a5)
   1184c:	87ca                	mv	a5,s2
   1184e:	860ff06f          	j	108ae <_vfprintf_r+0x354>
   11852:	2004f793          	andi	a5,s1,512
   11856:	24078463          	beqz	a5,11a9e <_vfprintf_r+0x1544>
   1185a:	0ff97913          	andi	s2,s2,255
   1185e:	b375                	j	1160a <_vfprintf_r+0x10b0>
   11860:	2004f793          	andi	a5,s1,512
   11864:	20078b63          	beqz	a5,11a7a <_vfprintf_r+0x1520>
   11868:	0ff97913          	andi	s2,s2,255
   1186c:	8a0ff06f          	j	1090c <_vfprintf_r+0x3b2>
   11870:	67b2                	ld	a5,264(sp)
   11872:	2207ca63          	bltz	a5,11aa6 <_vfprintf_r+0x154c>
   11876:	0df14783          	lbu	a5,223(sp)
   1187a:	04700713          	li	a4,71
   1187e:	59975863          	bge	a4,s9,11e0e <_vfprintf_r+0x18b4>
   11882:	6871                	lui	a6,0x1c
   11884:	10080d13          	addi	s10,a6,256 # 1c100 <__clzdi2+0x10e>
   11888:	bf89                	j	117da <_vfprintf_r+0x1280>
   1188a:	0017069b          	addiw	a3,a4,1
   1188e:	97de                	add	a5,a5,s7
   11890:	01b33023          	sd	s11,0(t1)
   11894:	01733423          	sd	s7,8(t1)
   11898:	f23e                	sd	a5,288(sp)
   1189a:	10d12c23          	sw	a3,280(sp)
   1189e:	471d                	li	a4,7
   118a0:	0341                	addi	t1,t1,16
   118a2:	aad75ce3          	bge	a4,a3,1135a <_vfprintf_r+0xe00>
   118a6:	0a10                	addi	a2,sp,272
   118a8:	85ce                	mv	a1,s3
   118aa:	8552                	mv	a0,s4
   118ac:	071060ef          	jal	ra,1811c <__sprint_r>
   118b0:	82051de3          	bnez	a0,110ea <_vfprintf_r+0xb90>
   118b4:	7792                	ld	a5,288(sp)
   118b6:	835a                	mv	t1,s6
   118b8:	b44d                	j	1135a <_vfprintf_r+0xe00>
   118ba:	7702                	ld	a4,32(sp)
   118bc:	6ef1                	lui	t4,0x1c
   118be:	4b9d                	li	s7,7
   118c0:	976a                	add	a4,a4,s10
   118c2:	fc3a                	sd	a4,56(sp)
   118c4:	6766                	ld	a4,88(sp)
   118c6:	4dc1                	li	s11,16
   118c8:	2c8e8c93          	addi	s9,t4,712 # 1c2c8 <zeroes.4521>
   118cc:	cb51                	beqz	a4,11960 <_vfprintf_r+0x1406>
   118ce:	6726                	ld	a4,72(sp)
   118d0:	eb59                	bnez	a4,11966 <_vfprintf_r+0x140c>
   118d2:	7706                	ld	a4,96(sp)
   118d4:	177d                	addi	a4,a4,-1
   118d6:	f0ba                	sd	a4,96(sp)
   118d8:	6766                	ld	a4,88(sp)
   118da:	377d                	addiw	a4,a4,-1
   118dc:	ecba                	sd	a4,88(sp)
   118de:	672a                	ld	a4,136(sp)
   118e0:	668a                	ld	a3,128(sp)
   118e2:	0341                	addi	t1,t1,16
   118e4:	fee33823          	sd	a4,-16(t1)
   118e8:	11812703          	lw	a4,280(sp)
   118ec:	97b6                	add	a5,a5,a3
   118ee:	fed33c23          	sd	a3,-8(t1)
   118f2:	2705                	addiw	a4,a4,1
   118f4:	f23e                	sd	a5,288(sp)
   118f6:	0007069b          	sext.w	a3,a4
   118fa:	10e12c23          	sw	a4,280(sp)
   118fe:	0cdbcf63          	blt	s7,a3,119dc <_vfprintf_r+0x1482>
   11902:	7706                	ld	a4,96(sp)
   11904:	00074583          	lbu	a1,0(a4)
   11908:	7762                	ld	a4,56(sp)
   1190a:	0005869b          	sext.w	a3,a1
   1190e:	4187063b          	subw	a2,a4,s8
   11912:	0006871b          	sext.w	a4,a3
   11916:	00d65463          	bge	a2,a3,1191e <_vfprintf_r+0x13c4>
   1191a:	0006071b          	sext.w	a4,a2
   1191e:	02e05663          	blez	a4,1194a <_vfprintf_r+0x13f0>
   11922:	11812683          	lw	a3,280(sp)
   11926:	97ba                	add	a5,a5,a4
   11928:	01833023          	sd	s8,0(t1)
   1192c:	0016861b          	addiw	a2,a3,1
   11930:	00e33423          	sd	a4,8(t1)
   11934:	f23e                	sd	a5,288(sp)
   11936:	10c12c23          	sw	a2,280(sp)
   1193a:	0acbcb63          	blt	s7,a2,119f0 <_vfprintf_r+0x1496>
   1193e:	7686                	ld	a3,96(sp)
   11940:	0341                	addi	t1,t1,16
   11942:	0006c583          	lbu	a1,0(a3)
   11946:	0005869b          	sext.w	a3,a1
   1194a:	fff74613          	not	a2,a4
   1194e:	967d                	srai	a2,a2,0x3f
   11950:	8f71                	and	a4,a4,a2
   11952:	40e6873b          	subw	a4,a3,a4
   11956:	00e04c63          	bgtz	a4,1196e <_vfprintf_r+0x1414>
   1195a:	9c2e                	add	s8,s8,a1
   1195c:	6766                	ld	a4,88(sp)
   1195e:	fb25                	bnez	a4,118ce <_vfprintf_r+0x1374>
   11960:	6726                	ld	a4,72(sp)
   11962:	2c070363          	beqz	a4,11c28 <_vfprintf_r+0x16ce>
   11966:	6726                	ld	a4,72(sp)
   11968:	377d                	addiw	a4,a4,-1
   1196a:	e4ba                	sd	a4,72(sp)
   1196c:	bf8d                	j	118de <_vfprintf_r+0x1384>
   1196e:	11812683          	lw	a3,280(sp)
   11972:	00edc663          	blt	s11,a4,1197e <_vfprintf_r+0x1424>
   11976:	a081                	j	119b6 <_vfprintf_r+0x145c>
   11978:	3741                	addiw	a4,a4,-16
   1197a:	02edde63          	bge	s11,a4,119b6 <_vfprintf_r+0x145c>
   1197e:	2685                	addiw	a3,a3,1
   11980:	07c1                	addi	a5,a5,16
   11982:	01933023          	sd	s9,0(t1)
   11986:	01b33423          	sd	s11,8(t1)
   1198a:	f23e                	sd	a5,288(sp)
   1198c:	10d12c23          	sw	a3,280(sp)
   11990:	0341                	addi	t1,t1,16
   11992:	fedbd3e3          	bge	s7,a3,11978 <_vfprintf_r+0x141e>
   11996:	0a10                	addi	a2,sp,272
   11998:	85ce                	mv	a1,s3
   1199a:	8552                	mv	a0,s4
   1199c:	f83a                	sd	a4,48(sp)
   1199e:	77e060ef          	jal	ra,1811c <__sprint_r>
   119a2:	f4051463          	bnez	a0,110ea <_vfprintf_r+0xb90>
   119a6:	7742                	ld	a4,48(sp)
   119a8:	7792                	ld	a5,288(sp)
   119aa:	11812683          	lw	a3,280(sp)
   119ae:	3741                	addiw	a4,a4,-16
   119b0:	835a                	mv	t1,s6
   119b2:	fcedc6e3          	blt	s11,a4,1197e <_vfprintf_r+0x1424>
   119b6:	2685                	addiw	a3,a3,1
   119b8:	97ba                	add	a5,a5,a4
   119ba:	00e33423          	sd	a4,8(t1)
   119be:	01933023          	sd	s9,0(t1)
   119c2:	f23e                	sd	a5,288(sp)
   119c4:	0006871b          	sext.w	a4,a3
   119c8:	10d12c23          	sw	a3,280(sp)
   119cc:	2eebc363          	blt	s7,a4,11cb2 <_vfprintf_r+0x1758>
   119d0:	7706                	ld	a4,96(sp)
   119d2:	0341                	addi	t1,t1,16
   119d4:	00074583          	lbu	a1,0(a4)
   119d8:	9c2e                	add	s8,s8,a1
   119da:	b749                	j	1195c <_vfprintf_r+0x1402>
   119dc:	0a10                	addi	a2,sp,272
   119de:	85ce                	mv	a1,s3
   119e0:	8552                	mv	a0,s4
   119e2:	73a060ef          	jal	ra,1811c <__sprint_r>
   119e6:	f0051263          	bnez	a0,110ea <_vfprintf_r+0xb90>
   119ea:	7792                	ld	a5,288(sp)
   119ec:	835a                	mv	t1,s6
   119ee:	bf11                	j	11902 <_vfprintf_r+0x13a8>
   119f0:	0a10                	addi	a2,sp,272
   119f2:	85ce                	mv	a1,s3
   119f4:	8552                	mv	a0,s4
   119f6:	f83a                	sd	a4,48(sp)
   119f8:	724060ef          	jal	ra,1811c <__sprint_r>
   119fc:	ee051763          	bnez	a0,110ea <_vfprintf_r+0xb90>
   11a00:	7786                	ld	a5,96(sp)
   11a02:	7742                	ld	a4,48(sp)
   11a04:	835a                	mv	t1,s6
   11a06:	0007c583          	lbu	a1,0(a5)
   11a0a:	7792                	ld	a5,288(sp)
   11a0c:	0005869b          	sext.w	a3,a1
   11a10:	bf2d                	j	1194a <_vfprintf_r+0x13f0>
   11a12:	2605                	addiw	a2,a2,1
   11a14:	01070313          	addi	t1,a4,16
   11a18:	8bba                	mv	s7,a4
   11a1a:	f86ff06f          	j	111a0 <_vfprintf_r+0xc46>
   11a1e:	0a10                	addi	a2,sp,272
   11a20:	85ce                	mv	a1,s3
   11a22:	8552                	mv	a0,s4
   11a24:	6f8060ef          	jal	ra,1811c <__sprint_r>
   11a28:	ec051163          	bnez	a0,110ea <_vfprintf_r+0xb90>
   11a2c:	562e                	lw	a2,232(sp)
   11a2e:	7792                	ld	a5,288(sp)
   11a30:	835a                	mv	t1,s6
   11a32:	b339                	j	11740 <_vfprintf_r+0x11e6>
   11a34:	6871                	lui	a6,0x1c
   11a36:	0e880d13          	addi	s10,a6,232 # 1c0e8 <__clzdi2+0xf6>
   11a3a:	b345                	j	117da <_vfprintf_r+0x1280>
   11a3c:	0a10                	addi	a2,sp,272
   11a3e:	85ce                	mv	a1,s3
   11a40:	8552                	mv	a0,s4
   11a42:	6da060ef          	jal	ra,1811c <__sprint_r>
   11a46:	ea051263          	bnez	a0,110ea <_vfprintf_r+0xb90>
   11a4a:	7792                	ld	a5,288(sp)
   11a4c:	835a                	mv	t1,s6
   11a4e:	b8e5                	j	11346 <_vfprintf_r+0xdec>
   11a50:	4b99                	li	s7,6
   11a52:	b135                	j	1167e <_vfprintf_r+0x1124>
   11a54:	7682                	ld	a3,32(sp)
   11a56:	00dd0833          	add	a6,s10,a3
   11a5a:	40e6863b          	subw	a2,a3,a4
   11a5e:	41880f3b          	subw	t5,a6,s8
   11a62:	8bb2                	mv	s7,a2
   11a64:	96cf5be3          	bge	t5,a2,113da <_vfprintf_r+0xe80>
   11a68:	000f0b9b          	sext.w	s7,t5
   11a6c:	b2bd                	j	113da <_vfprintf_r+0xe80>
   11a6e:	67a2                	ld	a5,8(sp)
   11a70:	8d22                	mv	s10,s0
   11a72:	00f71023          	sh	a5,0(a4)
   11a76:	d89fe06f          	j	107fe <_vfprintf_r+0x2a4>
   11a7a:	1902                	slli	s2,s2,0x20
   11a7c:	02095913          	srli	s2,s2,0x20
   11a80:	e8dfe06f          	j	1090c <_vfprintf_r+0x3b2>
   11a84:	67c2                	ld	a5,16(sp)
   11a86:	0007a903          	lw	s2,0(a5)
   11a8a:	87ca                	mv	a5,s2
   11a8c:	e23fe06f          	j	108ae <_vfprintf_r+0x354>
   11a90:	1902                	slli	s2,s2,0x20
   11a92:	02095913          	srli	s2,s2,0x20
   11a96:	e83a                	sd	a4,16(sp)
   11a98:	4785                	li	a5,1
   11a9a:	e7ffe06f          	j	10918 <_vfprintf_r+0x3be>
   11a9e:	1902                	slli	s2,s2,0x20
   11aa0:	02095913          	srli	s2,s2,0x20
   11aa4:	b69d                	j	1160a <_vfprintf_r+0x10b0>
   11aa6:	02d00793          	li	a5,45
   11aaa:	0cf10fa3          	sb	a5,223(sp)
   11aae:	b3f1                	j	1187a <_vfprintf_r+0x1320>
   11ab0:	0a10                	addi	a2,sp,272
   11ab2:	85ce                	mv	a1,s3
   11ab4:	8552                	mv	a0,s4
   11ab6:	666060ef          	jal	ra,1811c <__sprint_r>
   11aba:	d55fe06f          	j	1080e <_vfprintf_r+0x2b4>
   11abe:	03000793          	li	a5,48
   11ac2:	0ef10023          	sb	a5,224(sp)
   11ac6:	05800713          	li	a4,88
   11aca:	0024e793          	ori	a5,s1,2
   11ace:	2781                	sext.w	a5,a5
   11ad0:	0ee100a3          	sb	a4,225(sp)
   11ad4:	f53e                	sd	a5,168(sp)
   11ad6:	06300713          	li	a4,99
   11ada:	ec02                	sd	zero,24(sp)
   11adc:	12810d13          	addi	s10,sp,296
   11ae0:	39874563          	blt	a4,s8,11e6a <_vfprintf_r+0x1910>
   11ae4:	6bb2                	ld	s7,264(sp)
   11ae6:	fdfcf713          	andi	a4,s9,-33
   11aea:	1024e493          	ori	s1,s1,258
   11aee:	ecba                	sd	a4,88(sp)
   11af0:	e582                	sd	zero,200(sp)
   11af2:	6d92                	ld	s11,256(sp)
   11af4:	2481                	sext.w	s1,s1
   11af6:	1a0bc663          	bltz	s7,11ca2 <_vfprintf_r+0x1748>
   11afa:	06100793          	li	a5,97
   11afe:	4efc8763          	beq	s9,a5,11fec <_vfprintf_r+0x1a92>
   11b02:	04100793          	li	a5,65
   11b06:	00fc8463          	beq	s9,a5,11b0e <_vfprintf_r+0x15b4>
   11b0a:	ee5fe06f          	j	109ee <_vfprintf_r+0x494>
   11b0e:	85de                	mv	a1,s7
   11b10:	856e                	mv	a0,s11
   11b12:	fc1a                	sd	t1,56(sp)
   11b14:	2ae0a0ef          	jal	ra,1bdc2 <__trunctfdf2>
   11b18:	11a8                	addi	a0,sp,232
   11b1a:	594040ef          	jal	ra,160ae <frexp>
   11b1e:	1e40a0ef          	jal	ra,1bd02 <__extenddftf2>
   11b22:	00fff7b7          	lui	a5,0xfff
   11b26:	02679693          	slli	a3,a5,0x26
   11b2a:	4601                	li	a2,0
   11b2c:	2b8090ef          	jal	ra,1ade4 <__multf3>
   11b30:	4601                	li	a2,0
   11b32:	4681                	li	a3,0
   11b34:	f82a                	sd	a0,48(sp)
   11b36:	f02e                	sd	a1,32(sp)
   11b38:	0c8090ef          	jal	ra,1ac00 <__eqtf2>
   11b3c:	7f82                	ld	t6,32(sp)
   11b3e:	7f42                	ld	t5,48(sp)
   11b40:	7362                	ld	t1,56(sp)
   11b42:	e119                	bnez	a0,11b48 <_vfprintf_r+0x15ee>
   11b44:	4785                	li	a5,1
   11b46:	d5be                	sw	a5,232(sp)
   11b48:	6bf1                	lui	s7,0x1c
   11b4a:	108b8793          	addi	a5,s7,264 # 1c108 <__clzdi2+0x116>
   11b4e:	e4be                	sd	a5,72(sp)
   11b50:	020c1793          	slli	a5,s8,0x20
   11b54:	9381                	srli	a5,a5,0x20
   11b56:	0785                	addi	a5,a5,1
   11b58:	97ea                	add	a5,a5,s10
   11b5a:	f93e                	sd	a5,176(sp)
   11b5c:	018d07bb          	addw	a5,s10,s8
   11b60:	8dea                	mv	s11,s10
   11b62:	c3be                	sw	a5,196(sp)
   11b64:	a819                	j	11b7a <_vfprintf_r+0x1620>
   11b66:	4601                	li	a2,0
   11b68:	4681                	li	a3,0
   11b6a:	e0aa                	sd	a0,64(sp)
   11b6c:	094090ef          	jal	ra,1ac00 <__eqtf2>
   11b70:	7342                	ld	t1,48(sp)
   11b72:	6886                	ld	a7,64(sp)
   11b74:	7f82                	ld	t6,32(sp)
   11b76:	7f62                	ld	t5,56(sp)
   11b78:	cd31                	beqz	a0,11bd4 <_vfprintf_r+0x167a>
   11b7a:	66ca                	ld	a3,144(sp)
   11b7c:	4601                	li	a2,0
   11b7e:	857a                	mv	a0,t5
   11b80:	85fe                	mv	a1,t6
   11b82:	f81a                	sd	t1,48(sp)
   11b84:	260090ef          	jal	ra,1ade4 <__multf3>
   11b88:	8bae                	mv	s7,a1
   11b8a:	f02a                	sd	a0,32(sp)
   11b8c:	0840a0ef          	jal	ra,1bc10 <__fixtfsi>
   11b90:	0005091b          	sext.w	s2,a0
   11b94:	854a                	mv	a0,s2
   11b96:	1120a0ef          	jal	ra,1bca8 <__floatsitf>
   11b9a:	7782                	ld	a5,32(sp)
   11b9c:	86ae                	mv	a3,a1
   11b9e:	862a                	mv	a2,a0
   11ba0:	85de                	mv	a1,s7
   11ba2:	853e                	mv	a0,a5
   11ba4:	055090ef          	jal	ra,1b3f8 <__subtf3>
   11ba8:	67a6                	ld	a5,72(sp)
   11baa:	fd6e                	sd	s11,184(sp)
   11bac:	0d85                	addi	s11,s11,1
   11bae:	97ca                	add	a5,a5,s2
   11bb0:	0007c683          	lbu	a3,0(a5) # fff000 <__BSS_END__+0xfe0010>
   11bb4:	479e                	lw	a5,196(sp)
   11bb6:	fc2a                	sd	a0,56(sp)
   11bb8:	fedd8fa3          	sb	a3,-1(s11)
   11bbc:	41b787bb          	subw	a5,a5,s11
   11bc0:	e8be                	sd	a5,80(sp)
   11bc2:	77ca                	ld	a5,176(sp)
   11bc4:	f02e                	sd	a1,32(sp)
   11bc6:	7342                	ld	t1,48(sp)
   11bc8:	88aa                	mv	a7,a0
   11bca:	8bae                	mv	s7,a1
   11bcc:	f9b79de3          	bne	a5,s11,11b66 <_vfprintf_r+0x160c>
   11bd0:	57fd                	li	a5,-1
   11bd2:	e8be                	sd	a5,80(sp)
   11bd4:	66ea                	ld	a3,152(sp)
   11bd6:	4601                	li	a2,0
   11bd8:	8546                	mv	a0,a7
   11bda:	85de                	mv	a1,s7
   11bdc:	f01a                	sd	t1,32(sp)
   11bde:	f846                	sd	a7,48(sp)
   11be0:	0b4090ef          	jal	ra,1ac94 <__getf2>
   11be4:	7302                	ld	t1,32(sp)
   11be6:	2ca04763          	bgtz	a0,11eb4 <_vfprintf_r+0x195a>
   11bea:	78c2                	ld	a7,48(sp)
   11bec:	66ea                	ld	a3,152(sp)
   11bee:	4601                	li	a2,0
   11bf0:	8546                	mv	a0,a7
   11bf2:	85de                	mv	a1,s7
   11bf4:	00c090ef          	jal	ra,1ac00 <__eqtf2>
   11bf8:	7302                	ld	t1,32(sp)
   11bfa:	e509                	bnez	a0,11c04 <_vfprintf_r+0x16aa>
   11bfc:	00197913          	andi	s2,s2,1
   11c00:	2a091a63          	bnez	s2,11eb4 <_vfprintf_r+0x195a>
   11c04:	6746                	ld	a4,80(sp)
   11c06:	03000693          	li	a3,48
   11c0a:	00170793          	addi	a5,a4,1
   11c0e:	97ee                	add	a5,a5,s11
   11c10:	00074763          	bltz	a4,11c1e <_vfprintf_r+0x16c4>
   11c14:	0d85                	addi	s11,s11,1
   11c16:	fedd8fa3          	sb	a3,-1(s11)
   11c1a:	ffb79de3          	bne	a5,s11,11c14 <_vfprintf_r+0x16ba>
   11c1e:	41ad87bb          	subw	a5,s11,s10
   11c22:	f03e                	sd	a5,32(sp)
   11c24:	e3ffe06f          	j	10a62 <_vfprintf_r+0x508>
   11c28:	7702                	ld	a4,32(sp)
   11c2a:	976a                	add	a4,a4,s10
   11c2c:	f3877e63          	bgeu	a4,s8,11368 <_vfprintf_r+0xe0e>
   11c30:	8c3a                	mv	s8,a4
   11c32:	f36ff06f          	j	11368 <_vfprintf_r+0xe0e>
   11c36:	6746                	ld	a4,80(sp)
   11c38:	57f5                	li	a5,-3
   11c3a:	00f74463          	blt	a4,a5,11c42 <_vfprintf_r+0x16e8>
   11c3e:	00ec5863          	bge	s8,a4,11c4e <_vfprintf_r+0x16f4>
   11c42:	3cf9                	addiw	s9,s9,-2
   11c44:	fdfcf793          	andi	a5,s9,-33
   11c48:	ecbe                	sd	a5,88(sp)
   11c4a:	e39fe06f          	j	10a82 <_vfprintf_r+0x528>
   11c4e:	7782                	ld	a5,32(sp)
   11c50:	6746                	ld	a4,80(sp)
   11c52:	16f74b63          	blt	a4,a5,11dc8 <_vfprintf_r+0x186e>
   11c56:	77aa                	ld	a5,168(sp)
   11c58:	8bba                	mv	s7,a4
   11c5a:	8b85                	andi	a5,a5,1
   11c5c:	c781                	beqz	a5,11c64 <_vfprintf_r+0x170a>
   11c5e:	77a6                	ld	a5,104(sp)
   11c60:	00e78bbb          	addw	s7,a5,a4
   11c64:	77aa                	ld	a5,168(sp)
   11c66:	4007f793          	andi	a5,a5,1024
   11c6a:	c781                	beqz	a5,11c72 <_vfprintf_r+0x1718>
   11c6c:	67c6                	ld	a5,80(sp)
   11c6e:	30f04363          	bgtz	a5,11f74 <_vfprintf_r+0x1a1a>
   11c72:	fffbc913          	not	s2,s7
   11c76:	43f95913          	srai	s2,s2,0x3f
   11c7a:	012bf933          	and	s2,s7,s2
   11c7e:	2901                	sext.w	s2,s2
   11c80:	06700c93          	li	s9,103
   11c84:	e482                	sd	zero,72(sp)
   11c86:	ec82                	sd	zero,88(sp)
   11c88:	eddfe06f          	j	10b64 <_vfprintf_r+0x60a>
   11c8c:	0df14783          	lbu	a5,223(sp)
   11c90:	4c01                	li	s8,0
   11c92:	c399                	beqz	a5,11c98 <_vfprintf_r+0x173e>
   11c94:	c5dfe06f          	j	108f0 <_vfprintf_r+0x396>
   11c98:	a85fe06f          	j	1071c <_vfprintf_r+0x1c2>
   11c9c:	f526                	sd	s1,168(sp)
   11c9e:	ec02                	sd	zero,24(sp)
   11ca0:	84ca                	mv	s1,s2
   11ca2:	57fd                	li	a5,-1
   11ca4:	17fe                	slli	a5,a5,0x3f
   11ca6:	00fbcbb3          	xor	s7,s7,a5
   11caa:	02d00793          	li	a5,45
   11cae:	e5be                	sd	a5,200(sp)
   11cb0:	b5a9                	j	11afa <_vfprintf_r+0x15a0>
   11cb2:	0a10                	addi	a2,sp,272
   11cb4:	85ce                	mv	a1,s3
   11cb6:	8552                	mv	a0,s4
   11cb8:	464060ef          	jal	ra,1811c <__sprint_r>
   11cbc:	c2051763          	bnez	a0,110ea <_vfprintf_r+0xb90>
   11cc0:	7786                	ld	a5,96(sp)
   11cc2:	835a                	mv	t1,s6
   11cc4:	0007c583          	lbu	a1,0(a5)
   11cc8:	7792                	ld	a5,288(sp)
   11cca:	9c2e                	add	s8,s8,a1
   11ccc:	b941                	j	1195c <_vfprintf_r+0x1402>
   11cce:	0a10                	addi	a2,sp,272
   11cd0:	85ce                	mv	a1,s3
   11cd2:	8552                	mv	a0,s4
   11cd4:	448060ef          	jal	ra,1811c <__sprint_r>
   11cd8:	c0051963          	bnez	a0,110ea <_vfprintf_r+0xb90>
   11cdc:	572e                	lw	a4,232(sp)
   11cde:	7792                	ld	a5,288(sp)
   11ce0:	835a                	mv	t1,s6
   11ce2:	ebcff06f          	j	1139e <_vfprintf_r+0xe44>
   11ce6:	02d00793          	li	a5,45
   11cea:	0cf10fa3          	sb	a5,223(sp)
   11cee:	bcf9                	j	117cc <_vfprintf_r+0x1272>
   11cf0:	11bc                	addi	a5,sp,232
   11cf2:	8762                	mv	a4,s8
   11cf4:	0f810893          	addi	a7,sp,248
   11cf8:	0ec10813          	addi	a6,sp,236
   11cfc:	4689                	li	a3,2
   11cfe:	85ee                	mv	a1,s11
   11d00:	865e                	mv	a2,s7
   11d02:	8552                	mv	a0,s4
   11d04:	0ea020ef          	jal	ra,13dee <_ldtoa_r>
   11d08:	6766                	ld	a4,88(sp)
   11d0a:	04700793          	li	a5,71
   11d0e:	7302                	ld	t1,32(sp)
   11d10:	8d2a                	mv	s10,a0
   11d12:	02f71b63          	bne	a4,a5,11d48 <_vfprintf_r+0x17ee>
   11d16:	77aa                	ld	a5,168(sp)
   11d18:	8b85                	andi	a5,a5,1
   11d1a:	1e079b63          	bnez	a5,11f10 <_vfprintf_r+0x19b6>
   11d1e:	04700793          	li	a5,71
   11d22:	76ee                	ld	a3,248(sp)
   11d24:	ecbe                	sd	a5,88(sp)
   11d26:	d37fe06f          	j	10a5c <_vfprintf_r+0x502>
   11d2a:	0f810893          	addi	a7,sp,248
   11d2e:	0ec10813          	addi	a6,sp,236
   11d32:	11bc                	addi	a5,sp,232
   11d34:	8762                	mv	a4,s8
   11d36:	468d                	li	a3,3
   11d38:	85ee                	mv	a1,s11
   11d3a:	865e                	mv	a2,s7
   11d3c:	8552                	mv	a0,s4
   11d3e:	f01a                	sd	t1,32(sp)
   11d40:	0ae020ef          	jal	ra,13dee <_ldtoa_r>
   11d44:	7302                	ld	t1,32(sp)
   11d46:	8d2a                	mv	s10,a0
   11d48:	6766                	ld	a4,88(sp)
   11d4a:	04600793          	li	a5,70
   11d4e:	018d0933          	add	s2,s10,s8
   11d52:	00f70463          	beq	a4,a5,11d5a <_vfprintf_r+0x1800>
   11d56:	cd9fe06f          	j	10a2e <_vfprintf_r+0x4d4>
   11d5a:	000d4703          	lbu	a4,0(s10)
   11d5e:	03000793          	li	a5,48
   11d62:	00f70663          	beq	a4,a5,11d6e <_vfprintf_r+0x1814>
   11d66:	572e                	lw	a4,232(sp)
   11d68:	993a                	add	s2,s2,a4
   11d6a:	cc5fe06f          	j	10a2e <_vfprintf_r+0x4d4>
   11d6e:	4601                	li	a2,0
   11d70:	4681                	li	a3,0
   11d72:	856e                	mv	a0,s11
   11d74:	85de                	mv	a1,s7
   11d76:	f01a                	sd	t1,32(sp)
   11d78:	689080ef          	jal	ra,1ac00 <__eqtf2>
   11d7c:	7302                	ld	t1,32(sp)
   11d7e:	d565                	beqz	a0,11d66 <_vfprintf_r+0x180c>
   11d80:	4785                	li	a5,1
   11d82:	4187873b          	subw	a4,a5,s8
   11d86:	d5ba                	sw	a4,232(sp)
   11d88:	993a                	add	s2,s2,a4
   11d8a:	ca5fe06f          	j	10a2e <_vfprintf_r+0x4d4>
   11d8e:	0df14783          	lbu	a5,223(sp)
   11d92:	e86e                	sd	s11,16(sp)
   11d94:	e482                	sd	zero,72(sp)
   11d96:	ec82                	sd	zero,88(sp)
   11d98:	e882                	sd	zero,80(sp)
   11d9a:	8962                	mv	s2,s8
   11d9c:	8be2                	mv	s7,s8
   11d9e:	4c01                	li	s8,0
   11da0:	c399                	beqz	a5,11da6 <_vfprintf_r+0x184c>
   11da2:	b4ffe06f          	j	108f0 <_vfprintf_r+0x396>
   11da6:	977fe06f          	j	1071c <_vfprintf_r+0x1c2>
   11daa:	0a10                	addi	a2,sp,272
   11dac:	85ce                	mv	a1,s3
   11dae:	8552                	mv	a0,s4
   11db0:	36c060ef          	jal	ra,1811c <__sprint_r>
   11db4:	b2051b63          	bnez	a0,110ea <_vfprintf_r+0xb90>
   11db8:	562e                	lw	a2,232(sp)
   11dba:	7702                	ld	a4,32(sp)
   11dbc:	7792                	ld	a5,288(sp)
   11dbe:	835a                	mv	t1,s6
   11dc0:	40c7063b          	subw	a2,a4,a2
   11dc4:	e16ff06f          	j	113da <_vfprintf_r+0xe80>
   11dc8:	7702                	ld	a4,32(sp)
   11dca:	77a6                	ld	a5,104(sp)
   11dcc:	06700c93          	li	s9,103
   11dd0:	00e78bbb          	addw	s7,a5,a4
   11dd4:	6746                	ld	a4,80(sp)
   11dd6:	28e05e63          	blez	a4,12072 <_vfprintf_r+0x1b18>
   11dda:	77aa                	ld	a5,168(sp)
   11ddc:	4007f793          	andi	a5,a5,1024
   11de0:	18079c63          	bnez	a5,11f78 <_vfprintf_r+0x1a1e>
   11de4:	fffbc913          	not	s2,s7
   11de8:	43f95913          	srai	s2,s2,0x3f
   11dec:	012bf933          	and	s2,s7,s2
   11df0:	2901                	sext.w	s2,s2
   11df2:	bd49                	j	11c84 <_vfprintf_r+0x172a>
   11df4:	77aa                	ld	a5,168(sp)
   11df6:	6746                	ld	a4,80(sp)
   11df8:	8b85                	andi	a5,a5,1
   11dfa:	00fc67b3          	or	a5,s8,a5
   11dfe:	28e05863          	blez	a4,1208e <_vfprintf_r+0x1b34>
   11e02:	24079963          	bnez	a5,12054 <_vfprintf_r+0x1afa>
   11e06:	6bc6                	ld	s7,80(sp)
   11e08:	06600c93          	li	s9,102
   11e0c:	b7f9                	j	11dda <_vfprintf_r+0x1880>
   11e0e:	6871                	lui	a6,0x1c
   11e10:	0f880d13          	addi	s10,a6,248 # 1c0f8 <__clzdi2+0x106>
   11e14:	b2d9                	j	117da <_vfprintf_r+0x1280>
   11e16:	68f1                	lui	a7,0x1c
   11e18:	5741                	li	a4,-16
   11e1a:	40c00c3b          	negw	s8,a2
   11e1e:	2c888d93          	addi	s11,a7,712 # 1c2c8 <zeroes.4521>
   11e22:	4bc1                	li	s7,16
   11e24:	4c9d                	li	s9,7
   11e26:	00e64663          	blt	a2,a4,11e32 <_vfprintf_r+0x18d8>
   11e2a:	a8a1                	j	11e82 <_vfprintf_r+0x1928>
   11e2c:	3c41                	addiw	s8,s8,-16
   11e2e:	058bda63          	bge	s7,s8,11e82 <_vfprintf_r+0x1928>
   11e32:	2685                	addiw	a3,a3,1
   11e34:	07c1                	addi	a5,a5,16
   11e36:	01b33023          	sd	s11,0(t1)
   11e3a:	01733423          	sd	s7,8(t1)
   11e3e:	f23e                	sd	a5,288(sp)
   11e40:	10d12c23          	sw	a3,280(sp)
   11e44:	0341                	addi	t1,t1,16
   11e46:	fedcd3e3          	bge	s9,a3,11e2c <_vfprintf_r+0x18d2>
   11e4a:	0a10                	addi	a2,sp,272
   11e4c:	85ce                	mv	a1,s3
   11e4e:	8552                	mv	a0,s4
   11e50:	2cc060ef          	jal	ra,1811c <__sprint_r>
   11e54:	a8051b63          	bnez	a0,110ea <_vfprintf_r+0xb90>
   11e58:	7792                	ld	a5,288(sp)
   11e5a:	11812683          	lw	a3,280(sp)
   11e5e:	835a                	mv	t1,s6
   11e60:	b7f1                	j	11e2c <_vfprintf_r+0x18d2>
   11e62:	57fd                	li	a5,-1
   11e64:	e43e                	sd	a5,8(sp)
   11e66:	9b7fe06f          	j	1081c <_vfprintf_r+0x2c2>
   11e6a:	001c059b          	addiw	a1,s8,1
   11e6e:	8552                	mv	a0,s4
   11e70:	ec1a                	sd	t1,24(sp)
   11e72:	799020ef          	jal	ra,14e0a <_malloc_r>
   11e76:	6362                	ld	t1,24(sp)
   11e78:	8d2a                	mv	s10,a0
   11e7a:	26050663          	beqz	a0,120e6 <_vfprintf_r+0x1b8c>
   11e7e:	ec2a                	sd	a0,24(sp)
   11e80:	b195                	j	11ae4 <_vfprintf_r+0x158a>
   11e82:	2685                	addiw	a3,a3,1
   11e84:	97e2                	add	a5,a5,s8
   11e86:	01b33023          	sd	s11,0(t1)
   11e8a:	01833423          	sd	s8,8(t1)
   11e8e:	f23e                	sd	a5,288(sp)
   11e90:	10d12c23          	sw	a3,280(sp)
   11e94:	471d                	li	a4,7
   11e96:	8ed750e3          	bge	a4,a3,11776 <_vfprintf_r+0x121c>
   11e9a:	0a10                	addi	a2,sp,272
   11e9c:	85ce                	mv	a1,s3
   11e9e:	8552                	mv	a0,s4
   11ea0:	27c060ef          	jal	ra,1811c <__sprint_r>
   11ea4:	a4051363          	bnez	a0,110ea <_vfprintf_r+0xb90>
   11ea8:	7792                	ld	a5,288(sp)
   11eaa:	11812683          	lw	a3,280(sp)
   11eae:	835a                	mv	t1,s6
   11eb0:	d29fe06f          	j	10bd8 <_vfprintf_r+0x67e>
   11eb4:	77ea                	ld	a5,184(sp)
   11eb6:	fdbe                	sd	a5,248(sp)
   11eb8:	67a6                	ld	a5,72(sp)
   11eba:	fffdc683          	lbu	a3,-1(s11)
   11ebe:	00f7c603          	lbu	a2,15(a5)
   11ec2:	87ee                	mv	a5,s11
   11ec4:	00d61e63          	bne	a2,a3,11ee0 <_vfprintf_r+0x1986>
   11ec8:	03000593          	li	a1,48
   11ecc:	feb78fa3          	sb	a1,-1(a5)
   11ed0:	77ee                	ld	a5,248(sp)
   11ed2:	fff78693          	addi	a3,a5,-1
   11ed6:	fdb6                	sd	a3,248(sp)
   11ed8:	fff7c683          	lbu	a3,-1(a5)
   11edc:	fed608e3          	beq	a2,a3,11ecc <_vfprintf_r+0x1972>
   11ee0:	0016861b          	addiw	a2,a3,1
   11ee4:	03900593          	li	a1,57
   11ee8:	0ff67613          	andi	a2,a2,255
   11eec:	00b68563          	beq	a3,a1,11ef6 <_vfprintf_r+0x199c>
   11ef0:	fec78fa3          	sb	a2,-1(a5)
   11ef4:	b32d                	j	11c1e <_vfprintf_r+0x16c4>
   11ef6:	6726                	ld	a4,72(sp)
   11ef8:	00a74603          	lbu	a2,10(a4)
   11efc:	fec78fa3          	sb	a2,-1(a5)
   11f00:	bb39                	j	11c1e <_vfprintf_r+0x16c4>
   11f02:	03000793          	li	a5,48
   11f06:	0ef10023          	sb	a5,224(sp)
   11f0a:	07800713          	li	a4,120
   11f0e:	be75                	j	11aca <_vfprintf_r+0x1570>
   11f10:	04700793          	li	a5,71
   11f14:	018d0933          	add	s2,s10,s8
   11f18:	ecbe                	sd	a5,88(sp)
   11f1a:	b15fe06f          	j	10a2e <_vfprintf_r+0x4d4>
   11f1e:	8da6                	mv	s11,s1
   11f20:	aacff06f          	j	111cc <_vfprintf_r+0xc72>
   11f24:	4c19                	li	s8,6
   11f26:	aaffe06f          	j	109d4 <_vfprintf_r+0x47a>
   11f2a:	c31c                	sw	a5,0(a4)
   11f2c:	8d22                	mv	s10,s0
   11f2e:	8d1fe06f          	j	107fe <_vfprintf_r+0x2a4>
   11f32:	000c1363          	bnez	s8,11f38 <_vfprintf_r+0x19de>
   11f36:	4c05                	li	s8,1
   11f38:	6bb2                	ld	s7,264(sp)
   11f3a:	1004e913          	ori	s2,s1,256
   11f3e:	6d92                	ld	s11,256(sp)
   11f40:	2901                	sext.w	s2,s2
   11f42:	d40bcde3          	bltz	s7,11c9c <_vfprintf_r+0x1742>
   11f46:	0f810893          	addi	a7,sp,248
   11f4a:	0ec10813          	addi	a6,sp,236
   11f4e:	11bc                	addi	a5,sp,232
   11f50:	8762                	mv	a4,s8
   11f52:	4689                	li	a3,2
   11f54:	85ee                	mv	a1,s11
   11f56:	865e                	mv	a2,s7
   11f58:	8552                	mv	a0,s4
   11f5a:	f01a                	sd	t1,32(sp)
   11f5c:	693010ef          	jal	ra,13dee <_ldtoa_r>
   11f60:	7302                	ld	t1,32(sp)
   11f62:	f526                	sd	s1,168(sp)
   11f64:	8d2a                	mv	s10,a0
   11f66:	84ca                	mv	s1,s2
   11f68:	ec02                	sd	zero,24(sp)
   11f6a:	e582                	sd	zero,200(sp)
   11f6c:	b36d                	j	11d16 <_vfprintf_r+0x17bc>
   11f6e:	ec02                	sd	zero,24(sp)
   11f70:	84be                	mv	s1,a5
   11f72:	bb05                	j	11ca2 <_vfprintf_r+0x1748>
   11f74:	06700c93          	li	s9,103
   11f78:	7786                	ld	a5,96(sp)
   11f7a:	0ff00713          	li	a4,255
   11f7e:	e482                	sd	zero,72(sp)
   11f80:	0007c783          	lbu	a5,0(a5)
   11f84:	ec82                	sd	zero,88(sp)
   11f86:	02e78863          	beq	a5,a4,11fb6 <_vfprintf_r+0x1a5c>
   11f8a:	0ff00693          	li	a3,255
   11f8e:	6646                	ld	a2,80(sp)
   11f90:	0007871b          	sext.w	a4,a5
   11f94:	02c7d163          	bge	a5,a2,11fb6 <_vfprintf_r+0x1a5c>
   11f98:	7586                	ld	a1,96(sp)
   11f9a:	40e6073b          	subw	a4,a2,a4
   11f9e:	e8ba                	sd	a4,80(sp)
   11fa0:	0015c783          	lbu	a5,1(a1)
   11fa4:	cf8d                	beqz	a5,11fde <_vfprintf_r+0x1a84>
   11fa6:	6766                	ld	a4,88(sp)
   11fa8:	2705                	addiw	a4,a4,1
   11faa:	ecba                	sd	a4,88(sp)
   11fac:	00158713          	addi	a4,a1,1
   11fb0:	f0ba                	sd	a4,96(sp)
   11fb2:	fcd79ee3          	bne	a5,a3,11f8e <_vfprintf_r+0x1a34>
   11fb6:	6766                	ld	a4,88(sp)
   11fb8:	67a6                	ld	a5,72(sp)
   11fba:	9fb9                	addw	a5,a5,a4
   11fbc:	670a                	ld	a4,128(sp)
   11fbe:	02e787bb          	mulw	a5,a5,a4
   11fc2:	017787bb          	addw	a5,a5,s7
   11fc6:	00078b9b          	sext.w	s7,a5
   11fca:	fffbc913          	not	s2,s7
   11fce:	43f95913          	srai	s2,s2,0x3f
   11fd2:	0127f7b3          	and	a5,a5,s2
   11fd6:	0007891b          	sext.w	s2,a5
   11fda:	b8bfe06f          	j	10b64 <_vfprintf_r+0x60a>
   11fde:	6726                	ld	a4,72(sp)
   11fe0:	7786                	ld	a5,96(sp)
   11fe2:	2705                	addiw	a4,a4,1
   11fe4:	0007c783          	lbu	a5,0(a5)
   11fe8:	e4ba                	sd	a4,72(sp)
   11fea:	b7e1                	j	11fb2 <_vfprintf_r+0x1a58>
   11fec:	85de                	mv	a1,s7
   11fee:	856e                	mv	a0,s11
   11ff0:	fc1a                	sd	t1,56(sp)
   11ff2:	5d1090ef          	jal	ra,1bdc2 <__trunctfdf2>
   11ff6:	11a8                	addi	a0,sp,232
   11ff8:	0b6040ef          	jal	ra,160ae <frexp>
   11ffc:	507090ef          	jal	ra,1bd02 <__extenddftf2>
   12000:	768a                	ld	a3,160(sp)
   12002:	4601                	li	a2,0
   12004:	5e1080ef          	jal	ra,1ade4 <__multf3>
   12008:	4601                	li	a2,0
   1200a:	4681                	li	a3,0
   1200c:	f82a                	sd	a0,48(sp)
   1200e:	f02e                	sd	a1,32(sp)
   12010:	3f1080ef          	jal	ra,1ac00 <__eqtf2>
   12014:	7f82                	ld	t6,32(sp)
   12016:	7f42                	ld	t5,48(sp)
   12018:	7362                	ld	t1,56(sp)
   1201a:	e119                	bnez	a0,12020 <_vfprintf_r+0x1ac6>
   1201c:	4785                	li	a5,1
   1201e:	d5be                	sw	a5,232(sp)
   12020:	6bf1                	lui	s7,0x1c
   12022:	120b8793          	addi	a5,s7,288 # 1c120 <__clzdi2+0x12e>
   12026:	e4be                	sd	a5,72(sp)
   12028:	b625                	j	11b50 <_vfprintf_r+0x15f6>
   1202a:	0f210713          	addi	a4,sp,242
   1202e:	e699                	bnez	a3,1203c <_vfprintf_r+0x1ae2>
   12030:	03000713          	li	a4,48
   12034:	0ee10923          	sb	a4,242(sp)
   12038:	0f310713          	addi	a4,sp,243
   1203c:	0c14                	addi	a3,sp,528
   1203e:	0307879b          	addiw	a5,a5,48
   12042:	40d706b3          	sub	a3,a4,a3
   12046:	00f70023          	sb	a5,0(a4)
   1204a:	1216879b          	addiw	a5,a3,289
   1204e:	fcbe                	sd	a5,120(sp)
   12050:	adbfe06f          	j	10b2a <_vfprintf_r+0x5d0>
   12054:	77a6                	ld	a5,104(sp)
   12056:	06600c93          	li	s9,102
   1205a:	00e78bbb          	addw	s7,a5,a4
   1205e:	018b8bbb          	addw	s7,s7,s8
   12062:	bba5                	j	11dda <_vfprintf_r+0x1880>
   12064:	772a                	ld	a4,168(sp)
   12066:	8b05                	andi	a4,a4,1
   12068:	e319                	bnez	a4,1206e <_vfprintf_r+0x1b14>
   1206a:	adbfe06f          	j	10b44 <_vfprintf_r+0x5ea>
   1206e:	ad1fe06f          	j	10b3e <_vfprintf_r+0x5e4>
   12072:	40eb87bb          	subw	a5,s7,a4
   12076:	2785                	addiw	a5,a5,1
   12078:	00078b9b          	sext.w	s7,a5
   1207c:	fffbc913          	not	s2,s7
   12080:	43f95913          	srai	s2,s2,0x3f
   12084:	0127f7b3          	and	a5,a5,s2
   12088:	0007891b          	sext.w	s2,a5
   1208c:	bee5                	j	11c84 <_vfprintf_r+0x172a>
   1208e:	e791                	bnez	a5,1209a <_vfprintf_r+0x1b40>
   12090:	4905                	li	s2,1
   12092:	06600c93          	li	s9,102
   12096:	4b85                	li	s7,1
   12098:	b6f5                	j	11c84 <_vfprintf_r+0x172a>
   1209a:	77a6                	ld	a5,104(sp)
   1209c:	06600c93          	li	s9,102
   120a0:	2785                	addiw	a5,a5,1
   120a2:	01878e3b          	addw	t3,a5,s8
   120a6:	000e0b9b          	sext.w	s7,t3
   120aa:	fffbc913          	not	s2,s7
   120ae:	43f95913          	srai	s2,s2,0x3f
   120b2:	012e7e33          	and	t3,t3,s2
   120b6:	000e091b          	sext.w	s2,t3
   120ba:	b6e9                	j	11c84 <_vfprintf_r+0x172a>
   120bc:	68f1                	lui	a7,0x1c
   120be:	871a                	mv	a4,t1
   120c0:	2c888d93          	addi	s11,a7,712 # 1c2c8 <zeroes.4521>
   120c4:	cf4ff06f          	j	115b8 <_vfprintf_r+0x105e>
   120c8:	66c2                	ld	a3,16(sp)
   120ca:	4298                	lw	a4,0(a3)
   120cc:	06a1                	addi	a3,a3,8
   120ce:	8e3a                	mv	t3,a4
   120d0:	00075363          	bgez	a4,120d6 <_vfprintf_r+0x1b7c>
   120d4:	5e7d                	li	t3,-1
   120d6:	00144e83          	lbu	t4,1(s0)
   120da:	000e0c1b          	sext.w	s8,t3
   120de:	e836                	sd	a3,16(sp)
   120e0:	843e                	mv	s0,a5
   120e2:	dc8fe06f          	j	106aa <_vfprintf_r+0x150>
   120e6:	0109d783          	lhu	a5,16(s3)
   120ea:	0407e793          	ori	a5,a5,64
   120ee:	00f99823          	sh	a5,16(s3)
   120f2:	f1cfe06f          	j	1080e <_vfprintf_r+0x2b4>
   120f6:	4789                	li	a5,2
   120f8:	fcbe                	sd	a5,120(sp)
   120fa:	a31fe06f          	j	10b2a <_vfprintf_r+0x5d0>

00000000000120fe <vfprintf>:
   120fe:	87aa                	mv	a5,a0
   12100:	7581b503          	ld	a0,1880(gp) # 1ef48 <_impure_ptr>
   12104:	86b2                	mv	a3,a2
   12106:	862e                	mv	a2,a1
   12108:	85be                	mv	a1,a5
   1210a:	c50fe06f          	j	1055a <_vfprintf_r>

000000000001210e <__sbprintf>:
   1210e:	0105d783          	lhu	a5,16(a1)
   12112:	0ac5ae03          	lw	t3,172(a1)
   12116:	0125d303          	lhu	t1,18(a1)
   1211a:	0305b883          	ld	a7,48(a1)
   1211e:	0405b803          	ld	a6,64(a1)
   12122:	b3010113          	addi	sp,sp,-1232
   12126:	9bf5                	andi	a5,a5,-3
   12128:	40000713          	li	a4,1024
   1212c:	4c813023          	sd	s0,1216(sp)
   12130:	00f11823          	sh	a5,16(sp)
   12134:	842e                	mv	s0,a1
   12136:	191c                	addi	a5,sp,176
   12138:	858a                	mv	a1,sp
   1213a:	4a913c23          	sd	s1,1208(sp)
   1213e:	4b213823          	sd	s2,1200(sp)
   12142:	4c113423          	sd	ra,1224(sp)
   12146:	892a                	mv	s2,a0
   12148:	d772                	sw	t3,172(sp)
   1214a:	00611923          	sh	t1,18(sp)
   1214e:	f846                	sd	a7,48(sp)
   12150:	e0c2                	sd	a6,64(sp)
   12152:	e03e                	sd	a5,0(sp)
   12154:	ec3e                	sd	a5,24(sp)
   12156:	c63a                	sw	a4,12(sp)
   12158:	d03a                	sw	a4,32(sp)
   1215a:	d402                	sw	zero,40(sp)
   1215c:	bfefe0ef          	jal	ra,1055a <_vfprintf_r>
   12160:	84aa                	mv	s1,a0
   12162:	02055963          	bgez	a0,12194 <__sbprintf+0x86>
   12166:	01015783          	lhu	a5,16(sp)
   1216a:	0407f793          	andi	a5,a5,64
   1216e:	c799                	beqz	a5,1217c <__sbprintf+0x6e>
   12170:	01045783          	lhu	a5,16(s0)
   12174:	0407e793          	ori	a5,a5,64
   12178:	00f41823          	sh	a5,16(s0)
   1217c:	4c813083          	ld	ra,1224(sp)
   12180:	4c013403          	ld	s0,1216(sp)
   12184:	4b013903          	ld	s2,1200(sp)
   12188:	8526                	mv	a0,s1
   1218a:	4b813483          	ld	s1,1208(sp)
   1218e:	4d010113          	addi	sp,sp,1232
   12192:	8082                	ret
   12194:	858a                	mv	a1,sp
   12196:	854a                	mv	a0,s2
   12198:	354000ef          	jal	ra,124ec <_fflush_r>
   1219c:	d569                	beqz	a0,12166 <__sbprintf+0x58>
   1219e:	54fd                	li	s1,-1
   121a0:	b7d9                	j	12166 <__sbprintf+0x58>

00000000000121a2 <__swsetup_r>:
   121a2:	7581b783          	ld	a5,1880(gp) # 1ef48 <_impure_ptr>
   121a6:	1101                	addi	sp,sp,-32
   121a8:	e822                	sd	s0,16(sp)
   121aa:	e426                	sd	s1,8(sp)
   121ac:	ec06                	sd	ra,24(sp)
   121ae:	84aa                	mv	s1,a0
   121b0:	842e                	mv	s0,a1
   121b2:	c399                	beqz	a5,121b8 <__swsetup_r+0x16>
   121b4:	4bb8                	lw	a4,80(a5)
   121b6:	cf49                	beqz	a4,12250 <__swsetup_r+0xae>
   121b8:	01041703          	lh	a4,16(s0)
   121bc:	03071793          	slli	a5,a4,0x30
   121c0:	00877693          	andi	a3,a4,8
   121c4:	93c1                	srli	a5,a5,0x30
   121c6:	c29d                	beqz	a3,121ec <__swsetup_r+0x4a>
   121c8:	6c14                	ld	a3,24(s0)
   121ca:	ce9d                	beqz	a3,12208 <__swsetup_r+0x66>
   121cc:	0017f613          	andi	a2,a5,1
   121d0:	ce39                	beqz	a2,1222e <__swsetup_r+0x8c>
   121d2:	5010                	lw	a2,32(s0)
   121d4:	00042623          	sw	zero,12(s0)
   121d8:	4501                	li	a0,0
   121da:	40c0063b          	negw	a2,a2
   121de:	d410                	sw	a2,40(s0)
   121e0:	ceb9                	beqz	a3,1223e <__swsetup_r+0x9c>
   121e2:	60e2                	ld	ra,24(sp)
   121e4:	6442                	ld	s0,16(sp)
   121e6:	64a2                	ld	s1,8(sp)
   121e8:	6105                	addi	sp,sp,32
   121ea:	8082                	ret
   121ec:	0107f693          	andi	a3,a5,16
   121f0:	cac1                	beqz	a3,12280 <__swsetup_r+0xde>
   121f2:	8b91                	andi	a5,a5,4
   121f4:	e3b5                	bnez	a5,12258 <__swsetup_r+0xb6>
   121f6:	6c14                	ld	a3,24(s0)
   121f8:	00876713          	ori	a4,a4,8
   121fc:	03071793          	slli	a5,a4,0x30
   12200:	00e41823          	sh	a4,16(s0)
   12204:	93c1                	srli	a5,a5,0x30
   12206:	f2f9                	bnez	a3,121cc <__swsetup_r+0x2a>
   12208:	2807f613          	andi	a2,a5,640
   1220c:	20000593          	li	a1,512
   12210:	fab60ee3          	beq	a2,a1,121cc <__swsetup_r+0x2a>
   12214:	85a2                	mv	a1,s0
   12216:	8526                	mv	a0,s1
   12218:	339020ef          	jal	ra,14d50 <__smakebuf_r>
   1221c:	01041703          	lh	a4,16(s0)
   12220:	6c14                	ld	a3,24(s0)
   12222:	03071793          	slli	a5,a4,0x30
   12226:	93c1                	srli	a5,a5,0x30
   12228:	0017f613          	andi	a2,a5,1
   1222c:	f25d                	bnez	a2,121d2 <__swsetup_r+0x30>
   1222e:	0027f613          	andi	a2,a5,2
   12232:	4581                	li	a1,0
   12234:	e211                	bnez	a2,12238 <__swsetup_r+0x96>
   12236:	500c                	lw	a1,32(s0)
   12238:	c44c                	sw	a1,12(s0)
   1223a:	4501                	li	a0,0
   1223c:	f2dd                	bnez	a3,121e2 <__swsetup_r+0x40>
   1223e:	0807f793          	andi	a5,a5,128
   12242:	d3c5                	beqz	a5,121e2 <__swsetup_r+0x40>
   12244:	04076713          	ori	a4,a4,64
   12248:	00e41823          	sh	a4,16(s0)
   1224c:	557d                	li	a0,-1
   1224e:	bf51                	j	121e2 <__swsetup_r+0x40>
   12250:	853e                	mv	a0,a5
   12252:	51c000ef          	jal	ra,1276e <__sinit>
   12256:	b78d                	j	121b8 <__swsetup_r+0x16>
   12258:	6c2c                	ld	a1,88(s0)
   1225a:	cd81                	beqz	a1,12272 <__swsetup_r+0xd0>
   1225c:	07440793          	addi	a5,s0,116
   12260:	00f58763          	beq	a1,a5,1226e <__swsetup_r+0xcc>
   12264:	8526                	mv	a0,s1
   12266:	634000ef          	jal	ra,1289a <_free_r>
   1226a:	01041703          	lh	a4,16(s0)
   1226e:	04043c23          	sd	zero,88(s0)
   12272:	6c14                	ld	a3,24(s0)
   12274:	fdb77713          	andi	a4,a4,-37
   12278:	00042423          	sw	zero,8(s0)
   1227c:	e014                	sd	a3,0(s0)
   1227e:	bfad                	j	121f8 <__swsetup_r+0x56>
   12280:	47a5                	li	a5,9
   12282:	c09c                	sw	a5,0(s1)
   12284:	04076713          	ori	a4,a4,64
   12288:	00e41823          	sh	a4,16(s0)
   1228c:	557d                	li	a0,-1
   1228e:	bf91                	j	121e2 <__swsetup_r+0x40>

0000000000012290 <__call_exitprocs>:
   12290:	715d                	addi	sp,sp,-80
   12292:	f052                	sd	s4,32(sp)
   12294:	7481ba03          	ld	s4,1864(gp) # 1ef38 <_global_impure_ptr>
   12298:	f84a                	sd	s2,48(sp)
   1229a:	e486                	sd	ra,72(sp)
   1229c:	1f8a3903          	ld	s2,504(s4)
   122a0:	e0a2                	sd	s0,64(sp)
   122a2:	fc26                	sd	s1,56(sp)
   122a4:	f44e                	sd	s3,40(sp)
   122a6:	ec56                	sd	s5,24(sp)
   122a8:	e85a                	sd	s6,16(sp)
   122aa:	e45e                	sd	s7,8(sp)
   122ac:	e062                	sd	s8,0(sp)
   122ae:	02090863          	beqz	s2,122de <__call_exitprocs+0x4e>
   122b2:	8b2a                	mv	s6,a0
   122b4:	8bae                	mv	s7,a1
   122b6:	4a85                	li	s5,1
   122b8:	59fd                	li	s3,-1
   122ba:	00892483          	lw	s1,8(s2)
   122be:	fff4841b          	addiw	s0,s1,-1
   122c2:	00044e63          	bltz	s0,122de <__call_exitprocs+0x4e>
   122c6:	048e                	slli	s1,s1,0x3
   122c8:	94ca                	add	s1,s1,s2
   122ca:	020b8663          	beqz	s7,122f6 <__call_exitprocs+0x66>
   122ce:	2084b783          	ld	a5,520(s1)
   122d2:	03778263          	beq	a5,s7,122f6 <__call_exitprocs+0x66>
   122d6:	347d                	addiw	s0,s0,-1
   122d8:	14e1                	addi	s1,s1,-8
   122da:	ff3418e3          	bne	s0,s3,122ca <__call_exitprocs+0x3a>
   122de:	60a6                	ld	ra,72(sp)
   122e0:	6406                	ld	s0,64(sp)
   122e2:	74e2                	ld	s1,56(sp)
   122e4:	7942                	ld	s2,48(sp)
   122e6:	79a2                	ld	s3,40(sp)
   122e8:	7a02                	ld	s4,32(sp)
   122ea:	6ae2                	ld	s5,24(sp)
   122ec:	6b42                	ld	s6,16(sp)
   122ee:	6ba2                	ld	s7,8(sp)
   122f0:	6c02                	ld	s8,0(sp)
   122f2:	6161                	addi	sp,sp,80
   122f4:	8082                	ret
   122f6:	00892783          	lw	a5,8(s2)
   122fa:	6498                	ld	a4,8(s1)
   122fc:	37fd                	addiw	a5,a5,-1
   122fe:	04878463          	beq	a5,s0,12346 <__call_exitprocs+0xb6>
   12302:	0004b423          	sd	zero,8(s1)
   12306:	db61                	beqz	a4,122d6 <__call_exitprocs+0x46>
   12308:	31092783          	lw	a5,784(s2)
   1230c:	008a96bb          	sllw	a3,s5,s0
   12310:	00892c03          	lw	s8,8(s2)
   12314:	8ff5                	and	a5,a5,a3
   12316:	2781                	sext.w	a5,a5
   12318:	ef89                	bnez	a5,12332 <__call_exitprocs+0xa2>
   1231a:	9702                	jalr	a4
   1231c:	00892703          	lw	a4,8(s2)
   12320:	1f8a3783          	ld	a5,504(s4)
   12324:	01871463          	bne	a4,s8,1232c <__call_exitprocs+0x9c>
   12328:	faf907e3          	beq	s2,a5,122d6 <__call_exitprocs+0x46>
   1232c:	dbcd                	beqz	a5,122de <__call_exitprocs+0x4e>
   1232e:	893e                	mv	s2,a5
   12330:	b769                	j	122ba <__call_exitprocs+0x2a>
   12332:	31492783          	lw	a5,788(s2)
   12336:	1084b583          	ld	a1,264(s1)
   1233a:	8ff5                	and	a5,a5,a3
   1233c:	2781                	sext.w	a5,a5
   1233e:	e799                	bnez	a5,1234c <__call_exitprocs+0xbc>
   12340:	855a                	mv	a0,s6
   12342:	9702                	jalr	a4
   12344:	bfe1                	j	1231c <__call_exitprocs+0x8c>
   12346:	00892423          	sw	s0,8(s2)
   1234a:	bf75                	j	12306 <__call_exitprocs+0x76>
   1234c:	852e                	mv	a0,a1
   1234e:	9702                	jalr	a4
   12350:	b7f1                	j	1231c <__call_exitprocs+0x8c>

0000000000012352 <__sflush_r>:
   12352:	01059783          	lh	a5,16(a1)
   12356:	7179                	addi	sp,sp,-48
   12358:	f022                	sd	s0,32(sp)
   1235a:	e44e                	sd	s3,8(sp)
   1235c:	f406                	sd	ra,40(sp)
   1235e:	ec26                	sd	s1,24(sp)
   12360:	e84a                	sd	s2,16(sp)
   12362:	0087f693          	andi	a3,a5,8
   12366:	842e                	mv	s0,a1
   12368:	89aa                	mv	s3,a0
   1236a:	eecd                	bnez	a3,12424 <__sflush_r+0xd2>
   1236c:	6705                	lui	a4,0x1
   1236e:	80070713          	addi	a4,a4,-2048 # 800 <register_fini-0xf8e8>
   12372:	4594                	lw	a3,8(a1)
   12374:	8fd9                	or	a5,a5,a4
   12376:	00f59823          	sh	a5,16(a1)
   1237a:	10d05363          	blez	a3,12480 <__sflush_r+0x12e>
   1237e:	6438                	ld	a4,72(s0)
   12380:	cb51                	beqz	a4,12414 <__sflush_r+0xc2>
   12382:	0009a483          	lw	s1,0(s3)
   12386:	03079693          	slli	a3,a5,0x30
   1238a:	0009a023          	sw	zero,0(s3)
   1238e:	03379613          	slli	a2,a5,0x33
   12392:	780c                	ld	a1,48(s0)
   12394:	92c1                	srli	a3,a3,0x30
   12396:	0e064963          	bltz	a2,12488 <__sflush_r+0x136>
   1239a:	4601                	li	a2,0
   1239c:	4685                	li	a3,1
   1239e:	854e                	mv	a0,s3
   123a0:	9702                	jalr	a4
   123a2:	57fd                	li	a5,-1
   123a4:	862a                	mv	a2,a0
   123a6:	10f50963          	beq	a0,a5,124b8 <__sflush_r+0x166>
   123aa:	01045683          	lhu	a3,16(s0)
   123ae:	6438                	ld	a4,72(s0)
   123b0:	780c                	ld	a1,48(s0)
   123b2:	8a91                	andi	a3,a3,4
   123b4:	c699                	beqz	a3,123c2 <__sflush_r+0x70>
   123b6:	4414                	lw	a3,8(s0)
   123b8:	6c3c                	ld	a5,88(s0)
   123ba:	8e15                	sub	a2,a2,a3
   123bc:	c399                	beqz	a5,123c2 <__sflush_r+0x70>
   123be:	583c                	lw	a5,112(s0)
   123c0:	8e1d                	sub	a2,a2,a5
   123c2:	4681                	li	a3,0
   123c4:	854e                	mv	a0,s3
   123c6:	9702                	jalr	a4
   123c8:	57fd                	li	a5,-1
   123ca:	0cf51163          	bne	a0,a5,1248c <__sflush_r+0x13a>
   123ce:	0009a703          	lw	a4,0(s3)
   123d2:	01041783          	lh	a5,16(s0)
   123d6:	0e070f63          	beqz	a4,124d4 <__sflush_r+0x182>
   123da:	46f5                	li	a3,29
   123dc:	00d70563          	beq	a4,a3,123e6 <__sflush_r+0x94>
   123e0:	46d9                	li	a3,22
   123e2:	0ed71f63          	bne	a4,a3,124e0 <__sflush_r+0x18e>
   123e6:	6c14                	ld	a3,24(s0)
   123e8:	777d                	lui	a4,0xfffff
   123ea:	7ff70713          	addi	a4,a4,2047 # fffffffffffff7ff <__BSS_END__+0xfffffffffffe080f>
   123ee:	8ff9                	and	a5,a5,a4
   123f0:	00f41823          	sh	a5,16(s0)
   123f4:	00042423          	sw	zero,8(s0)
   123f8:	e014                	sd	a3,0(s0)
   123fa:	6c2c                	ld	a1,88(s0)
   123fc:	0099a023          	sw	s1,0(s3)
   12400:	c991                	beqz	a1,12414 <__sflush_r+0xc2>
   12402:	07440793          	addi	a5,s0,116
   12406:	00f58563          	beq	a1,a5,12410 <__sflush_r+0xbe>
   1240a:	854e                	mv	a0,s3
   1240c:	48e000ef          	jal	ra,1289a <_free_r>
   12410:	04043c23          	sd	zero,88(s0)
   12414:	4501                	li	a0,0
   12416:	70a2                	ld	ra,40(sp)
   12418:	7402                	ld	s0,32(sp)
   1241a:	64e2                	ld	s1,24(sp)
   1241c:	6942                	ld	s2,16(sp)
   1241e:	69a2                	ld	s3,8(sp)
   12420:	6145                	addi	sp,sp,48
   12422:	8082                	ret
   12424:	0185b903          	ld	s2,24(a1)
   12428:	fe0906e3          	beqz	s2,12414 <__sflush_r+0xc2>
   1242c:	6184                	ld	s1,0(a1)
   1242e:	03079713          	slli	a4,a5,0x30
   12432:	9341                	srli	a4,a4,0x30
   12434:	8b0d                	andi	a4,a4,3
   12436:	0125b023          	sd	s2,0(a1)
   1243a:	412484bb          	subw	s1,s1,s2
   1243e:	4781                	li	a5,0
   12440:	e311                	bnez	a4,12444 <__sflush_r+0xf2>
   12442:	519c                	lw	a5,32(a1)
   12444:	c45c                	sw	a5,12(s0)
   12446:	00904663          	bgtz	s1,12452 <__sflush_r+0x100>
   1244a:	b7e9                	j	12414 <__sflush_r+0xc2>
   1244c:	992a                	add	s2,s2,a0
   1244e:	fc9053e3          	blez	s1,12414 <__sflush_r+0xc2>
   12452:	603c                	ld	a5,64(s0)
   12454:	780c                	ld	a1,48(s0)
   12456:	86a6                	mv	a3,s1
   12458:	864a                	mv	a2,s2
   1245a:	854e                	mv	a0,s3
   1245c:	9782                	jalr	a5
   1245e:	9c89                	subw	s1,s1,a0
   12460:	fea046e3          	bgtz	a0,1244c <__sflush_r+0xfa>
   12464:	01045783          	lhu	a5,16(s0)
   12468:	70a2                	ld	ra,40(sp)
   1246a:	64e2                	ld	s1,24(sp)
   1246c:	0407e793          	ori	a5,a5,64
   12470:	00f41823          	sh	a5,16(s0)
   12474:	7402                	ld	s0,32(sp)
   12476:	6942                	ld	s2,16(sp)
   12478:	69a2                	ld	s3,8(sp)
   1247a:	557d                	li	a0,-1
   1247c:	6145                	addi	sp,sp,48
   1247e:	8082                	ret
   12480:	59b8                	lw	a4,112(a1)
   12482:	eee04ee3          	bgtz	a4,1237e <__sflush_r+0x2c>
   12486:	b779                	j	12414 <__sflush_r+0xc2>
   12488:	6850                	ld	a2,144(s0)
   1248a:	b725                	j	123b2 <__sflush_r+0x60>
   1248c:	01045783          	lhu	a5,16(s0)
   12490:	777d                	lui	a4,0xfffff
   12492:	7ff70713          	addi	a4,a4,2047 # fffffffffffff7ff <__BSS_END__+0xfffffffffffe080f>
   12496:	8ff9                	and	a5,a5,a4
   12498:	6c14                	ld	a3,24(s0)
   1249a:	0107979b          	slliw	a5,a5,0x10
   1249e:	4107d79b          	sraiw	a5,a5,0x10
   124a2:	00f41823          	sh	a5,16(s0)
   124a6:	00042423          	sw	zero,8(s0)
   124aa:	e014                	sd	a3,0(s0)
   124ac:	03379713          	slli	a4,a5,0x33
   124b0:	f40755e3          	bgez	a4,123fa <__sflush_r+0xa8>
   124b4:	e848                	sd	a0,144(s0)
   124b6:	b791                	j	123fa <__sflush_r+0xa8>
   124b8:	0009a783          	lw	a5,0(s3)
   124bc:	ee0787e3          	beqz	a5,123aa <__sflush_r+0x58>
   124c0:	4775                	li	a4,29
   124c2:	00e78563          	beq	a5,a4,124cc <__sflush_r+0x17a>
   124c6:	4759                	li	a4,22
   124c8:	f8e79ee3          	bne	a5,a4,12464 <__sflush_r+0x112>
   124cc:	0099a023          	sw	s1,0(s3)
   124d0:	4501                	li	a0,0
   124d2:	b791                	j	12416 <__sflush_r+0xc4>
   124d4:	777d                	lui	a4,0xfffff
   124d6:	7ff70713          	addi	a4,a4,2047 # fffffffffffff7ff <__BSS_END__+0xfffffffffffe080f>
   124da:	6c14                	ld	a3,24(s0)
   124dc:	8ff9                	and	a5,a5,a4
   124de:	b7d1                	j	124a2 <__sflush_r+0x150>
   124e0:	0407e793          	ori	a5,a5,64
   124e4:	00f41823          	sh	a5,16(s0)
   124e8:	557d                	li	a0,-1
   124ea:	b735                	j	12416 <__sflush_r+0xc4>

00000000000124ec <_fflush_r>:
   124ec:	1101                	addi	sp,sp,-32
   124ee:	e822                	sd	s0,16(sp)
   124f0:	ec06                	sd	ra,24(sp)
   124f2:	842a                	mv	s0,a0
   124f4:	c119                	beqz	a0,124fa <_fflush_r+0xe>
   124f6:	493c                	lw	a5,80(a0)
   124f8:	cb89                	beqz	a5,1250a <_fflush_r+0x1e>
   124fa:	01059783          	lh	a5,16(a1)
   124fe:	ef89                	bnez	a5,12518 <_fflush_r+0x2c>
   12500:	60e2                	ld	ra,24(sp)
   12502:	6442                	ld	s0,16(sp)
   12504:	4501                	li	a0,0
   12506:	6105                	addi	sp,sp,32
   12508:	8082                	ret
   1250a:	e42e                	sd	a1,8(sp)
   1250c:	262000ef          	jal	ra,1276e <__sinit>
   12510:	65a2                	ld	a1,8(sp)
   12512:	01059783          	lh	a5,16(a1)
   12516:	d7ed                	beqz	a5,12500 <_fflush_r+0x14>
   12518:	8522                	mv	a0,s0
   1251a:	6442                	ld	s0,16(sp)
   1251c:	60e2                	ld	ra,24(sp)
   1251e:	6105                	addi	sp,sp,32
   12520:	bd0d                	j	12352 <__sflush_r>

0000000000012522 <fflush>:
   12522:	85aa                	mv	a1,a0
   12524:	c501                	beqz	a0,1252c <fflush+0xa>
   12526:	7581b503          	ld	a0,1880(gp) # 1ef48 <_impure_ptr>
   1252a:	b7c9                	j	124ec <_fflush_r>
   1252c:	7481b503          	ld	a0,1864(gp) # 1ef38 <_global_impure_ptr>
   12530:	65c9                	lui	a1,0x12
   12532:	4ec58593          	addi	a1,a1,1260 # 124ec <_fflush_r>
   12536:	ad0d                	j	12b68 <_fwalk_reent>

0000000000012538 <__fp_lock>:
   12538:	4501                	li	a0,0
   1253a:	8082                	ret

000000000001253c <_cleanup_r>:
   1253c:	65e5                	lui	a1,0x19
   1253e:	f2458593          	addi	a1,a1,-220 # 18f24 <_fclose_r>
   12542:	a51d                	j	12b68 <_fwalk_reent>

0000000000012544 <__sinit.part.0>:
   12544:	7139                	addi	sp,sp,-64
   12546:	67c9                	lui	a5,0x12
   12548:	fc06                	sd	ra,56(sp)
   1254a:	f822                	sd	s0,48(sp)
   1254c:	f426                	sd	s1,40(sp)
   1254e:	f04a                	sd	s2,32(sp)
   12550:	ec4e                	sd	s3,24(sp)
   12552:	e852                	sd	s4,16(sp)
   12554:	e456                	sd	s5,8(sp)
   12556:	e05a                	sd	s6,0(sp)
   12558:	6500                	ld	s0,8(a0)
   1255a:	53c78793          	addi	a5,a5,1340 # 1253c <_cleanup_r>
   1255e:	ed3c                	sd	a5,88(a0)
   12560:	53850713          	addi	a4,a0,1336
   12564:	478d                	li	a5,3
   12566:	52e53823          	sd	a4,1328(a0)
   1256a:	52f52423          	sw	a5,1320(a0)
   1256e:	52053023          	sd	zero,1312(a0)
   12572:	4791                	li	a5,4
   12574:	892a                	mv	s2,a0
   12576:	c81c                	sw	a5,16(s0)
   12578:	4621                	li	a2,8
   1257a:	4581                	li	a1,0
   1257c:	0a042623          	sw	zero,172(s0)
   12580:	00043023          	sd	zero,0(s0)
   12584:	00043423          	sd	zero,8(s0)
   12588:	00043c23          	sd	zero,24(s0)
   1258c:	02042023          	sw	zero,32(s0)
   12590:	02042423          	sw	zero,40(s0)
   12594:	0a440513          	addi	a0,s0,164
   12598:	ecbfd0ef          	jal	ra,10462 <memset>
   1259c:	6b59                	lui	s6,0x16
   1259e:	01093483          	ld	s1,16(s2)
   125a2:	6ad9                	lui	s5,0x16
   125a4:	6a59                	lui	s4,0x16
   125a6:	69d9                	lui	s3,0x16
   125a8:	1b6b0b13          	addi	s6,s6,438 # 161b6 <__sread>
   125ac:	1f2a8a93          	addi	s5,s5,498 # 161f2 <__swrite>
   125b0:	246a0a13          	addi	s4,s4,582 # 16246 <__sseek>
   125b4:	28898993          	addi	s3,s3,648 # 16288 <__sclose>
   125b8:	67c1                	lui	a5,0x10
   125ba:	03643c23          	sd	s6,56(s0)
   125be:	05543023          	sd	s5,64(s0)
   125c2:	05443423          	sd	s4,72(s0)
   125c6:	05343823          	sd	s3,80(s0)
   125ca:	f800                	sd	s0,48(s0)
   125cc:	07a5                	addi	a5,a5,9
   125ce:	c89c                	sw	a5,16(s1)
   125d0:	4621                	li	a2,8
   125d2:	4581                	li	a1,0
   125d4:	0a04a623          	sw	zero,172(s1)
   125d8:	0004b023          	sd	zero,0(s1)
   125dc:	0004b423          	sd	zero,8(s1)
   125e0:	0004bc23          	sd	zero,24(s1)
   125e4:	0204a023          	sw	zero,32(s1)
   125e8:	0204a423          	sw	zero,40(s1)
   125ec:	0a448513          	addi	a0,s1,164
   125f0:	e73fd0ef          	jal	ra,10462 <memset>
   125f4:	01893403          	ld	s0,24(s2)
   125f8:	000207b7          	lui	a5,0x20
   125fc:	0364bc23          	sd	s6,56(s1)
   12600:	0554b023          	sd	s5,64(s1)
   12604:	0544b423          	sd	s4,72(s1)
   12608:	0534b823          	sd	s3,80(s1)
   1260c:	f884                	sd	s1,48(s1)
   1260e:	07c9                	addi	a5,a5,18
   12610:	c81c                	sw	a5,16(s0)
   12612:	0a042623          	sw	zero,172(s0)
   12616:	00043023          	sd	zero,0(s0)
   1261a:	00043423          	sd	zero,8(s0)
   1261e:	00043c23          	sd	zero,24(s0)
   12622:	02042023          	sw	zero,32(s0)
   12626:	02042423          	sw	zero,40(s0)
   1262a:	0a440513          	addi	a0,s0,164
   1262e:	4621                	li	a2,8
   12630:	4581                	li	a1,0
   12632:	e31fd0ef          	jal	ra,10462 <memset>
   12636:	70e2                	ld	ra,56(sp)
   12638:	03643c23          	sd	s6,56(s0)
   1263c:	05543023          	sd	s5,64(s0)
   12640:	05443423          	sd	s4,72(s0)
   12644:	05343823          	sd	s3,80(s0)
   12648:	f800                	sd	s0,48(s0)
   1264a:	7442                	ld	s0,48(sp)
   1264c:	4785                	li	a5,1
   1264e:	04f92823          	sw	a5,80(s2)
   12652:	74a2                	ld	s1,40(sp)
   12654:	7902                	ld	s2,32(sp)
   12656:	69e2                	ld	s3,24(sp)
   12658:	6a42                	ld	s4,16(sp)
   1265a:	6aa2                	ld	s5,8(sp)
   1265c:	6b02                	ld	s6,0(sp)
   1265e:	6121                	addi	sp,sp,64
   12660:	8082                	ret

0000000000012662 <__fp_unlock>:
   12662:	4501                	li	a0,0
   12664:	8082                	ret

0000000000012666 <__sfmoreglue>:
   12666:	1101                	addi	sp,sp,-32
   12668:	e426                	sd	s1,8(sp)
   1266a:	0b000613          	li	a2,176
   1266e:	fff5849b          	addiw	s1,a1,-1
   12672:	02c484b3          	mul	s1,s1,a2
   12676:	e04a                	sd	s2,0(sp)
   12678:	892e                	mv	s2,a1
   1267a:	e822                	sd	s0,16(sp)
   1267c:	ec06                	sd	ra,24(sp)
   1267e:	0c848593          	addi	a1,s1,200
   12682:	788020ef          	jal	ra,14e0a <_malloc_r>
   12686:	842a                	mv	s0,a0
   12688:	cd01                	beqz	a0,126a0 <__sfmoreglue+0x3a>
   1268a:	0561                	addi	a0,a0,24
   1268c:	00043023          	sd	zero,0(s0)
   12690:	01242423          	sw	s2,8(s0)
   12694:	e808                	sd	a0,16(s0)
   12696:	0b048613          	addi	a2,s1,176
   1269a:	4581                	li	a1,0
   1269c:	dc7fd0ef          	jal	ra,10462 <memset>
   126a0:	60e2                	ld	ra,24(sp)
   126a2:	8522                	mv	a0,s0
   126a4:	6442                	ld	s0,16(sp)
   126a6:	64a2                	ld	s1,8(sp)
   126a8:	6902                	ld	s2,0(sp)
   126aa:	6105                	addi	sp,sp,32
   126ac:	8082                	ret

00000000000126ae <__sfp>:
   126ae:	7179                	addi	sp,sp,-48
   126b0:	ec26                	sd	s1,24(sp)
   126b2:	7481b483          	ld	s1,1864(gp) # 1ef38 <_global_impure_ptr>
   126b6:	e84a                	sd	s2,16(sp)
   126b8:	f406                	sd	ra,40(sp)
   126ba:	48bc                	lw	a5,80(s1)
   126bc:	f022                	sd	s0,32(sp)
   126be:	e44e                	sd	s3,8(sp)
   126c0:	892a                	mv	s2,a0
   126c2:	c3c9                	beqz	a5,12744 <__sfp+0x96>
   126c4:	52048493          	addi	s1,s1,1312
   126c8:	0b000993          	li	s3,176
   126cc:	449c                	lw	a5,8(s1)
   126ce:	6880                	ld	s0,16(s1)
   126d0:	06f05663          	blez	a5,1273c <__sfp+0x8e>
   126d4:	37fd                	addiw	a5,a5,-1
   126d6:	1782                	slli	a5,a5,0x20
   126d8:	9381                	srli	a5,a5,0x20
   126da:	0785                	addi	a5,a5,1
   126dc:	033787b3          	mul	a5,a5,s3
   126e0:	97a2                	add	a5,a5,s0
   126e2:	a029                	j	126ec <__sfp+0x3e>
   126e4:	0b040413          	addi	s0,s0,176
   126e8:	04878a63          	beq	a5,s0,1273c <__sfp+0x8e>
   126ec:	01041703          	lh	a4,16(s0)
   126f0:	fb75                	bnez	a4,126e4 <__sfp+0x36>
   126f2:	77c1                	lui	a5,0xffff0
   126f4:	0785                	addi	a5,a5,1
   126f6:	0a042623          	sw	zero,172(s0)
   126fa:	00043023          	sd	zero,0(s0)
   126fe:	00043423          	sd	zero,8(s0)
   12702:	c81c                	sw	a5,16(s0)
   12704:	00043c23          	sd	zero,24(s0)
   12708:	02042023          	sw	zero,32(s0)
   1270c:	02042423          	sw	zero,40(s0)
   12710:	4621                	li	a2,8
   12712:	4581                	li	a1,0
   12714:	0a440513          	addi	a0,s0,164
   12718:	d4bfd0ef          	jal	ra,10462 <memset>
   1271c:	04043c23          	sd	zero,88(s0)
   12720:	06042023          	sw	zero,96(s0)
   12724:	06043c23          	sd	zero,120(s0)
   12728:	08042023          	sw	zero,128(s0)
   1272c:	70a2                	ld	ra,40(sp)
   1272e:	8522                	mv	a0,s0
   12730:	7402                	ld	s0,32(sp)
   12732:	64e2                	ld	s1,24(sp)
   12734:	6942                	ld	s2,16(sp)
   12736:	69a2                	ld	s3,8(sp)
   12738:	6145                	addi	sp,sp,48
   1273a:	8082                	ret
   1273c:	6080                	ld	s0,0(s1)
   1273e:	c419                	beqz	s0,1274c <__sfp+0x9e>
   12740:	84a2                	mv	s1,s0
   12742:	b769                	j	126cc <__sfp+0x1e>
   12744:	8526                	mv	a0,s1
   12746:	dffff0ef          	jal	ra,12544 <__sinit.part.0>
   1274a:	bfad                	j	126c4 <__sfp+0x16>
   1274c:	4591                	li	a1,4
   1274e:	854a                	mv	a0,s2
   12750:	f17ff0ef          	jal	ra,12666 <__sfmoreglue>
   12754:	e088                	sd	a0,0(s1)
   12756:	842a                	mv	s0,a0
   12758:	f565                	bnez	a0,12740 <__sfp+0x92>
   1275a:	47b1                	li	a5,12
   1275c:	00f92023          	sw	a5,0(s2)
   12760:	b7f1                	j	1272c <__sfp+0x7e>

0000000000012762 <_cleanup>:
   12762:	7481b503          	ld	a0,1864(gp) # 1ef38 <_global_impure_ptr>
   12766:	65e5                	lui	a1,0x19
   12768:	f2458593          	addi	a1,a1,-220 # 18f24 <_fclose_r>
   1276c:	aef5                	j	12b68 <_fwalk_reent>

000000000001276e <__sinit>:
   1276e:	493c                	lw	a5,80(a0)
   12770:	c391                	beqz	a5,12774 <__sinit+0x6>
   12772:	8082                	ret
   12774:	bbc1                	j	12544 <__sinit.part.0>

0000000000012776 <__sfp_lock_acquire>:
   12776:	8082                	ret

0000000000012778 <__sfp_lock_release>:
   12778:	8082                	ret

000000000001277a <__sinit_lock_acquire>:
   1277a:	8082                	ret

000000000001277c <__sinit_lock_release>:
   1277c:	8082                	ret

000000000001277e <__fp_lock_all>:
   1277e:	7581b503          	ld	a0,1880(gp) # 1ef48 <_impure_ptr>
   12782:	65c9                	lui	a1,0x12
   12784:	53858593          	addi	a1,a1,1336 # 12538 <__fp_lock>
   12788:	aeb9                	j	12ae6 <_fwalk>

000000000001278a <__fp_unlock_all>:
   1278a:	7581b503          	ld	a0,1880(gp) # 1ef48 <_impure_ptr>
   1278e:	65c9                	lui	a1,0x12
   12790:	66258593          	addi	a1,a1,1634 # 12662 <__fp_unlock>
   12794:	ae89                	j	12ae6 <_fwalk>

0000000000012796 <__libc_fini_array>:
   12796:	1101                	addi	sp,sp,-32
   12798:	e822                	sd	s0,16(sp)
   1279a:	67f9                	lui	a5,0x1e
   1279c:	6479                	lui	s0,0x1e
   1279e:	e0040413          	addi	s0,s0,-512 # 1de00 <__do_global_dtors_aux_fini_array_entry>
   127a2:	e0878793          	addi	a5,a5,-504 # 1de08 <impure_data>
   127a6:	8f81                	sub	a5,a5,s0
   127a8:	e426                	sd	s1,8(sp)
   127aa:	ec06                	sd	ra,24(sp)
   127ac:	4037d493          	srai	s1,a5,0x3
   127b0:	c881                	beqz	s1,127c0 <__libc_fini_array+0x2a>
   127b2:	17e1                	addi	a5,a5,-8
   127b4:	943e                	add	s0,s0,a5
   127b6:	601c                	ld	a5,0(s0)
   127b8:	14fd                	addi	s1,s1,-1
   127ba:	1461                	addi	s0,s0,-8
   127bc:	9782                	jalr	a5
   127be:	fce5                	bnez	s1,127b6 <__libc_fini_array+0x20>
   127c0:	60e2                	ld	ra,24(sp)
   127c2:	6442                	ld	s0,16(sp)
   127c4:	64a2                	ld	s1,8(sp)
   127c6:	6105                	addi	sp,sp,32
   127c8:	8082                	ret

00000000000127ca <_malloc_trim_r>:
   127ca:	7179                	addi	sp,sp,-48
   127cc:	e44e                	sd	s3,8(sp)
   127ce:	69f9                	lui	s3,0x1e
   127d0:	f022                	sd	s0,32(sp)
   127d2:	ec26                	sd	s1,24(sp)
   127d4:	e84a                	sd	s2,16(sp)
   127d6:	e052                	sd	s4,0(sp)
   127d8:	f406                	sd	ra,40(sp)
   127da:	8a2e                	mv	s4,a1
   127dc:	892a                	mv	s2,a0
   127de:	6f898993          	addi	s3,s3,1784 # 1e6f8 <__malloc_av_>
   127e2:	51f020ef          	jal	ra,15500 <__malloc_lock>
   127e6:	0109b703          	ld	a4,16(s3)
   127ea:	6785                	lui	a5,0x1
   127ec:	fdf78413          	addi	s0,a5,-33 # fdf <register_fini-0xf109>
   127f0:	6704                	ld	s1,8(a4)
   127f2:	41440433          	sub	s0,s0,s4
   127f6:	98f1                	andi	s1,s1,-4
   127f8:	9426                	add	s0,s0,s1
   127fa:	8031                	srli	s0,s0,0xc
   127fc:	147d                	addi	s0,s0,-1
   127fe:	0432                	slli	s0,s0,0xc
   12800:	00f44b63          	blt	s0,a5,12816 <_malloc_trim_r+0x4c>
   12804:	4581                	li	a1,0
   12806:	854a                	mv	a0,s2
   12808:	06f030ef          	jal	ra,16076 <_sbrk_r>
   1280c:	0109b783          	ld	a5,16(s3)
   12810:	97a6                	add	a5,a5,s1
   12812:	00f50e63          	beq	a0,a5,1282e <_malloc_trim_r+0x64>
   12816:	854a                	mv	a0,s2
   12818:	4eb020ef          	jal	ra,15502 <__malloc_unlock>
   1281c:	70a2                	ld	ra,40(sp)
   1281e:	7402                	ld	s0,32(sp)
   12820:	64e2                	ld	s1,24(sp)
   12822:	6942                	ld	s2,16(sp)
   12824:	69a2                	ld	s3,8(sp)
   12826:	6a02                	ld	s4,0(sp)
   12828:	4501                	li	a0,0
   1282a:	6145                	addi	sp,sp,48
   1282c:	8082                	ret
   1282e:	408005b3          	neg	a1,s0
   12832:	854a                	mv	a0,s2
   12834:	043030ef          	jal	ra,16076 <_sbrk_r>
   12838:	57fd                	li	a5,-1
   1283a:	02f50b63          	beq	a0,a5,12870 <_malloc_trim_r+0xa6>
   1283e:	67fd                	lui	a5,0x1f
   12840:	fc078793          	addi	a5,a5,-64 # 1efc0 <__malloc_current_mallinfo>
   12844:	4398                	lw	a4,0(a5)
   12846:	0109b683          	ld	a3,16(s3)
   1284a:	8c81                	sub	s1,s1,s0
   1284c:	0014e493          	ori	s1,s1,1
   12850:	4087043b          	subw	s0,a4,s0
   12854:	854a                	mv	a0,s2
   12856:	e684                	sd	s1,8(a3)
   12858:	c380                	sw	s0,0(a5)
   1285a:	4a9020ef          	jal	ra,15502 <__malloc_unlock>
   1285e:	70a2                	ld	ra,40(sp)
   12860:	7402                	ld	s0,32(sp)
   12862:	64e2                	ld	s1,24(sp)
   12864:	6942                	ld	s2,16(sp)
   12866:	69a2                	ld	s3,8(sp)
   12868:	6a02                	ld	s4,0(sp)
   1286a:	4505                	li	a0,1
   1286c:	6145                	addi	sp,sp,48
   1286e:	8082                	ret
   12870:	4581                	li	a1,0
   12872:	854a                	mv	a0,s2
   12874:	003030ef          	jal	ra,16076 <_sbrk_r>
   12878:	0109b703          	ld	a4,16(s3)
   1287c:	46fd                	li	a3,31
   1287e:	40e507b3          	sub	a5,a0,a4
   12882:	f8f6dae3          	bge	a3,a5,12816 <_malloc_trim_r+0x4c>
   12886:	7601b683          	ld	a3,1888(gp) # 1ef50 <__malloc_sbrk_base>
   1288a:	0017e793          	ori	a5,a5,1
   1288e:	e71c                	sd	a5,8(a4)
   12890:	8d15                	sub	a0,a0,a3
   12892:	66fd                	lui	a3,0x1f
   12894:	fca6a023          	sw	a0,-64(a3) # 1efc0 <__malloc_current_mallinfo>
   12898:	bfbd                	j	12816 <_malloc_trim_r+0x4c>

000000000001289a <_free_r>:
   1289a:	c5ed                	beqz	a1,12984 <_free_r+0xea>
   1289c:	1101                	addi	sp,sp,-32
   1289e:	e822                	sd	s0,16(sp)
   128a0:	e426                	sd	s1,8(sp)
   128a2:	842e                	mv	s0,a1
   128a4:	84aa                	mv	s1,a0
   128a6:	ec06                	sd	ra,24(sp)
   128a8:	459020ef          	jal	ra,15500 <__malloc_lock>
   128ac:	ff843503          	ld	a0,-8(s0)
   128b0:	ff040713          	addi	a4,s0,-16
   128b4:	65f9                	lui	a1,0x1e
   128b6:	ffe57793          	andi	a5,a0,-2
   128ba:	00f70633          	add	a2,a4,a5
   128be:	6f858593          	addi	a1,a1,1784 # 1e6f8 <__malloc_av_>
   128c2:	6614                	ld	a3,8(a2)
   128c4:	0105b803          	ld	a6,16(a1)
   128c8:	9af1                	andi	a3,a3,-4
   128ca:	14c80063          	beq	a6,a2,12a0a <_free_r+0x170>
   128ce:	e614                	sd	a3,8(a2)
   128d0:	8905                	andi	a0,a0,1
   128d2:	00d60833          	add	a6,a2,a3
   128d6:	e141                	bnez	a0,12956 <_free_r+0xbc>
   128d8:	ff043303          	ld	t1,-16(s0)
   128dc:	00883803          	ld	a6,8(a6)
   128e0:	6579                	lui	a0,0x1e
   128e2:	40670733          	sub	a4,a4,t1
   128e6:	01073883          	ld	a7,16(a4)
   128ea:	70850513          	addi	a0,a0,1800 # 1e708 <__malloc_av_+0x10>
   128ee:	979a                	add	a5,a5,t1
   128f0:	00187813          	andi	a6,a6,1
   128f4:	0ea88863          	beq	a7,a0,129e4 <_free_r+0x14a>
   128f8:	01873303          	ld	t1,24(a4)
   128fc:	0068bc23          	sd	t1,24(a7)
   12900:	01133823          	sd	a7,16(t1)
   12904:	14080d63          	beqz	a6,12a5e <_free_r+0x1c4>
   12908:	0017e693          	ori	a3,a5,1
   1290c:	e714                	sd	a3,8(a4)
   1290e:	e21c                	sd	a5,0(a2)
   12910:	1ff00693          	li	a3,511
   12914:	08f6e263          	bltu	a3,a5,12998 <_free_r+0xfe>
   12918:	838d                	srli	a5,a5,0x3
   1291a:	0017869b          	addiw	a3,a5,1
   1291e:	0016969b          	slliw	a3,a3,0x1
   12922:	068e                	slli	a3,a3,0x3
   12924:	0085b803          	ld	a6,8(a1)
   12928:	96ae                	add	a3,a3,a1
   1292a:	6288                	ld	a0,0(a3)
   1292c:	4027d61b          	sraiw	a2,a5,0x2
   12930:	4785                	li	a5,1
   12932:	00c797b3          	sll	a5,a5,a2
   12936:	0107e7b3          	or	a5,a5,a6
   1293a:	ff068613          	addi	a2,a3,-16
   1293e:	ef10                	sd	a2,24(a4)
   12940:	eb08                	sd	a0,16(a4)
   12942:	e59c                	sd	a5,8(a1)
   12944:	e298                	sd	a4,0(a3)
   12946:	ed18                	sd	a4,24(a0)
   12948:	6442                	ld	s0,16(sp)
   1294a:	60e2                	ld	ra,24(sp)
   1294c:	8526                	mv	a0,s1
   1294e:	64a2                	ld	s1,8(sp)
   12950:	6105                	addi	sp,sp,32
   12952:	3b10206f          	j	15502 <__malloc_unlock>
   12956:	00883503          	ld	a0,8(a6)
   1295a:	8905                	andi	a0,a0,1
   1295c:	e50d                	bnez	a0,12986 <_free_r+0xec>
   1295e:	6579                	lui	a0,0x1e
   12960:	97b6                	add	a5,a5,a3
   12962:	70850513          	addi	a0,a0,1800 # 1e708 <__malloc_av_+0x10>
   12966:	6a14                	ld	a3,16(a2)
   12968:	0017e893          	ori	a7,a5,1
   1296c:	00f70833          	add	a6,a4,a5
   12970:	10a68163          	beq	a3,a0,12a72 <_free_r+0x1d8>
   12974:	6e10                	ld	a2,24(a2)
   12976:	ee90                	sd	a2,24(a3)
   12978:	ea14                	sd	a3,16(a2)
   1297a:	01173423          	sd	a7,8(a4)
   1297e:	00f83023          	sd	a5,0(a6)
   12982:	b779                	j	12910 <_free_r+0x76>
   12984:	8082                	ret
   12986:	0017e693          	ori	a3,a5,1
   1298a:	fed43c23          	sd	a3,-8(s0)
   1298e:	e21c                	sd	a5,0(a2)
   12990:	1ff00693          	li	a3,511
   12994:	f8f6f2e3          	bgeu	a3,a5,12918 <_free_r+0x7e>
   12998:	0097d693          	srli	a3,a5,0x9
   1299c:	4611                	li	a2,4
   1299e:	08d66f63          	bltu	a2,a3,12a3c <_free_r+0x1a2>
   129a2:	0067d693          	srli	a3,a5,0x6
   129a6:	0396851b          	addiw	a0,a3,57
   129aa:	0015151b          	slliw	a0,a0,0x1
   129ae:	0386861b          	addiw	a2,a3,56
   129b2:	050e                	slli	a0,a0,0x3
   129b4:	952e                	add	a0,a0,a1
   129b6:	6114                	ld	a3,0(a0)
   129b8:	1541                	addi	a0,a0,-16
   129ba:	0cd50563          	beq	a0,a3,12a84 <_free_r+0x1ea>
   129be:	6690                	ld	a2,8(a3)
   129c0:	9a71                	andi	a2,a2,-4
   129c2:	00c7f563          	bgeu	a5,a2,129cc <_free_r+0x132>
   129c6:	6a94                	ld	a3,16(a3)
   129c8:	fed51be3          	bne	a0,a3,129be <_free_r+0x124>
   129cc:	6e88                	ld	a0,24(a3)
   129ce:	ef08                	sd	a0,24(a4)
   129d0:	eb14                	sd	a3,16(a4)
   129d2:	6442                	ld	s0,16(sp)
   129d4:	e918                	sd	a4,16(a0)
   129d6:	60e2                	ld	ra,24(sp)
   129d8:	8526                	mv	a0,s1
   129da:	64a2                	ld	s1,8(sp)
   129dc:	ee98                	sd	a4,24(a3)
   129de:	6105                	addi	sp,sp,32
   129e0:	3230206f          	j	15502 <__malloc_unlock>
   129e4:	0e081c63          	bnez	a6,12adc <_free_r+0x242>
   129e8:	6e0c                	ld	a1,24(a2)
   129ea:	6a10                	ld	a2,16(a2)
   129ec:	97b6                	add	a5,a5,a3
   129ee:	6442                	ld	s0,16(sp)
   129f0:	ee0c                	sd	a1,24(a2)
   129f2:	e990                	sd	a2,16(a1)
   129f4:	0017e693          	ori	a3,a5,1
   129f8:	60e2                	ld	ra,24(sp)
   129fa:	e714                	sd	a3,8(a4)
   129fc:	8526                	mv	a0,s1
   129fe:	973e                	add	a4,a4,a5
   12a00:	64a2                	ld	s1,8(sp)
   12a02:	e31c                	sd	a5,0(a4)
   12a04:	6105                	addi	sp,sp,32
   12a06:	2fd0206f          	j	15502 <__malloc_unlock>
   12a0a:	8905                	andi	a0,a0,1
   12a0c:	97b6                	add	a5,a5,a3
   12a0e:	e909                	bnez	a0,12a20 <_free_r+0x186>
   12a10:	ff043503          	ld	a0,-16(s0)
   12a14:	8f09                	sub	a4,a4,a0
   12a16:	6f14                	ld	a3,24(a4)
   12a18:	6b10                	ld	a2,16(a4)
   12a1a:	97aa                	add	a5,a5,a0
   12a1c:	ee14                	sd	a3,24(a2)
   12a1e:	ea90                	sd	a2,16(a3)
   12a20:	0017e613          	ori	a2,a5,1
   12a24:	7681b683          	ld	a3,1896(gp) # 1ef58 <__malloc_trim_threshold>
   12a28:	e710                	sd	a2,8(a4)
   12a2a:	e998                	sd	a4,16(a1)
   12a2c:	f0d7eee3          	bltu	a5,a3,12948 <_free_r+0xae>
   12a30:	7881b583          	ld	a1,1928(gp) # 1ef78 <__malloc_top_pad>
   12a34:	8526                	mv	a0,s1
   12a36:	d95ff0ef          	jal	ra,127ca <_malloc_trim_r>
   12a3a:	b739                	j	12948 <_free_r+0xae>
   12a3c:	4651                	li	a2,20
   12a3e:	02d67263          	bgeu	a2,a3,12a62 <_free_r+0x1c8>
   12a42:	05400613          	li	a2,84
   12a46:	04d66a63          	bltu	a2,a3,12a9a <_free_r+0x200>
   12a4a:	00c7d693          	srli	a3,a5,0xc
   12a4e:	06f6851b          	addiw	a0,a3,111
   12a52:	0015151b          	slliw	a0,a0,0x1
   12a56:	06e6861b          	addiw	a2,a3,110
   12a5a:	050e                	slli	a0,a0,0x3
   12a5c:	bfa1                	j	129b4 <_free_r+0x11a>
   12a5e:	97b6                	add	a5,a5,a3
   12a60:	b719                	j	12966 <_free_r+0xcc>
   12a62:	05c6851b          	addiw	a0,a3,92
   12a66:	0015151b          	slliw	a0,a0,0x1
   12a6a:	05b6861b          	addiw	a2,a3,91
   12a6e:	050e                	slli	a0,a0,0x3
   12a70:	b791                	j	129b4 <_free_r+0x11a>
   12a72:	f598                	sd	a4,40(a1)
   12a74:	f198                	sd	a4,32(a1)
   12a76:	ef08                	sd	a0,24(a4)
   12a78:	eb08                	sd	a0,16(a4)
   12a7a:	01173423          	sd	a7,8(a4)
   12a7e:	00f83023          	sd	a5,0(a6)
   12a82:	b5d9                	j	12948 <_free_r+0xae>
   12a84:	0085b803          	ld	a6,8(a1)
   12a88:	4026561b          	sraiw	a2,a2,0x2
   12a8c:	4785                	li	a5,1
   12a8e:	00c79633          	sll	a2,a5,a2
   12a92:	01066633          	or	a2,a2,a6
   12a96:	e590                	sd	a2,8(a1)
   12a98:	bf1d                	j	129ce <_free_r+0x134>
   12a9a:	15400613          	li	a2,340
   12a9e:	00d66c63          	bltu	a2,a3,12ab6 <_free_r+0x21c>
   12aa2:	00f7d693          	srli	a3,a5,0xf
   12aa6:	0786851b          	addiw	a0,a3,120
   12aaa:	0015151b          	slliw	a0,a0,0x1
   12aae:	0776861b          	addiw	a2,a3,119
   12ab2:	050e                	slli	a0,a0,0x3
   12ab4:	b701                	j	129b4 <_free_r+0x11a>
   12ab6:	55400613          	li	a2,1364
   12aba:	00d66c63          	bltu	a2,a3,12ad2 <_free_r+0x238>
   12abe:	0127d693          	srli	a3,a5,0x12
   12ac2:	07d6851b          	addiw	a0,a3,125
   12ac6:	0015151b          	slliw	a0,a0,0x1
   12aca:	07c6861b          	addiw	a2,a3,124
   12ace:	050e                	slli	a0,a0,0x3
   12ad0:	b5d5                	j	129b4 <_free_r+0x11a>
   12ad2:	7f000513          	li	a0,2032
   12ad6:	07e00613          	li	a2,126
   12ada:	bde9                	j	129b4 <_free_r+0x11a>
   12adc:	0017e693          	ori	a3,a5,1
   12ae0:	e714                	sd	a3,8(a4)
   12ae2:	e21c                	sd	a5,0(a2)
   12ae4:	b595                	j	12948 <_free_r+0xae>

0000000000012ae6 <_fwalk>:
   12ae6:	715d                	addi	sp,sp,-80
   12ae8:	f84a                	sd	s2,48(sp)
   12aea:	f44e                	sd	s3,40(sp)
   12aec:	f052                	sd	s4,32(sp)
   12aee:	ec56                	sd	s5,24(sp)
   12af0:	e85a                	sd	s6,16(sp)
   12af2:	e45e                	sd	s7,8(sp)
   12af4:	e486                	sd	ra,72(sp)
   12af6:	e0a2                	sd	s0,64(sp)
   12af8:	fc26                	sd	s1,56(sp)
   12afa:	8a2e                	mv	s4,a1
   12afc:	52050913          	addi	s2,a0,1312
   12b00:	4b01                	li	s6,0
   12b02:	0b000a93          	li	s5,176
   12b06:	4b85                	li	s7,1
   12b08:	59fd                	li	s3,-1
   12b0a:	00892783          	lw	a5,8(s2)
   12b0e:	01093403          	ld	s0,16(s2)
   12b12:	02f05b63          	blez	a5,12b48 <_fwalk+0x62>
   12b16:	fff7849b          	addiw	s1,a5,-1
   12b1a:	1482                	slli	s1,s1,0x20
   12b1c:	9081                	srli	s1,s1,0x20
   12b1e:	0485                	addi	s1,s1,1
   12b20:	035484b3          	mul	s1,s1,s5
   12b24:	94a2                	add	s1,s1,s0
   12b26:	01045783          	lhu	a5,16(s0)
   12b2a:	00fbfb63          	bgeu	s7,a5,12b40 <_fwalk+0x5a>
   12b2e:	01241783          	lh	a5,18(s0)
   12b32:	8522                	mv	a0,s0
   12b34:	01378663          	beq	a5,s3,12b40 <_fwalk+0x5a>
   12b38:	9a02                	jalr	s4
   12b3a:	01656b33          	or	s6,a0,s6
   12b3e:	2b01                	sext.w	s6,s6
   12b40:	0b040413          	addi	s0,s0,176
   12b44:	fe8491e3          	bne	s1,s0,12b26 <_fwalk+0x40>
   12b48:	00093903          	ld	s2,0(s2)
   12b4c:	fa091fe3          	bnez	s2,12b0a <_fwalk+0x24>
   12b50:	60a6                	ld	ra,72(sp)
   12b52:	6406                	ld	s0,64(sp)
   12b54:	74e2                	ld	s1,56(sp)
   12b56:	7942                	ld	s2,48(sp)
   12b58:	79a2                	ld	s3,40(sp)
   12b5a:	7a02                	ld	s4,32(sp)
   12b5c:	6ae2                	ld	s5,24(sp)
   12b5e:	6ba2                	ld	s7,8(sp)
   12b60:	855a                	mv	a0,s6
   12b62:	6b42                	ld	s6,16(sp)
   12b64:	6161                	addi	sp,sp,80
   12b66:	8082                	ret

0000000000012b68 <_fwalk_reent>:
   12b68:	715d                	addi	sp,sp,-80
   12b6a:	f84a                	sd	s2,48(sp)
   12b6c:	f44e                	sd	s3,40(sp)
   12b6e:	f052                	sd	s4,32(sp)
   12b70:	ec56                	sd	s5,24(sp)
   12b72:	e85a                	sd	s6,16(sp)
   12b74:	e45e                	sd	s7,8(sp)
   12b76:	e062                	sd	s8,0(sp)
   12b78:	e486                	sd	ra,72(sp)
   12b7a:	e0a2                	sd	s0,64(sp)
   12b7c:	fc26                	sd	s1,56(sp)
   12b7e:	8c2a                	mv	s8,a0
   12b80:	8a2e                	mv	s4,a1
   12b82:	52050913          	addi	s2,a0,1312
   12b86:	4b01                	li	s6,0
   12b88:	0b000a93          	li	s5,176
   12b8c:	4b85                	li	s7,1
   12b8e:	59fd                	li	s3,-1
   12b90:	00892783          	lw	a5,8(s2)
   12b94:	01093403          	ld	s0,16(s2)
   12b98:	02f05c63          	blez	a5,12bd0 <_fwalk_reent+0x68>
   12b9c:	fff7849b          	addiw	s1,a5,-1
   12ba0:	1482                	slli	s1,s1,0x20
   12ba2:	9081                	srli	s1,s1,0x20
   12ba4:	0485                	addi	s1,s1,1
   12ba6:	035484b3          	mul	s1,s1,s5
   12baa:	94a2                	add	s1,s1,s0
   12bac:	01045783          	lhu	a5,16(s0)
   12bb0:	00fbfc63          	bgeu	s7,a5,12bc8 <_fwalk_reent+0x60>
   12bb4:	01241783          	lh	a5,18(s0)
   12bb8:	85a2                	mv	a1,s0
   12bba:	8562                	mv	a0,s8
   12bbc:	01378663          	beq	a5,s3,12bc8 <_fwalk_reent+0x60>
   12bc0:	9a02                	jalr	s4
   12bc2:	01656b33          	or	s6,a0,s6
   12bc6:	2b01                	sext.w	s6,s6
   12bc8:	0b040413          	addi	s0,s0,176
   12bcc:	fe8490e3          	bne	s1,s0,12bac <_fwalk_reent+0x44>
   12bd0:	00093903          	ld	s2,0(s2)
   12bd4:	fa091ee3          	bnez	s2,12b90 <_fwalk_reent+0x28>
   12bd8:	60a6                	ld	ra,72(sp)
   12bda:	6406                	ld	s0,64(sp)
   12bdc:	74e2                	ld	s1,56(sp)
   12bde:	7942                	ld	s2,48(sp)
   12be0:	79a2                	ld	s3,40(sp)
   12be2:	7a02                	ld	s4,32(sp)
   12be4:	6ae2                	ld	s5,24(sp)
   12be6:	6ba2                	ld	s7,8(sp)
   12be8:	6c02                	ld	s8,0(sp)
   12bea:	855a                	mv	a0,s6
   12bec:	6b42                	ld	s6,16(sp)
   12bee:	6161                	addi	sp,sp,80
   12bf0:	8082                	ret

0000000000012bf2 <eshdn1>:
   12bf2:	00450693          	addi	a3,a0,4
   12bf6:	4781                	li	a5,0
   12bf8:	0569                	addi	a0,a0,26
   12bfa:	7861                	lui	a6,0xffff8
   12bfc:	a811                	j	12c10 <eshdn1+0x1e>
   12bfe:	0017979b          	slliw	a5,a5,0x1
   12c02:	00e69023          	sh	a4,0(a3)
   12c06:	17c2                	slli	a5,a5,0x30
   12c08:	0689                	addi	a3,a3,2
   12c0a:	93c1                	srli	a5,a5,0x30
   12c0c:	02d50863          	beq	a0,a3,12c3c <eshdn1+0x4a>
   12c10:	0006d703          	lhu	a4,0(a3)
   12c14:	00177613          	andi	a2,a4,1
   12c18:	c219                	beqz	a2,12c1e <eshdn1+0x2c>
   12c1a:	0017e793          	ori	a5,a5,1
   12c1e:	8305                	srli	a4,a4,0x1
   12c20:	0027f613          	andi	a2,a5,2
   12c24:	010765b3          	or	a1,a4,a6
   12c28:	da79                	beqz	a2,12bfe <eshdn1+0xc>
   12c2a:	0017979b          	slliw	a5,a5,0x1
   12c2e:	00b69023          	sh	a1,0(a3)
   12c32:	17c2                	slli	a5,a5,0x30
   12c34:	0689                	addi	a3,a3,2
   12c36:	93c1                	srli	a5,a5,0x30
   12c38:	fcd51ce3          	bne	a0,a3,12c10 <eshdn1+0x1e>
   12c3c:	8082                	ret

0000000000012c3e <eshup1>:
   12c3e:	01850693          	addi	a3,a0,24
   12c42:	4701                	li	a4,0
   12c44:	0509                	addi	a0,a0,2
   12c46:	a811                	j	12c5a <eshup1+0x1c>
   12c48:	0017171b          	slliw	a4,a4,0x1
   12c4c:	00f69023          	sh	a5,0(a3)
   12c50:	1742                	slli	a4,a4,0x30
   12c52:	16f9                	addi	a3,a3,-2
   12c54:	9341                	srli	a4,a4,0x30
   12c56:	04d50063          	beq	a0,a3,12c96 <eshup1+0x58>
   12c5a:	0006d783          	lhu	a5,0(a3)
   12c5e:	0107961b          	slliw	a2,a5,0x10
   12c62:	4106561b          	sraiw	a2,a2,0x10
   12c66:	02061593          	slli	a1,a2,0x20
   12c6a:	0017979b          	slliw	a5,a5,0x1
   12c6e:	0005d463          	bgez	a1,12c76 <eshup1+0x38>
   12c72:	00176713          	ori	a4,a4,1
   12c76:	17c2                	slli	a5,a5,0x30
   12c78:	93c1                	srli	a5,a5,0x30
   12c7a:	00277613          	andi	a2,a4,2
   12c7e:	0017e593          	ori	a1,a5,1
   12c82:	d279                	beqz	a2,12c48 <eshup1+0xa>
   12c84:	0017171b          	slliw	a4,a4,0x1
   12c88:	00b69023          	sh	a1,0(a3)
   12c8c:	1742                	slli	a4,a4,0x30
   12c8e:	16f9                	addi	a3,a3,-2
   12c90:	9341                	srli	a4,a4,0x30
   12c92:	fcd514e3          	bne	a0,a3,12c5a <eshup1+0x1c>
   12c96:	8082                	ret

0000000000012c98 <m16m>:
   12c98:	1101                	addi	sp,sp,-32
   12c9a:	6e41                	lui	t3,0x10
   12c9c:	00011b23          	sh	zero,22(sp)
   12ca0:	00011c23          	sh	zero,24(sp)
   12ca4:	05e1                	addi	a1,a1,24
   12ca6:	083c                	addi	a5,sp,24
   12ca8:	00410813          	addi	a6,sp,4
   12cac:	1e7d                	addi	t3,t3,-1
   12cae:	0005d703          	lhu	a4,0(a1)
   12cb2:	17f9                	addi	a5,a5,-2
   12cb4:	15f9                	addi	a1,a1,-2
   12cb6:	e315                	bnez	a4,12cda <m16m+0x42>
   12cb8:	fe079f23          	sh	zero,-2(a5)
   12cbc:	ff0799e3          	bne	a5,a6,12cae <m16m+0x16>
   12cc0:	0611                	addi	a2,a2,4
   12cc2:	01a10693          	addi	a3,sp,26
   12cc6:	0007d703          	lhu	a4,0(a5)
   12cca:	0789                	addi	a5,a5,2
   12ccc:	0609                	addi	a2,a2,2
   12cce:	fee61f23          	sh	a4,-2(a2)
   12cd2:	fed79ae3          	bne	a5,a3,12cc6 <m16m+0x2e>
   12cd6:	6105                	addi	sp,sp,32
   12cd8:	8082                	ret
   12cda:	02a70733          	mul	a4,a4,a0
   12cde:	0027d883          	lhu	a7,2(a5)
   12ce2:	0007d303          	lhu	t1,0(a5)
   12ce6:	01c776b3          	and	a3,a4,t3
   12cea:	96c6                	add	a3,a3,a7
   12cec:	8341                	srli	a4,a4,0x10
   12cee:	0106d893          	srli	a7,a3,0x10
   12cf2:	971a                	add	a4,a4,t1
   12cf4:	9746                	add	a4,a4,a7
   12cf6:	01075893          	srli	a7,a4,0x10
   12cfa:	00d79123          	sh	a3,2(a5)
   12cfe:	00e79023          	sh	a4,0(a5)
   12d02:	ff179f23          	sh	a7,-2(a5)
   12d06:	fb0794e3          	bne	a5,a6,12cae <m16m+0x16>
   12d0a:	bf5d                	j	12cc0 <m16m+0x28>

0000000000012d0c <eisnan.part.0>:
   12d0c:	01250713          	addi	a4,a0,18
   12d10:	00055783          	lhu	a5,0(a0)
   12d14:	0509                	addi	a0,a0,2
   12d16:	e789                	bnez	a5,12d20 <eisnan.part.0+0x14>
   12d18:	fee51ce3          	bne	a0,a4,12d10 <eisnan.part.0+0x4>
   12d1c:	4501                	li	a0,0
   12d1e:	8082                	ret
   12d20:	4505                	li	a0,1
   12d22:	8082                	ret

0000000000012d24 <eneg>:
   12d24:	1101                	addi	sp,sp,-32
   12d26:	e426                	sd	s1,8(sp)
   12d28:	01255483          	lhu	s1,18(a0)
   12d2c:	e822                	sd	s0,16(sp)
   12d2e:	ec06                	sd	ra,24(sp)
   12d30:	fff4c793          	not	a5,s1
   12d34:	03179713          	slli	a4,a5,0x31
   12d38:	842a                	mv	s0,a0
   12d3a:	e701                	bnez	a4,12d42 <eneg+0x1e>
   12d3c:	fd1ff0ef          	jal	ra,12d0c <eisnan.part.0>
   12d40:	e509                	bnez	a0,12d4a <eneg+0x26>
   12d42:	77e1                	lui	a5,0xffff8
   12d44:	8cbd                	xor	s1,s1,a5
   12d46:	00941923          	sh	s1,18(s0)
   12d4a:	60e2                	ld	ra,24(sp)
   12d4c:	6442                	ld	s0,16(sp)
   12d4e:	64a2                	ld	s1,8(sp)
   12d50:	6105                	addi	sp,sp,32
   12d52:	8082                	ret

0000000000012d54 <eisneg>:
   12d54:	1141                	addi	sp,sp,-16
   12d56:	e022                	sd	s0,0(sp)
   12d58:	01255403          	lhu	s0,18(a0)
   12d5c:	e406                	sd	ra,8(sp)
   12d5e:	fff44793          	not	a5,s0
   12d62:	03179713          	slli	a4,a5,0x31
   12d66:	e711                	bnez	a4,12d72 <eisneg+0x1e>
   12d68:	fa5ff0ef          	jal	ra,12d0c <eisnan.part.0>
   12d6c:	87aa                	mv	a5,a0
   12d6e:	4501                	li	a0,0
   12d70:	e399                	bnez	a5,12d76 <eisneg+0x22>
   12d72:	00f45513          	srli	a0,s0,0xf
   12d76:	60a2                	ld	ra,8(sp)
   12d78:	6402                	ld	s0,0(sp)
   12d7a:	0141                	addi	sp,sp,16
   12d7c:	8082                	ret

0000000000012d7e <emovi>:
   12d7e:	01255783          	lhu	a5,18(a0)
   12d82:	7139                	addi	sp,sp,-64
   12d84:	f822                	sd	s0,48(sp)
   12d86:	00f7d79b          	srliw	a5,a5,0xf
   12d8a:	f426                	sd	s1,40(sp)
   12d8c:	fc06                	sd	ra,56(sp)
   12d8e:	f04a                	sd	s2,32(sp)
   12d90:	ec4e                	sd	s3,24(sp)
   12d92:	40f007bb          	negw	a5,a5
   12d96:	00f59023          	sh	a5,0(a1)
   12d9a:	01255783          	lhu	a5,18(a0)
   12d9e:	6721                	lui	a4,0x8
   12da0:	177d                	addi	a4,a4,-1
   12da2:	8ff9                	and	a5,a5,a4
   12da4:	00f59123          	sh	a5,2(a1)
   12da8:	84aa                	mv	s1,a0
   12daa:	01050413          	addi	s0,a0,16
   12dae:	02e78863          	beq	a5,a4,12dde <emovi+0x60>
   12db2:	00658793          	addi	a5,a1,6
   12db6:	00059223          	sh	zero,4(a1)
   12dba:	1579                	addi	a0,a0,-2
   12dbc:	00045703          	lhu	a4,0(s0)
   12dc0:	1479                	addi	s0,s0,-2
   12dc2:	0789                	addi	a5,a5,2
   12dc4:	fee79f23          	sh	a4,-2(a5) # ffffffffffff7ffe <__BSS_END__+0xfffffffffffd900e>
   12dc8:	fe851ae3          	bne	a0,s0,12dbc <emovi+0x3e>
   12dcc:	00059c23          	sh	zero,24(a1)
   12dd0:	70e2                	ld	ra,56(sp)
   12dd2:	7442                	ld	s0,48(sp)
   12dd4:	74a2                	ld	s1,40(sp)
   12dd6:	7902                	ld	s2,32(sp)
   12dd8:	69e2                	ld	s3,24(sp)
   12dda:	6121                	addi	sp,sp,64
   12ddc:	8082                	ret
   12dde:	0007869b          	sext.w	a3,a5
   12de2:	01255783          	lhu	a5,18(a0)
   12de6:	00458913          	addi	s2,a1,4
   12dea:	8ff5                	and	a5,a5,a3
   12dec:	02d79663          	bne	a5,a3,12e18 <emovi+0x9a>
   12df0:	e42e                	sd	a1,8(sp)
   12df2:	f1bff0ef          	jal	ra,12d0c <eisnan.part.0>
   12df6:	65a2                	ld	a1,8(sp)
   12df8:	c105                	beqz	a0,12e18 <emovi+0x9a>
   12dfa:	00658793          	addi	a5,a1,6
   12dfe:	00059223          	sh	zero,4(a1)
   12e02:	ffc48513          	addi	a0,s1,-4
   12e06:	00045703          	lhu	a4,0(s0)
   12e0a:	1479                	addi	s0,s0,-2
   12e0c:	0789                	addi	a5,a5,2
   12e0e:	fee79f23          	sh	a4,-2(a5)
   12e12:	fe851ae3          	bne	a0,s0,12e06 <emovi+0x88>
   12e16:	bf6d                	j	12dd0 <emovi+0x52>
   12e18:	01a58993          	addi	s3,a1,26
   12e1c:	0909                	addi	s2,s2,2
   12e1e:	fe091f23          	sh	zero,-2(s2)
   12e22:	ff299de3          	bne	s3,s2,12e1c <emovi+0x9e>
   12e26:	70e2                	ld	ra,56(sp)
   12e28:	7442                	ld	s0,48(sp)
   12e2a:	74a2                	ld	s1,40(sp)
   12e2c:	7902                	ld	s2,32(sp)
   12e2e:	69e2                	ld	s3,24(sp)
   12e30:	6121                	addi	sp,sp,64
   12e32:	8082                	ret

0000000000012e34 <ecmp>:
   12e34:	01255783          	lhu	a5,18(a0)
   12e38:	711d                	addi	sp,sp,-96
   12e3a:	e8a2                	sd	s0,80(sp)
   12e3c:	fff7c793          	not	a5,a5
   12e40:	e4a6                	sd	s1,72(sp)
   12e42:	ec86                	sd	ra,88(sp)
   12e44:	03179713          	slli	a4,a5,0x31
   12e48:	84aa                	mv	s1,a0
   12e4a:	842e                	mv	s0,a1
   12e4c:	e701                	bnez	a4,12e54 <ecmp+0x20>
   12e4e:	ebfff0ef          	jal	ra,12d0c <eisnan.part.0>
   12e52:	ed39                	bnez	a0,12eb0 <ecmp+0x7c>
   12e54:	01245783          	lhu	a5,18(s0)
   12e58:	fff7c793          	not	a5,a5
   12e5c:	03179713          	slli	a4,a5,0x31
   12e60:	c721                	beqz	a4,12ea8 <ecmp+0x74>
   12e62:	858a                	mv	a1,sp
   12e64:	8526                	mv	a0,s1
   12e66:	f19ff0ef          	jal	ra,12d7e <emovi>
   12e6a:	100c                	addi	a1,sp,32
   12e6c:	8522                	mv	a0,s0
   12e6e:	f11ff0ef          	jal	ra,12d7e <emovi>
   12e72:	00015583          	lhu	a1,0(sp)
   12e76:	02015783          	lhu	a5,32(sp)
   12e7a:	02b78d63          	beq	a5,a1,12eb4 <ecmp+0x80>
   12e7e:	00210793          	addi	a5,sp,2
   12e82:	02210713          	addi	a4,sp,34
   12e86:	0830                	addi	a2,sp,24
   12e88:	0007d683          	lhu	a3,0(a5)
   12e8c:	0789                	addi	a5,a5,2
   12e8e:	e2ad                	bnez	a3,12ef0 <ecmp+0xbc>
   12e90:	00075683          	lhu	a3,0(a4) # 8000 <register_fini-0x80e8>
   12e94:	0709                	addi	a4,a4,2
   12e96:	eea9                	bnez	a3,12ef0 <ecmp+0xbc>
   12e98:	fec798e3          	bne	a5,a2,12e88 <ecmp+0x54>
   12e9c:	4501                	li	a0,0
   12e9e:	60e6                	ld	ra,88(sp)
   12ea0:	6446                	ld	s0,80(sp)
   12ea2:	64a6                	ld	s1,72(sp)
   12ea4:	6125                	addi	sp,sp,96
   12ea6:	8082                	ret
   12ea8:	8522                	mv	a0,s0
   12eaa:	e63ff0ef          	jal	ra,12d0c <eisnan.part.0>
   12eae:	d955                	beqz	a0,12e62 <ecmp+0x2e>
   12eb0:	5579                	li	a0,-2
   12eb2:	b7f5                	j	12e9e <ecmp+0x6a>
   12eb4:	4505                	li	a0,1
   12eb6:	e1a9                	bnez	a1,12ef8 <ecmp+0xc4>
   12eb8:	00215603          	lhu	a2,2(sp)
   12ebc:	02215683          	lhu	a3,34(sp)
   12ec0:	00210713          	addi	a4,sp,2
   12ec4:	02210793          	addi	a5,sp,34
   12ec8:	182c                	addi	a1,sp,56
   12eca:	0789                	addi	a5,a5,2
   12ecc:	0709                	addi	a4,a4,2
   12ece:	00d61c63          	bne	a2,a3,12ee6 <ecmp+0xb2>
   12ed2:	fcb785e3          	beq	a5,a1,12e9c <ecmp+0x68>
   12ed6:	00075603          	lhu	a2,0(a4)
   12eda:	0007d683          	lhu	a3,0(a5)
   12ede:	0709                	addi	a4,a4,2
   12ee0:	0789                	addi	a5,a5,2
   12ee2:	fed608e3          	beq	a2,a3,12ed2 <ecmp+0x9e>
   12ee6:	fac6ece3          	bltu	a3,a2,12e9e <ecmp+0x6a>
   12eea:	40a0053b          	negw	a0,a0
   12eee:	bf45                	j	12e9e <ecmp+0x6a>
   12ef0:	4505                	li	a0,1
   12ef2:	d5d5                	beqz	a1,12e9e <ecmp+0x6a>
   12ef4:	557d                	li	a0,-1
   12ef6:	b765                	j	12e9e <ecmp+0x6a>
   12ef8:	557d                	li	a0,-1
   12efa:	bf7d                	j	12eb8 <ecmp+0x84>

0000000000012efc <eisinf.part.0>:
   12efc:	1141                	addi	sp,sp,-16
   12efe:	e406                	sd	ra,8(sp)
   12f00:	e0dff0ef          	jal	ra,12d0c <eisnan.part.0>
   12f04:	60a2                	ld	ra,8(sp)
   12f06:	00153513          	seqz	a0,a0
   12f0a:	0141                	addi	sp,sp,16
   12f0c:	8082                	ret

0000000000012f0e <eshift.part.0>:
   12f0e:	7179                	addi	sp,sp,-48
   12f10:	f022                	sd	s0,32(sp)
   12f12:	ec26                	sd	s1,24(sp)
   12f14:	f406                	sd	ra,40(sp)
   12f16:	e84a                	sd	s2,16(sp)
   12f18:	e44e                	sd	s3,8(sp)
   12f1a:	84ae                	mv	s1,a1
   12f1c:	842a                	mv	s0,a0
   12f1e:	0605cb63          	bltz	a1,12f94 <eshift.part.0+0x86>
   12f22:	47bd                	li	a5,15
   12f24:	862e                	mv	a2,a1
   12f26:	0511                	addi	a0,a0,4
   12f28:	01840693          	addi	a3,s0,24
   12f2c:	45bd                	li	a1,15
   12f2e:	0297d063          	bge	a5,s1,12f4e <eshift.part.0+0x40>
   12f32:	87aa                	mv	a5,a0
   12f34:	0027d703          	lhu	a4,2(a5)
   12f38:	0789                	addi	a5,a5,2
   12f3a:	fee79f23          	sh	a4,-2(a5)
   12f3e:	fed79be3          	bne	a5,a3,12f34 <eshift.part.0+0x26>
   12f42:	00041c23          	sh	zero,24(s0)
   12f46:	3641                	addiw	a2,a2,-16
   12f48:	fec5c5e3          	blt	a1,a2,12f32 <eshift.part.0+0x24>
   12f4c:	88bd                	andi	s1,s1,15
   12f4e:	479d                	li	a5,7
   12f50:	0297d463          	bge	a5,s1,12f78 <eshift.part.0+0x6a>
   12f54:	01840713          	addi	a4,s0,24
   12f58:	00240593          	addi	a1,s0,2
   12f5c:	4781                	li	a5,0
   12f5e:	00075683          	lhu	a3,0(a4)
   12f62:	1779                	addi	a4,a4,-2
   12f64:	00869613          	slli	a2,a3,0x8
   12f68:	8fd1                	or	a5,a5,a2
   12f6a:	00f71123          	sh	a5,2(a4)
   12f6e:	0086d793          	srli	a5,a3,0x8
   12f72:	feb716e3          	bne	a4,a1,12f5e <eshift.part.0+0x50>
   12f76:	34e1                	addiw	s1,s1,-8
   12f78:	c491                	beqz	s1,12f84 <eshift.part.0+0x76>
   12f7a:	34fd                	addiw	s1,s1,-1
   12f7c:	8522                	mv	a0,s0
   12f7e:	cc1ff0ef          	jal	ra,12c3e <eshup1>
   12f82:	fce5                	bnez	s1,12f7a <eshift.part.0+0x6c>
   12f84:	4501                	li	a0,0
   12f86:	70a2                	ld	ra,40(sp)
   12f88:	7402                	ld	s0,32(sp)
   12f8a:	64e2                	ld	s1,24(sp)
   12f8c:	6942                	ld	s2,16(sp)
   12f8e:	69a2                	ld	s3,8(sp)
   12f90:	6145                	addi	sp,sp,48
   12f92:	8082                	ret
   12f94:	57c5                	li	a5,-15
   12f96:	40b0093b          	negw	s2,a1
   12f9a:	0ef5d463          	bge	a1,a5,13082 <eshift.part.0+0x174>
   12f9e:	01850593          	addi	a1,a0,24
   12fa2:	4981                	li	s3,0
   12fa4:	00450693          	addi	a3,a0,4
   12fa8:	463d                	li	a2,15
   12faa:	01845703          	lhu	a4,24(s0)
   12fae:	87ae                	mv	a5,a1
   12fb0:	00e9e9b3          	or	s3,s3,a4
   12fb4:	ffe7d703          	lhu	a4,-2(a5)
   12fb8:	17f9                	addi	a5,a5,-2
   12fba:	00e79123          	sh	a4,2(a5)
   12fbe:	fed79be3          	bne	a5,a3,12fb4 <eshift.part.0+0xa6>
   12fc2:	00041223          	sh	zero,4(s0)
   12fc6:	3941                	addiw	s2,s2,-16
   12fc8:	ff2641e3          	blt	a2,s2,12faa <eshift.part.0+0x9c>
   12fcc:	57c1                	li	a5,-16
   12fce:	5745                	li	a4,-15
   12fd0:	9f85                	subw	a5,a5,s1
   12fd2:	4901                	li	s2,0
   12fd4:	08e4c063          	blt	s1,a4,13054 <eshift.part.0+0x146>
   12fd8:	00f9093b          	addw	s2,s2,a5
   12fdc:	479d                	li	a5,7
   12fde:	0327df63          	bge	a5,s2,1301c <eshift.part.0+0x10e>
   12fe2:	0109999b          	slliw	s3,s3,0x10
   12fe6:	4109d99b          	sraiw	s3,s3,0x10
   12fea:	01844783          	lbu	a5,24(s0)
   12fee:	01a40593          	addi	a1,s0,26
   12ff2:	00f9e9b3          	or	s3,s3,a5
   12ff6:	19c2                	slli	s3,s3,0x30
   12ff8:	0309d993          	srli	s3,s3,0x30
   12ffc:	4781                	li	a5,0
   12ffe:	0006d603          	lhu	a2,0(a3)
   13002:	0689                	addi	a3,a3,2
   13004:	0086571b          	srliw	a4,a2,0x8
   13008:	8f5d                	or	a4,a4,a5
   1300a:	0086179b          	slliw	a5,a2,0x8
   1300e:	17c2                	slli	a5,a5,0x30
   13010:	fee69f23          	sh	a4,-2(a3)
   13014:	93c1                	srli	a5,a5,0x30
   13016:	feb694e3          	bne	a3,a1,12ffe <eshift.part.0+0xf0>
   1301a:	3961                	addiw	s2,s2,-8
   1301c:	04090b63          	beqz	s2,13072 <eshift.part.0+0x164>
   13020:	01845783          	lhu	a5,24(s0)
   13024:	397d                	addiw	s2,s2,-1
   13026:	8522                	mv	a0,s0
   13028:	8b85                	andi	a5,a5,1
   1302a:	0137e9b3          	or	s3,a5,s3
   1302e:	bc5ff0ef          	jal	ra,12bf2 <eshdn1>
   13032:	fe0917e3          	bnez	s2,13020 <eshift.part.0+0x112>
   13036:	0109979b          	slliw	a5,s3,0x10
   1303a:	4107d79b          	sraiw	a5,a5,0x10
   1303e:	e78d                	bnez	a5,13068 <eshift.part.0+0x15a>
   13040:	03099513          	slli	a0,s3,0x30
   13044:	9141                	srli	a0,a0,0x30
   13046:	70a2                	ld	ra,40(sp)
   13048:	7402                	ld	s0,32(sp)
   1304a:	64e2                	ld	s1,24(sp)
   1304c:	6942                	ld	s2,16(sp)
   1304e:	69a2                	ld	s3,8(sp)
   13050:	6145                	addi	sp,sp,48
   13052:	8082                	ret
   13054:	ff07f913          	andi	s2,a5,-16
   13058:	4120093b          	negw	s2,s2
   1305c:	00f9093b          	addw	s2,s2,a5
   13060:	479d                	li	a5,7
   13062:	fb27dde3          	bge	a5,s2,1301c <eshift.part.0+0x10e>
   13066:	bfb5                	j	12fe2 <eshift.part.0+0xd4>
   13068:	4985                	li	s3,1
   1306a:	03099513          	slli	a0,s3,0x30
   1306e:	9141                	srli	a0,a0,0x30
   13070:	bfd9                	j	13046 <eshift.part.0+0x138>
   13072:	854e                	mv	a0,s3
   13074:	00099563          	bnez	s3,1307e <eshift.part.0+0x170>
   13078:	1542                	slli	a0,a0,0x30
   1307a:	9141                	srli	a0,a0,0x30
   1307c:	b729                	j	12f86 <eshift.part.0+0x78>
   1307e:	4505                	li	a0,1
   13080:	bfe5                	j	13078 <eshift.part.0+0x16a>
   13082:	57e5                	li	a5,-7
   13084:	4981                	li	s3,0
   13086:	f8f5dde3          	bge	a1,a5,13020 <eshift.part.0+0x112>
   1308a:	00440693          	addi	a3,s0,4
   1308e:	bfb1                	j	12fea <eshift.part.0+0xdc>

0000000000013090 <enormlz>:
   13090:	00455783          	lhu	a5,4(a0)
   13094:	1101                	addi	sp,sp,-32
   13096:	e426                	sd	s1,8(sp)
   13098:	ec06                	sd	ra,24(sp)
   1309a:	e822                	sd	s0,16(sp)
   1309c:	e04a                	sd	s2,0(sp)
   1309e:	84aa                	mv	s1,a0
   130a0:	ebc5                	bnez	a5,13150 <enormlz+0xc0>
   130a2:	00655703          	lhu	a4,6(a0)
   130a6:	4401                	li	s0,0
   130a8:	0107179b          	slliw	a5,a4,0x10
   130ac:	4107d79b          	sraiw	a5,a5,0x10
   130b0:	02079693          	slli	a3,a5,0x20
   130b4:	0806c763          	bltz	a3,13142 <enormlz+0xb2>
   130b8:	01a50693          	addi	a3,a0,26
   130bc:	0a000613          	li	a2,160
   130c0:	e31d                	bnez	a4,130e6 <enormlz+0x56>
   130c2:	00648793          	addi	a5,s1,6
   130c6:	a019                	j	130cc <enormlz+0x3c>
   130c8:	0007d703          	lhu	a4,0(a5)
   130cc:	0789                	addi	a5,a5,2
   130ce:	fee79e23          	sh	a4,-4(a5)
   130d2:	fef69be3          	bne	a3,a5,130c8 <enormlz+0x38>
   130d6:	00049c23          	sh	zero,24(s1)
   130da:	2441                	addiw	s0,s0,16
   130dc:	06c40363          	beq	s0,a2,13142 <enormlz+0xb2>
   130e0:	0064d703          	lhu	a4,6(s1)
   130e4:	df79                	beqz	a4,130c2 <enormlz+0x32>
   130e6:	f0077793          	andi	a5,a4,-256
   130ea:	eb8d                	bnez	a5,1311c <enormlz+0x8c>
   130ec:	01848513          	addi	a0,s1,24
   130f0:	00248593          	addi	a1,s1,2
   130f4:	4781                	li	a5,0
   130f6:	872a                	mv	a4,a0
   130f8:	00075683          	lhu	a3,0(a4)
   130fc:	1779                	addi	a4,a4,-2
   130fe:	00869613          	slli	a2,a3,0x8
   13102:	8fd1                	or	a5,a5,a2
   13104:	00f71123          	sh	a5,2(a4)
   13108:	0086d793          	srli	a5,a3,0x8
   1310c:	fee596e3          	bne	a1,a4,130f8 <enormlz+0x68>
   13110:	0064d703          	lhu	a4,6(s1)
   13114:	2421                	addiw	s0,s0,8
   13116:	f0077793          	andi	a5,a4,-256
   1311a:	dfe9                	beqz	a5,130f4 <enormlz+0x64>
   1311c:	0a000913          	li	s2,160
   13120:	a801                	j	13130 <enormlz+0xa0>
   13122:	2405                	addiw	s0,s0,1
   13124:	b1bff0ef          	jal	ra,12c3e <eshup1>
   13128:	00894d63          	blt	s2,s0,13142 <enormlz+0xb2>
   1312c:	0064d703          	lhu	a4,6(s1)
   13130:	0107171b          	slliw	a4,a4,0x10
   13134:	4107571b          	sraiw	a4,a4,0x10
   13138:	02071793          	slli	a5,a4,0x20
   1313c:	8526                	mv	a0,s1
   1313e:	fe07d2e3          	bgez	a5,13122 <enormlz+0x92>
   13142:	60e2                	ld	ra,24(sp)
   13144:	8522                	mv	a0,s0
   13146:	6442                	ld	s0,16(sp)
   13148:	64a2                	ld	s1,8(sp)
   1314a:	6902                	ld	s2,0(sp)
   1314c:	6105                	addi	sp,sp,32
   1314e:	8082                	ret
   13150:	f007f713          	andi	a4,a5,-256
   13154:	4401                	li	s0,0
   13156:	e705                	bnez	a4,1317e <enormlz+0xee>
   13158:	f6f00913          	li	s2,-145
   1315c:	a801                	j	1316c <enormlz+0xdc>
   1315e:	347d                	addiw	s0,s0,-1
   13160:	a93ff0ef          	jal	ra,12bf2 <eshdn1>
   13164:	fd240fe3          	beq	s0,s2,13142 <enormlz+0xb2>
   13168:	0044d783          	lhu	a5,4(s1)
   1316c:	8526                	mv	a0,s1
   1316e:	fbe5                	bnez	a5,1315e <enormlz+0xce>
   13170:	60e2                	ld	ra,24(sp)
   13172:	8522                	mv	a0,s0
   13174:	6442                	ld	s0,16(sp)
   13176:	64a2                	ld	s1,8(sp)
   13178:	6902                	ld	s2,0(sp)
   1317a:	6105                	addi	sp,sp,32
   1317c:	8082                	ret
   1317e:	00450693          	addi	a3,a0,4
   13182:	01a50593          	addi	a1,a0,26
   13186:	4701                	li	a4,0
   13188:	a019                	j	1318e <enormlz+0xfe>
   1318a:	0006d783          	lhu	a5,0(a3)
   1318e:	0087d61b          	srliw	a2,a5,0x8
   13192:	8f51                	or	a4,a4,a2
   13194:	0087979b          	slliw	a5,a5,0x8
   13198:	00e69023          	sh	a4,0(a3)
   1319c:	03079713          	slli	a4,a5,0x30
   131a0:	0689                	addi	a3,a3,2
   131a2:	9341                	srli	a4,a4,0x30
   131a4:	feb693e3          	bne	a3,a1,1318a <enormlz+0xfa>
   131a8:	0044d783          	lhu	a5,4(s1)
   131ac:	5461                	li	s0,-8
   131ae:	b76d                	j	13158 <enormlz+0xc8>

00000000000131b0 <emdnorm>:
   131b0:	7139                	addi	sp,sp,-64
   131b2:	f822                	sd	s0,48(sp)
   131b4:	f426                	sd	s1,40(sp)
   131b6:	f04a                	sd	s2,32(sp)
   131b8:	ec4e                	sd	s3,24(sp)
   131ba:	e852                	sd	s4,16(sp)
   131bc:	e456                	sd	s5,8(sp)
   131be:	8936                	mv	s2,a3
   131c0:	84be                	mv	s1,a5
   131c2:	fc06                	sd	ra,56(sp)
   131c4:	842a                	mv	s0,a0
   131c6:	89ae                	mv	s3,a1
   131c8:	8a32                	mv	s4,a2
   131ca:	8aba                	mv	s5,a4
   131cc:	ec5ff0ef          	jal	ra,13090 <enormlz>
   131d0:	09000793          	li	a5,144
   131d4:	40a90933          	sub	s2,s2,a0
   131d8:	12a7db63          	bge	a5,a0,1330e <emdnorm+0x15e>
   131dc:	67a1                	lui	a5,0x8
   131de:	17f9                	addi	a5,a5,-2
   131e0:	1927dd63          	bge	a5,s2,1337a <emdnorm+0x1ca>
   131e4:	160a8b63          	beqz	s5,1335a <emdnorm+0x1aa>
   131e8:	40c8                	lw	a0,4(s1)
   131ea:	409c                	lw	a5,0(s1)
   131ec:	04a78e63          	beq	a5,a0,13248 <emdnorm+0x98>
   131f0:	01a48713          	addi	a4,s1,26
   131f4:	03448793          	addi	a5,s1,52
   131f8:	0709                	addi	a4,a4,2
   131fa:	fe071f23          	sh	zero,-2(a4)
   131fe:	fef71de3          	bne	a4,a5,131f8 <emdnorm+0x48>
   13202:	03800793          	li	a5,56
   13206:	28f50263          	beq	a0,a5,1348a <emdnorm+0x2da>
   1320a:	12a7d163          	bge	a5,a0,1332c <emdnorm+0x17c>
   1320e:	04000793          	li	a5,64
   13212:	24f50c63          	beq	a0,a5,1346a <emdnorm+0x2ba>
   13216:	07100793          	li	a5,113
   1321a:	28f51163          	bne	a0,a5,1349c <emdnorm+0x2ec>
   1321e:	47a9                	li	a5,10
   13220:	40008737          	lui	a4,0x40008
   13224:	177d                	addi	a4,a4,-1
   13226:	1782                	slli	a5,a5,0x20
   13228:	07a9                	addi	a5,a5,10
   1322a:	c8d8                	sw	a4,20(s1)
   1322c:	7761                	lui	a4,0xffff8
   1322e:	00e49c23          	sh	a4,24(s1)
   13232:	e49c                	sd	a5,8(s1)
   13234:	6721                	lui	a4,0x8
   13236:	47a9                	li	a5,10
   13238:	07a1                	addi	a5,a5,8
   1323a:	0786                	slli	a5,a5,0x1
   1323c:	97a6                	add	a5,a5,s1
   1323e:	00e79523          	sh	a4,10(a5) # 800a <register_fini-0x80de>
   13242:	c088                	sw	a0,0(s1)
   13244:	17205163          	blez	s2,133a6 <emdnorm+0x1f6>
   13248:	4494                	lw	a3,8(s1)
   1324a:	0144d603          	lhu	a2,20(s1)
   1324e:	08f00793          	li	a5,143
   13252:	00169713          	slli	a4,a3,0x1
   13256:	00e40833          	add	a6,s0,a4
   1325a:	00085883          	lhu	a7,0(a6) # ffffffffffff8000 <__BSS_END__+0xfffffffffffd9010>
   1325e:	00c8f5b3          	and	a1,a7,a2
   13262:	02a7ce63          	blt	a5,a0,1329e <emdnorm+0xee>
   13266:	47ad                	li	a5,11
   13268:	02d7cb63          	blt	a5,a3,1329e <emdnorm+0xee>
   1326c:	9f95                	subw	a5,a5,a3
   1326e:	1782                	slli	a5,a5,0x20
   13270:	9381                	srli	a5,a5,0x20
   13272:	97b6                	add	a5,a5,a3
   13274:	00179693          	slli	a3,a5,0x1
   13278:	0709                	addi	a4,a4,2
   1327a:	00440793          	addi	a5,s0,4
   1327e:	9722                	add	a4,a4,s0
   13280:	97b6                	add	a5,a5,a3
   13282:	00075683          	lhu	a3,0(a4) # 8000 <register_fini-0x80e8>
   13286:	c299                	beqz	a3,1328c <emdnorm+0xdc>
   13288:	0015e593          	ori	a1,a1,1
   1328c:	00071023          	sh	zero,0(a4)
   13290:	0709                	addi	a4,a4,2
   13292:	fee798e3          	bne	a5,a4,13282 <emdnorm+0xd2>
   13296:	00085883          	lhu	a7,0(a6)
   1329a:	0144d603          	lhu	a2,20(s1)
   1329e:	fff64613          	not	a2,a2
   132a2:	01167633          	and	a2,a2,a7
   132a6:	00c81023          	sh	a2,0(a6)
   132aa:	0164d783          	lhu	a5,22(s1)
   132ae:	00b7f733          	and	a4,a5,a1
   132b2:	cb05                	beqz	a4,132e2 <emdnorm+0x132>
   132b4:	12b78f63          	beq	a5,a1,133f2 <emdnorm+0x242>
   132b8:	03248613          	addi	a2,s1,50
   132bc:	01840693          	addi	a3,s0,24
   132c0:	04f1                	addi	s1,s1,28
   132c2:	4701                	li	a4,0
   132c4:	00065783          	lhu	a5,0(a2)
   132c8:	0006d583          	lhu	a1,0(a3)
   132cc:	16f9                	addi	a3,a3,-2
   132ce:	1679                	addi	a2,a2,-2
   132d0:	97ae                	add	a5,a5,a1
   132d2:	97ba                	add	a5,a5,a4
   132d4:	0107d713          	srli	a4,a5,0x10
   132d8:	00f69123          	sh	a5,2(a3)
   132dc:	8b05                	andi	a4,a4,1
   132de:	fe9613e3          	bne	a2,s1,132c4 <emdnorm+0x114>
   132e2:	13205663          	blez	s2,1340e <emdnorm+0x25e>
   132e6:	00445783          	lhu	a5,4(s0)
   132ea:	e7ed                	bnez	a5,133d4 <emdnorm+0x224>
   132ec:	67a1                	lui	a5,0x8
   132ee:	00041c23          	sh	zero,24(s0)
   132f2:	17f9                	addi	a5,a5,-2
   132f4:	0727c563          	blt	a5,s2,1335e <emdnorm+0x1ae>
   132f8:	01241123          	sh	s2,2(s0)
   132fc:	70e2                	ld	ra,56(sp)
   132fe:	7442                	ld	s0,48(sp)
   13300:	74a2                	ld	s1,40(sp)
   13302:	7902                	ld	s2,32(sp)
   13304:	69e2                	ld	s3,24(sp)
   13306:	6a42                	ld	s4,16(sp)
   13308:	6aa2                	ld	s5,8(sp)
   1330a:	6121                	addi	sp,sp,64
   1330c:	8082                	ret
   1330e:	0a095a63          	bgez	s2,133c2 <emdnorm+0x212>
   13312:	f7000793          	li	a5,-144
   13316:	06f95b63          	bge	s2,a5,1338c <emdnorm+0x1dc>
   1331a:	00240793          	addi	a5,s0,2
   1331e:	0469                	addi	s0,s0,26
   13320:	0789                	addi	a5,a5,2
   13322:	fe079f23          	sh	zero,-2(a5) # 7ffe <register_fini-0x80ea>
   13326:	fe879de3          	bne	a5,s0,13320 <emdnorm+0x170>
   1332a:	bfc9                	j	132fc <emdnorm+0x14c>
   1332c:	47e1                	li	a5,24
   1332e:	10f50f63          	beq	a0,a5,1344c <emdnorm+0x29c>
   13332:	03500793          	li	a5,53
   13336:	16f51363          	bne	a0,a5,1349c <emdnorm+0x2ec>
   1333a:	040006b7          	lui	a3,0x4000
   1333e:	6705                	lui	a4,0x1
   13340:	7ff68693          	addi	a3,a3,2047 # 40007ff <__BSS_END__+0x3fe180f>
   13344:	4799                	li	a5,6
   13346:	80070713          	addi	a4,a4,-2048 # 800 <register_fini-0xf8e8>
   1334a:	c8d4                	sw	a3,20(s1)
   1334c:	1782                	slli	a5,a5,0x20
   1334e:	0799                	addi	a5,a5,6
   13350:	e49c                	sd	a5,8(s1)
   13352:	00e49c23          	sh	a4,24(s1)
   13356:	4799                	li	a5,6
   13358:	b5c5                	j	13238 <emdnorm+0x88>
   1335a:	00041c23          	sh	zero,24(s0)
   1335e:	77e1                	lui	a5,0xffff8
   13360:	fff7c793          	not	a5,a5
   13364:	00f41123          	sh	a5,2(s0)
   13368:	00440793          	addi	a5,s0,4
   1336c:	0461                	addi	s0,s0,24
   1336e:	00079023          	sh	zero,0(a5) # ffffffffffff8000 <__BSS_END__+0xfffffffffffd9010>
   13372:	0789                	addi	a5,a5,2
   13374:	fef41de3          	bne	s0,a5,1336e <emdnorm+0x1be>
   13378:	b751                	j	132fc <emdnorm+0x14c>
   1337a:	00240793          	addi	a5,s0,2
   1337e:	0469                	addi	s0,s0,26
   13380:	0789                	addi	a5,a5,2
   13382:	fe079f23          	sh	zero,-2(a5)
   13386:	fe879de3          	bne	a5,s0,13380 <emdnorm+0x1d0>
   1338a:	bf8d                	j	132fc <emdnorm+0x14c>
   1338c:	0009059b          	sext.w	a1,s2
   13390:	8522                	mv	a0,s0
   13392:	b7dff0ef          	jal	ra,12f0e <eshift.part.0>
   13396:	c111                	beqz	a0,1339a <emdnorm+0x1ea>
   13398:	4985                	li	s3,1
   1339a:	0a0a8463          	beqz	s5,13442 <emdnorm+0x292>
   1339e:	40c8                	lw	a0,4(s1)
   133a0:	409c                	lw	a5,0(s1)
   133a2:	e4a797e3          	bne	a5,a0,131f0 <emdnorm+0x40>
   133a6:	09000793          	li	a5,144
   133aa:	08f50163          	beq	a0,a5,1342c <emdnorm+0x27c>
   133ae:	01845783          	lhu	a5,24(s0)
   133b2:	8522                	mv	a0,s0
   133b4:	8b85                	andi	a5,a5,1
   133b6:	0137e9b3          	or	s3,a5,s3
   133ba:	839ff0ef          	jal	ra,12bf2 <eshdn1>
   133be:	40c8                	lw	a0,4(s1)
   133c0:	b561                	j	13248 <emdnorm+0x98>
   133c2:	f20a85e3          	beqz	s5,132ec <emdnorm+0x13c>
   133c6:	40c8                	lw	a0,4(s1)
   133c8:	409c                	lw	a5,0(s1)
   133ca:	e2a793e3          	bne	a5,a0,131f0 <emdnorm+0x40>
   133ce:	e7204de3          	bgtz	s2,13248 <emdnorm+0x98>
   133d2:	bfd1                	j	133a6 <emdnorm+0x1f6>
   133d4:	8522                	mv	a0,s0
   133d6:	81dff0ef          	jal	ra,12bf2 <eshdn1>
   133da:	67a1                	lui	a5,0x8
   133dc:	0905                	addi	s2,s2,1
   133de:	00041c23          	sh	zero,24(s0)
   133e2:	17f9                	addi	a5,a5,-2
   133e4:	f727cde3          	blt	a5,s2,1335e <emdnorm+0x1ae>
   133e8:	f00958e3          	bgez	s2,132f8 <emdnorm+0x148>
   133ec:	00041123          	sh	zero,2(s0)
   133f0:	b731                	j	132fc <emdnorm+0x14c>
   133f2:	08099963          	bnez	s3,13484 <emdnorm+0x2d4>
   133f6:	44dc                	lw	a5,12(s1)
   133f8:	0184d703          	lhu	a4,24(s1)
   133fc:	0786                	slli	a5,a5,0x1
   133fe:	97a2                	add	a5,a5,s0
   13400:	0007d783          	lhu	a5,0(a5) # 8000 <register_fini-0x80e8>
   13404:	8ff9                	and	a5,a5,a4
   13406:	ea0799e3          	bnez	a5,132b8 <emdnorm+0x108>
   1340a:	ed204ee3          	bgtz	s2,132e6 <emdnorm+0x136>
   1340e:	09000793          	li	a5,144
   13412:	00f50563          	beq	a0,a5,1341c <emdnorm+0x26c>
   13416:	8522                	mv	a0,s0
   13418:	827ff0ef          	jal	ra,12c3e <eshup1>
   1341c:	00445783          	lhu	a5,4(s0)
   13420:	fbd5                	bnez	a5,133d4 <emdnorm+0x224>
   13422:	00041c23          	sh	zero,24(s0)
   13426:	fc0943e3          	bltz	s2,133ec <emdnorm+0x23c>
   1342a:	b5f9                	j	132f8 <emdnorm+0x148>
   1342c:	0084a803          	lw	a6,8(s1)
   13430:	0144d603          	lhu	a2,20(s1)
   13434:	0806                	slli	a6,a6,0x1
   13436:	9822                	add	a6,a6,s0
   13438:	00085883          	lhu	a7,0(a6)
   1343c:	011675b3          	and	a1,a2,a7
   13440:	bdb9                	j	1329e <emdnorm+0xee>
   13442:	00041c23          	sh	zero,24(s0)
   13446:	00041123          	sh	zero,2(s0)
   1344a:	bd4d                	j	132fc <emdnorm+0x14c>
   1344c:	4791                	li	a5,4
   1344e:	00800737          	lui	a4,0x800
   13452:	0ff70713          	addi	a4,a4,255 # 8000ff <__BSS_END__+0x7e110f>
   13456:	1782                	slli	a5,a5,0x20
   13458:	0791                	addi	a5,a5,4
   1345a:	c8d8                	sw	a4,20(s1)
   1345c:	10000713          	li	a4,256
   13460:	e49c                	sd	a5,8(s1)
   13462:	00e49c23          	sh	a4,24(s1)
   13466:	4791                	li	a5,4
   13468:	bbc1                	j	13238 <emdnorm+0x88>
   1346a:	478d                	li	a5,3
   1346c:	80010737          	lui	a4,0x80010
   13470:	177d                	addi	a4,a4,-1
   13472:	1786                	slli	a5,a5,0x21
   13474:	079d                	addi	a5,a5,7
   13476:	c8d8                	sw	a4,20(s1)
   13478:	4705                	li	a4,1
   1347a:	e49c                	sd	a5,8(s1)
   1347c:	00e49c23          	sh	a4,24(s1)
   13480:	4799                	li	a5,6
   13482:	bb5d                	j	13238 <emdnorm+0x88>
   13484:	e20a0ae3          	beqz	s4,132b8 <emdnorm+0x108>
   13488:	bda9                	j	132e2 <emdnorm+0x132>
   1348a:	00800737          	lui	a4,0x800
   1348e:	0ff70713          	addi	a4,a4,255 # 8000ff <__BSS_END__+0x7e110f>
   13492:	c8d8                	sw	a4,20(s1)
   13494:	4799                	li	a5,6
   13496:	10000713          	li	a4,256
   1349a:	bd4d                	j	1334c <emdnorm+0x19c>
   1349c:	47ad                	li	a5,11
   1349e:	80010737          	lui	a4,0x80010
   134a2:	177d                	addi	a4,a4,-1
   134a4:	1782                	slli	a5,a5,0x20
   134a6:	07b1                	addi	a5,a5,12
   134a8:	c8d8                	sw	a4,20(s1)
   134aa:	4705                	li	a4,1
   134ac:	e49c                	sd	a5,8(s1)
   134ae:	00e49c23          	sh	a4,24(s1)
   134b2:	47ad                	li	a5,11
   134b4:	b351                	j	13238 <emdnorm+0x88>

00000000000134b6 <eiremain>:
   134b6:	711d                	addi	sp,sp,-96
   134b8:	e4a6                	sd	s1,72(sp)
   134ba:	fc4e                	sd	s3,56(sp)
   134bc:	84ae                	mv	s1,a1
   134be:	00255983          	lhu	s3,2(a0)
   134c2:	ec86                	sd	ra,88(sp)
   134c4:	e8a2                	sd	s0,80(sp)
   134c6:	e0ca                	sd	s2,64(sp)
   134c8:	f852                	sd	s4,48(sp)
   134ca:	8932                	mv	s2,a2
   134cc:	f456                	sd	s5,40(sp)
   134ce:	f05a                	sd	s6,32(sp)
   134d0:	ec5e                	sd	s7,24(sp)
   134d2:	e862                	sd	s8,16(sp)
   134d4:	e466                	sd	s9,8(sp)
   134d6:	e06a                	sd	s10,0(sp)
   134d8:	8a2a                	mv	s4,a0
   134da:	bb7ff0ef          	jal	ra,13090 <enormlz>
   134de:	0024d403          	lhu	s0,2(s1)
   134e2:	87aa                	mv	a5,a0
   134e4:	8526                	mv	a0,s1
   134e6:	40f989b3          	sub	s3,s3,a5
   134ea:	03490a93          	addi	s5,s2,52
   134ee:	ba3ff0ef          	jal	ra,13090 <enormlz>
   134f2:	8c09                	sub	s0,s0,a0
   134f4:	04e90713          	addi	a4,s2,78
   134f8:	87d6                	mv	a5,s5
   134fa:	0789                	addi	a5,a5,2
   134fc:	fe079f23          	sh	zero,-2(a5)
   13500:	fee79de3          	bne	a5,a4,134fa <eiremain+0x44>
   13504:	07344b63          	blt	s0,s3,1357a <eiremain+0xc4>
   13508:	004a0b93          	addi	s7,s4,4
   1350c:	00448b13          	addi	s6,s1,4
   13510:	19fd                	addi	s3,s3,-1
   13512:	01aa0c93          	addi	s9,s4,26
   13516:	00248c13          	addi	s8,s1,2
   1351a:	875a                	mv	a4,s6
   1351c:	87de                	mv	a5,s7
   1351e:	0007d603          	lhu	a2,0(a5)
   13522:	00075683          	lhu	a3,0(a4) # ffffffff80010000 <__BSS_END__+0xffffffff7fff1010>
   13526:	0789                	addi	a5,a5,2
   13528:	0709                	addi	a4,a4,2
   1352a:	06d61c63          	bne	a2,a3,135a2 <eiremain+0xec>
   1352e:	fefc98e3          	bne	s9,a5,1351e <eiremain+0x68>
   13532:	018a0613          	addi	a2,s4,24
   13536:	01848713          	addi	a4,s1,24
   1353a:	4681                	li	a3,0
   1353c:	00075783          	lhu	a5,0(a4)
   13540:	00065583          	lhu	a1,0(a2)
   13544:	1779                	addi	a4,a4,-2
   13546:	8f95                	sub	a5,a5,a3
   13548:	8f8d                	sub	a5,a5,a1
   1354a:	0107d693          	srli	a3,a5,0x10
   1354e:	00f71123          	sh	a5,2(a4)
   13552:	8a85                	andi	a3,a3,1
   13554:	1679                	addi	a2,a2,-2
   13556:	feec13e3          	bne	s8,a4,1353c <eiremain+0x86>
   1355a:	4d05                	li	s10,1
   1355c:	8556                	mv	a0,s5
   1355e:	ee0ff0ef          	jal	ra,12c3e <eshup1>
   13562:	04c95783          	lhu	a5,76(s2)
   13566:	147d                	addi	s0,s0,-1
   13568:	8526                	mv	a0,s1
   1356a:	00fd6d33          	or	s10,s10,a5
   1356e:	05a91623          	sh	s10,76(s2)
   13572:	eccff0ef          	jal	ra,12c3e <eshup1>
   13576:	fb3412e3          	bne	s0,s3,1351a <eiremain+0x64>
   1357a:	86a2                	mv	a3,s0
   1357c:	6446                	ld	s0,80(sp)
   1357e:	60e6                	ld	ra,88(sp)
   13580:	79e2                	ld	s3,56(sp)
   13582:	7a42                	ld	s4,48(sp)
   13584:	7aa2                	ld	s5,40(sp)
   13586:	7b02                	ld	s6,32(sp)
   13588:	6be2                	ld	s7,24(sp)
   1358a:	6c42                	ld	s8,16(sp)
   1358c:	6ca2                	ld	s9,8(sp)
   1358e:	6d02                	ld	s10,0(sp)
   13590:	87ca                	mv	a5,s2
   13592:	8526                	mv	a0,s1
   13594:	6906                	ld	s2,64(sp)
   13596:	64a6                	ld	s1,72(sp)
   13598:	4701                	li	a4,0
   1359a:	4601                	li	a2,0
   1359c:	4581                	li	a1,0
   1359e:	6125                	addi	sp,sp,96
   135a0:	b901                	j	131b0 <emdnorm>
   135a2:	4d01                	li	s10,0
   135a4:	fac6ece3          	bltu	a3,a2,1355c <eiremain+0xa6>
   135a8:	b769                	j	13532 <eiremain+0x7c>

00000000000135aa <emovo.isra.0>:
   135aa:	00055703          	lhu	a4,0(a0)
   135ae:	00255783          	lhu	a5,2(a0)
   135b2:	c319                	beqz	a4,135b8 <emovo.isra.0+0xe>
   135b4:	6721                	lui	a4,0x8
   135b6:	8fd9                	or	a5,a5,a4
   135b8:	00f59923          	sh	a5,18(a1)
   135bc:	00255703          	lhu	a4,2(a0)
   135c0:	67a1                	lui	a5,0x8
   135c2:	17fd                	addi	a5,a5,-1
   135c4:	00f70f63          	beq	a4,a5,135e2 <emovo.isra.0+0x38>
   135c8:	00650793          	addi	a5,a0,6
   135cc:	05c1                	addi	a1,a1,16
   135ce:	0561                	addi	a0,a0,24
   135d0:	0007d703          	lhu	a4,0(a5) # 8000 <register_fini-0x80e8>
   135d4:	0789                	addi	a5,a5,2
   135d6:	15f9                	addi	a1,a1,-2
   135d8:	00e59123          	sh	a4,2(a1)
   135dc:	fea79ae3          	bne	a5,a0,135d0 <emovo.isra.0+0x26>
   135e0:	8082                	ret
   135e2:	00650793          	addi	a5,a0,6
   135e6:	0569                	addi	a0,a0,26
   135e8:	0007d703          	lhu	a4,0(a5)
   135ec:	0789                	addi	a5,a5,2
   135ee:	e31d                	bnez	a4,13614 <emovo.isra.0+0x6a>
   135f0:	fea79ce3          	bne	a5,a0,135e8 <emovo.isra.0+0x3e>
   135f4:	01258713          	addi	a4,a1,18
   135f8:	87ae                	mv	a5,a1
   135fa:	0789                	addi	a5,a5,2
   135fc:	fe079f23          	sh	zero,-2(a5)
   13600:	fef71de3          	bne	a4,a5,135fa <emovo.isra.0+0x50>
   13604:	0125d783          	lhu	a5,18(a1)
   13608:	6721                	lui	a4,0x8
   1360a:	177d                	addi	a4,a4,-1
   1360c:	8fd9                	or	a5,a5,a4
   1360e:	00f59923          	sh	a5,18(a1)
   13612:	8082                	ret
   13614:	01058713          	addi	a4,a1,16
   13618:	87ae                	mv	a5,a1
   1361a:	0789                	addi	a5,a5,2
   1361c:	fe079f23          	sh	zero,-2(a5)
   13620:	fef71de3          	bne	a4,a5,1361a <emovo.isra.0+0x70>
   13624:	7fffc7b7          	lui	a5,0x7fffc
   13628:	c99c                	sw	a5,16(a1)
   1362a:	8082                	ret

000000000001362c <emul>:
   1362c:	7131                	addi	sp,sp,-192
   1362e:	e15a                	sd	s6,128(sp)
   13630:	01255b03          	lhu	s6,18(a0)
   13634:	67a1                	lui	a5,0x8
   13636:	17fd                	addi	a5,a5,-1
   13638:	e952                	sd	s4,144(sp)
   1363a:	0167fa33          	and	s4,a5,s6
   1363e:	1a42                	slli	s4,s4,0x30
   13640:	f922                	sd	s0,176(sp)
   13642:	f526                	sd	s1,168(sp)
   13644:	f14a                	sd	s2,160(sp)
   13646:	ed4e                	sd	s3,152(sp)
   13648:	fd06                	sd	ra,184(sp)
   1364a:	e556                	sd	s5,136(sp)
   1364c:	fcde                	sd	s7,120(sp)
   1364e:	f8e2                	sd	s8,112(sp)
   13650:	f4e6                	sd	s9,104(sp)
   13652:	030a5a13          	srli	s4,s4,0x30
   13656:	84aa                	mv	s1,a0
   13658:	892e                	mv	s2,a1
   1365a:	8432                	mv	s0,a2
   1365c:	89b6                	mv	s3,a3
   1365e:	0cfa1163          	bne	s4,a5,13720 <emul+0xf4>
   13662:	eaaff0ef          	jal	ra,12d0c <eisnan.part.0>
   13666:	1e051963          	bnez	a0,13858 <emul+0x22c>
   1366a:	01295a83          	lhu	s5,18(s2)
   1366e:	015a77b3          	and	a5,s4,s5
   13672:	1f478e63          	beq	a5,s4,1386e <emul+0x242>
   13676:	8526                	mv	a0,s1
   13678:	885ff0ef          	jal	ra,12efc <eisinf.part.0>
   1367c:	22050d63          	beqz	a0,138b6 <emul+0x28a>
   13680:	65f1                	lui	a1,0x1c
   13682:	34858593          	addi	a1,a1,840 # 1c348 <ezero>
   13686:	854a                	mv	a0,s2
   13688:	facff0ef          	jal	ra,12e34 <ecmp>
   1368c:	28050a63          	beqz	a0,13920 <emul+0x2f4>
   13690:	01295a83          	lhu	s5,18(s2)
   13694:	67a1                	lui	a5,0x8
   13696:	17fd                	addi	a5,a5,-1
   13698:	0157fab3          	and	s5,a5,s5
   1369c:	1ac2                	slli	s5,s5,0x30
   1369e:	030ada93          	srli	s5,s5,0x30
   136a2:	20fa9863          	bne	s5,a5,138b2 <emul+0x286>
   136a6:	854a                	mv	a0,s2
   136a8:	855ff0ef          	jal	ra,12efc <eisinf.part.0>
   136ac:	24051c63          	bnez	a0,13904 <emul+0x2d8>
   136b0:	0124d783          	lhu	a5,18(s1)
   136b4:	00faf7b3          	and	a5,s5,a5
   136b8:	07579c63          	bne	a5,s5,13730 <emul+0x104>
   136bc:	8526                	mv	a0,s1
   136be:	83fff0ef          	jal	ra,12efc <eisinf.part.0>
   136c2:	e509                	bnez	a0,136cc <emul+0xa0>
   136c4:	854a                	mv	a0,s2
   136c6:	837ff0ef          	jal	ra,12efc <eisinf.part.0>
   136ca:	c13d                	beqz	a0,13730 <emul+0x104>
   136cc:	8526                	mv	a0,s1
   136ce:	e86ff0ef          	jal	ra,12d54 <eisneg>
   136d2:	84aa                	mv	s1,a0
   136d4:	854a                	mv	a0,s2
   136d6:	e7eff0ef          	jal	ra,12d54 <eisneg>
   136da:	40a48533          	sub	a0,s1,a0
   136de:	00a03533          	snez	a0,a0
   136e2:	053e                	slli	a0,a0,0xf
   136e4:	00a41923          	sh	a0,18(s0)
   136e8:	01240713          	addi	a4,s0,18
   136ec:	87a2                	mv	a5,s0
   136ee:	0789                	addi	a5,a5,2
   136f0:	fe079f23          	sh	zero,-2(a5) # 7ffe <register_fini-0x80ea>
   136f4:	fef71de3          	bne	a4,a5,136ee <emul+0xc2>
   136f8:	01245783          	lhu	a5,18(s0)
   136fc:	6721                	lui	a4,0x8
   136fe:	177d                	addi	a4,a4,-1
   13700:	8fd9                	or	a5,a5,a4
   13702:	00f41923          	sh	a5,18(s0)
   13706:	70ea                	ld	ra,184(sp)
   13708:	744a                	ld	s0,176(sp)
   1370a:	74aa                	ld	s1,168(sp)
   1370c:	790a                	ld	s2,160(sp)
   1370e:	69ea                	ld	s3,152(sp)
   13710:	6a4a                	ld	s4,144(sp)
   13712:	6aaa                	ld	s5,136(sp)
   13714:	6b0a                	ld	s6,128(sp)
   13716:	7be6                	ld	s7,120(sp)
   13718:	7c46                	ld	s8,112(sp)
   1371a:	7ca6                	ld	s9,104(sp)
   1371c:	6129                	addi	sp,sp,192
   1371e:	8082                	ret
   13720:	0125da83          	lhu	s5,18(a1)
   13724:	0157f733          	and	a4,a5,s5
   13728:	1742                	slli	a4,a4,0x30
   1372a:	9341                	srli	a4,a4,0x30
   1372c:	02f70f63          	beq	a4,a5,1376a <emul+0x13e>
   13730:	8526                	mv	a0,s1
   13732:	858a                	mv	a1,sp
   13734:	e4aff0ef          	jal	ra,12d7e <emovi>
   13738:	854a                	mv	a0,s2
   1373a:	100c                	addi	a1,sp,32
   1373c:	e42ff0ef          	jal	ra,12d7e <emovi>
   13740:	00215483          	lhu	s1,2(sp)
   13744:	02215903          	lhu	s2,34(sp)
   13748:	e0a1                	bnez	s1,13788 <emul+0x15c>
   1374a:	005c                	addi	a5,sp,4
   1374c:	0834                	addi	a3,sp,24
   1374e:	18f68b63          	beq	a3,a5,138e4 <emul+0x2b8>
   13752:	0007d703          	lhu	a4,0(a5)
   13756:	0789                	addi	a5,a5,2
   13758:	db7d                	beqz	a4,1374e <emul+0x122>
   1375a:	850a                	mv	a0,sp
   1375c:	935ff0ef          	jal	ra,13090 <enormlz>
   13760:	02215703          	lhu	a4,34(sp)
   13764:	40a004b3          	neg	s1,a0
   13768:	a00d                	j	1378a <emul+0x15e>
   1376a:	852e                	mv	a0,a1
   1376c:	da0ff0ef          	jal	ra,12d0c <eisnan.part.0>
   13770:	d115                	beqz	a0,13694 <emul+0x68>
   13772:	01490713          	addi	a4,s2,20
   13776:	00095783          	lhu	a5,0(s2)
   1377a:	0909                	addi	s2,s2,2
   1377c:	0409                	addi	s0,s0,2
   1377e:	fef41f23          	sh	a5,-2(s0)
   13782:	fee91ae3          	bne	s2,a4,13776 <emul+0x14a>
   13786:	b741                	j	13706 <emul+0xda>
   13788:	874a                	mv	a4,s2
   1378a:	8aca                	mv	s5,s2
   1378c:	105c                	addi	a5,sp,36
   1378e:	1834                	addi	a3,sp,56
   13790:	ef11                	bnez	a4,137ac <emul+0x180>
   13792:	16f68163          	beq	a3,a5,138f4 <emul+0x2c8>
   13796:	0007d703          	lhu	a4,0(a5)
   1379a:	0789                	addi	a5,a5,2
   1379c:	db7d                	beqz	a4,13792 <emul+0x166>
   1379e:	1008                	addi	a0,sp,32
   137a0:	8f1ff0ef          	jal	ra,13090 <enormlz>
   137a4:	02215703          	lhu	a4,34(sp)
   137a8:	40a90ab3          	sub	s5,s2,a0
   137ac:	02015783          	lhu	a5,32(sp)
   137b0:	03898c13          	addi	s8,s3,56
   137b4:	02e99b23          	sh	a4,54(s3)
   137b8:	02f99a23          	sh	a5,52(s3)
   137bc:	04e98713          	addi	a4,s3,78
   137c0:	87e2                	mv	a5,s8
   137c2:	00079023          	sh	zero,0(a5)
   137c6:	0789                	addi	a5,a5,2
   137c8:	fef71de3          	bne	a4,a5,137c2 <emul+0x196>
   137cc:	04c98a13          	addi	s4,s3,76
   137d0:	4b81                	li	s7,0
   137d2:	01810913          	addi	s2,sp,24
   137d6:	00410c93          	addi	s9,sp,4
   137da:	04210b13          	addi	s6,sp,66
   137de:	00095503          	lhu	a0,0(s2)
   137e2:	1979                	addi	s2,s2,-2
   137e4:	e145                	bnez	a0,13884 <emul+0x258>
   137e6:	04c9d703          	lhu	a4,76(s3)
   137ea:	87d2                	mv	a5,s4
   137ec:	00ebebb3          	or	s7,s7,a4
   137f0:	ffe7d703          	lhu	a4,-2(a5)
   137f4:	17f9                	addi	a5,a5,-2
   137f6:	00e79123          	sh	a4,2(a5)
   137fa:	ff879be3          	bne	a5,s8,137f0 <emul+0x1c4>
   137fe:	02099c23          	sh	zero,56(s3)
   13802:	fd991ee3          	bne	s2,s9,137de <emul+0x1b2>
   13806:	03498713          	addi	a4,s3,52
   1380a:	101c                	addi	a5,sp,32
   1380c:	03a10593          	addi	a1,sp,58
   13810:	00075603          	lhu	a2,0(a4) # 8000 <register_fini-0x80e8>
   13814:	0789                	addi	a5,a5,2
   13816:	0709                	addi	a4,a4,2
   13818:	fec79f23          	sh	a2,-2(a5)
   1381c:	fef59ae3          	bne	a1,a5,13810 <emul+0x1e4>
   13820:	76f1                	lui	a3,0xffffc
   13822:	94d6                	add	s1,s1,s5
   13824:	0689                	addi	a3,a3,2
   13826:	85de                	mv	a1,s7
   13828:	1008                	addi	a0,sp,32
   1382a:	87ce                	mv	a5,s3
   1382c:	04000713          	li	a4,64
   13830:	96a6                	add	a3,a3,s1
   13832:	4601                	li	a2,0
   13834:	97dff0ef          	jal	ra,131b0 <emdnorm>
   13838:	02015703          	lhu	a4,32(sp)
   1383c:	00015783          	lhu	a5,0(sp)
   13840:	85a2                	mv	a1,s0
   13842:	1008                	addi	a0,sp,32
   13844:	8f99                	sub	a5,a5,a4
   13846:	00f037b3          	snez	a5,a5
   1384a:	40f007bb          	negw	a5,a5
   1384e:	02f11023          	sh	a5,32(sp)
   13852:	d59ff0ef          	jal	ra,135aa <emovo.isra.0>
   13856:	bd45                	j	13706 <emul+0xda>
   13858:	01448713          	addi	a4,s1,20
   1385c:	0004d783          	lhu	a5,0(s1)
   13860:	0489                	addi	s1,s1,2
   13862:	0409                	addi	s0,s0,2
   13864:	fef41f23          	sh	a5,-2(s0)
   13868:	fee49ae3          	bne	s1,a4,1385c <emul+0x230>
   1386c:	bd69                	j	13706 <emul+0xda>
   1386e:	854a                	mv	a0,s2
   13870:	c9cff0ef          	jal	ra,12d0c <eisnan.part.0>
   13874:	ee051fe3          	bnez	a0,13772 <emul+0x146>
   13878:	8526                	mv	a0,s1
   1387a:	e82ff0ef          	jal	ra,12efc <eisinf.part.0>
   1387e:	e0050be3          	beqz	a0,13694 <emul+0x68>
   13882:	bbfd                	j	13680 <emul+0x54>
   13884:	0090                	addi	a2,sp,64
   13886:	100c                	addi	a1,sp,32
   13888:	c10ff0ef          	jal	ra,12c98 <m16m>
   1388c:	85d2                	mv	a1,s4
   1388e:	4601                	li	a2,0
   13890:	08b8                	addi	a4,sp,88
   13892:	0005d803          	lhu	a6,0(a1)
   13896:	00075783          	lhu	a5,0(a4)
   1389a:	15f9                	addi	a1,a1,-2
   1389c:	1779                	addi	a4,a4,-2
   1389e:	97c2                	add	a5,a5,a6
   138a0:	97b2                	add	a5,a5,a2
   138a2:	0107d613          	srli	a2,a5,0x10
   138a6:	00f59123          	sh	a5,2(a1)
   138aa:	8a05                	andi	a2,a2,1
   138ac:	ff6713e3          	bne	a4,s6,13892 <emul+0x266>
   138b0:	bf1d                	j	137e6 <emul+0x1ba>
   138b2:	0124db03          	lhu	s6,18(s1)
   138b6:	67a1                	lui	a5,0x8
   138b8:	17fd                	addi	a5,a5,-1
   138ba:	0167fb33          	and	s6,a5,s6
   138be:	1b42                	slli	s6,s6,0x30
   138c0:	030b5b13          	srli	s6,s6,0x30
   138c4:	e6fb16e3          	bne	s6,a5,13730 <emul+0x104>
   138c8:	8526                	mv	a0,s1
   138ca:	e32ff0ef          	jal	ra,12efc <eisinf.part.0>
   138ce:	de051fe3          	bnez	a0,136cc <emul+0xa0>
   138d2:	01295783          	lhu	a5,18(s2)
   138d6:	fff7c793          	not	a5,a5
   138da:	03179713          	slli	a4,a5,0x31
   138de:	e40719e3          	bnez	a4,13730 <emul+0x104>
   138e2:	b3cd                	j	136c4 <emul+0x98>
   138e4:	01440793          	addi	a5,s0,20
   138e8:	0409                	addi	s0,s0,2
   138ea:	fe041f23          	sh	zero,-2(s0)
   138ee:	fef41de3          	bne	s0,a5,138e8 <emul+0x2bc>
   138f2:	bd11                	j	13706 <emul+0xda>
   138f4:	01440793          	addi	a5,s0,20
   138f8:	0409                	addi	s0,s0,2
   138fa:	fe041f23          	sh	zero,-2(s0)
   138fe:	fef41de3          	bne	s0,a5,138f8 <emul+0x2cc>
   13902:	b511                	j	13706 <emul+0xda>
   13904:	65f1                	lui	a1,0x1c
   13906:	34858593          	addi	a1,a1,840 # 1c348 <ezero>
   1390a:	8526                	mv	a0,s1
   1390c:	d28ff0ef          	jal	ra,12e34 <ecmp>
   13910:	c901                	beqz	a0,13920 <emul+0x2f4>
   13912:	0124d783          	lhu	a5,18(s1)
   13916:	00faf7b3          	and	a5,s5,a5
   1391a:	fb5787e3          	beq	a5,s5,138c8 <emul+0x29c>
   1391e:	bf55                	j	138d2 <emul+0x2a6>
   13920:	01040713          	addi	a4,s0,16
   13924:	87a2                	mv	a5,s0
   13926:	0789                	addi	a5,a5,2
   13928:	fe079f23          	sh	zero,-2(a5) # 7ffe <register_fini-0x80ea>
   1392c:	fee79de3          	bne	a5,a4,13926 <emul+0x2fa>
   13930:	7fffc7b7          	lui	a5,0x7fffc
   13934:	c81c                	sw	a5,16(s0)
   13936:	bbc1                	j	13706 <emul+0xda>

0000000000013938 <ediv>:
   13938:	01255783          	lhu	a5,18(a0)
   1393c:	7115                	addi	sp,sp,-224
   1393e:	e9a2                	sd	s0,208(sp)
   13940:	fff7c793          	not	a5,a5
   13944:	e5a6                	sd	s1,200(sp)
   13946:	e1ca                	sd	s2,192(sp)
   13948:	fd4e                	sd	s3,184(sp)
   1394a:	ed86                	sd	ra,216(sp)
   1394c:	f952                	sd	s4,176(sp)
   1394e:	f556                	sd	s5,168(sp)
   13950:	f15a                	sd	s6,160(sp)
   13952:	ed5e                	sd	s7,152(sp)
   13954:	e962                	sd	s8,144(sp)
   13956:	e566                	sd	s9,136(sp)
   13958:	e16a                	sd	s10,128(sp)
   1395a:	fcee                	sd	s11,120(sp)
   1395c:	03179713          	slli	a4,a5,0x31
   13960:	892a                	mv	s2,a0
   13962:	89ae                	mv	s3,a1
   13964:	8432                	mv	s0,a2
   13966:	84b6                	mv	s1,a3
   13968:	e709                	bnez	a4,13972 <ediv+0x3a>
   1396a:	ba2ff0ef          	jal	ra,12d0c <eisnan.part.0>
   1396e:	2a051163          	bnez	a0,13c10 <ediv+0x2d8>
   13972:	0129d783          	lhu	a5,18(s3)
   13976:	fff7c793          	not	a5,a5
   1397a:	03179713          	slli	a4,a5,0x31
   1397e:	c725                	beqz	a4,139e6 <ediv+0xae>
   13980:	6a71                	lui	s4,0x1c
   13982:	348a0593          	addi	a1,s4,840 # 1c348 <ezero>
   13986:	854a                	mv	a0,s2
   13988:	cacff0ef          	jal	ra,12e34 <ecmp>
   1398c:	cd55                	beqz	a0,13a48 <ediv+0x110>
   1398e:	01295a03          	lhu	s4,18(s2)
   13992:	0129d703          	lhu	a4,18(s3)
   13996:	67a1                	lui	a5,0x8
   13998:	17fd                	addi	a5,a5,-1
   1399a:	0147fa33          	and	s4,a5,s4
   1399e:	00e7fab3          	and	s5,a5,a4
   139a2:	06fa1163          	bne	s4,a5,13a04 <ediv+0xcc>
   139a6:	854a                	mv	a0,s2
   139a8:	d54ff0ef          	jal	ra,12efc <eisinf.part.0>
   139ac:	c161                	beqz	a0,13a6c <ediv+0x134>
   139ae:	014a9663          	bne	s5,s4,139ba <ediv+0x82>
   139b2:	854e                	mv	a0,s3
   139b4:	d48ff0ef          	jal	ra,12efc <eisinf.part.0>
   139b8:	ed51                	bnez	a0,13a54 <ediv+0x11c>
   139ba:	01440793          	addi	a5,s0,20
   139be:	0409                	addi	s0,s0,2
   139c0:	fe041f23          	sh	zero,-2(s0)
   139c4:	fef41de3          	bne	s0,a5,139be <ediv+0x86>
   139c8:	60ee                	ld	ra,216(sp)
   139ca:	644e                	ld	s0,208(sp)
   139cc:	64ae                	ld	s1,200(sp)
   139ce:	690e                	ld	s2,192(sp)
   139d0:	79ea                	ld	s3,184(sp)
   139d2:	7a4a                	ld	s4,176(sp)
   139d4:	7aaa                	ld	s5,168(sp)
   139d6:	7b0a                	ld	s6,160(sp)
   139d8:	6bea                	ld	s7,152(sp)
   139da:	6c4a                	ld	s8,144(sp)
   139dc:	6caa                	ld	s9,136(sp)
   139de:	6d0a                	ld	s10,128(sp)
   139e0:	7de6                	ld	s11,120(sp)
   139e2:	612d                	addi	sp,sp,224
   139e4:	8082                	ret
   139e6:	854e                	mv	a0,s3
   139e8:	b24ff0ef          	jal	ra,12d0c <eisnan.part.0>
   139ec:	d951                	beqz	a0,13980 <ediv+0x48>
   139ee:	01498713          	addi	a4,s3,20
   139f2:	0009d783          	lhu	a5,0(s3)
   139f6:	0989                	addi	s3,s3,2
   139f8:	0409                	addi	s0,s0,2
   139fa:	fef41f23          	sh	a5,-2(s0)
   139fe:	fee99ae3          	bne	s3,a4,139f2 <ediv+0xba>
   13a02:	b7d9                	j	139c8 <ediv+0x90>
   13a04:	06fa8663          	beq	s5,a5,13a70 <ediv+0x138>
   13a08:	854a                	mv	a0,s2
   13a0a:	080c                	addi	a1,sp,16
   13a0c:	b72ff0ef          	jal	ra,12d7e <emovi>
   13a10:	180c                	addi	a1,sp,48
   13a12:	854e                	mv	a0,s3
   13a14:	b6aff0ef          	jal	ra,12d7e <emovi>
   13a18:	03215b83          	lhu	s7,50(sp)
   13a1c:	01215903          	lhu	s2,18(sp)
   13a20:	080b9a63          	bnez	s7,13ab4 <ediv+0x17c>
   13a24:	185c                	addi	a5,sp,52
   13a26:	04810d93          	addi	s11,sp,72
   13a2a:	28fd8363          	beq	s11,a5,13cb0 <ediv+0x378>
   13a2e:	0007d703          	lhu	a4,0(a5) # 8000 <register_fini-0x80e8>
   13a32:	0789                	addi	a5,a5,2
   13a34:	db7d                	beqz	a4,13a2a <ediv+0xf2>
   13a36:	1808                	addi	a0,sp,48
   13a38:	e58ff0ef          	jal	ra,13090 <enormlz>
   13a3c:	40a007b3          	neg	a5,a0
   13a40:	01215603          	lhu	a2,18(sp)
   13a44:	e43e                	sd	a5,8(sp)
   13a46:	a88d                	j	13ab8 <ediv+0x180>
   13a48:	348a0593          	addi	a1,s4,840
   13a4c:	854e                	mv	a0,s3
   13a4e:	be6ff0ef          	jal	ra,12e34 <ecmp>
   13a52:	fd15                	bnez	a0,1398e <ediv+0x56>
   13a54:	01040713          	addi	a4,s0,16
   13a58:	87a2                	mv	a5,s0
   13a5a:	0789                	addi	a5,a5,2
   13a5c:	fe079f23          	sh	zero,-2(a5)
   13a60:	fee79de3          	bne	a5,a4,13a5a <ediv+0x122>
   13a64:	7fffc7b7          	lui	a5,0x7fffc
   13a68:	c81c                	sw	a5,16(s0)
   13a6a:	bfb9                	j	139c8 <ediv+0x90>
   13a6c:	f94a9ee3          	bne	s5,s4,13a08 <ediv+0xd0>
   13a70:	854e                	mv	a0,s3
   13a72:	c8aff0ef          	jal	ra,12efc <eisinf.part.0>
   13a76:	d949                	beqz	a0,13a08 <ediv+0xd0>
   13a78:	854a                	mv	a0,s2
   13a7a:	adaff0ef          	jal	ra,12d54 <eisneg>
   13a7e:	84aa                	mv	s1,a0
   13a80:	854e                	mv	a0,s3
   13a82:	ad2ff0ef          	jal	ra,12d54 <eisneg>
   13a86:	40a487b3          	sub	a5,s1,a0
   13a8a:	00f037b3          	snez	a5,a5
   13a8e:	07be                	slli	a5,a5,0xf
   13a90:	00f41923          	sh	a5,18(s0)
   13a94:	01240713          	addi	a4,s0,18
   13a98:	87a2                	mv	a5,s0
   13a9a:	0789                	addi	a5,a5,2
   13a9c:	fe079f23          	sh	zero,-2(a5) # 7fffbffe <__BSS_END__+0x7ffdd00e>
   13aa0:	fee79de3          	bne	a5,a4,13a9a <ediv+0x162>
   13aa4:	01245783          	lhu	a5,18(s0)
   13aa8:	6721                	lui	a4,0x8
   13aaa:	177d                	addi	a4,a4,-1
   13aac:	8fd9                	or	a5,a5,a4
   13aae:	00f41923          	sh	a5,18(s0)
   13ab2:	bf19                	j	139c8 <ediv+0x90>
   13ab4:	e45e                	sd	s7,8(sp)
   13ab6:	864a                	mv	a2,s2
   13ab8:	e04a                	sd	s2,0(sp)
   13aba:	085c                	addi	a5,sp,20
   13abc:	1034                	addi	a3,sp,40
   13abe:	ee09                	bnez	a2,13ad8 <ediv+0x1a0>
   13ac0:	20f68063          	beq	a3,a5,13cc0 <ediv+0x388>
   13ac4:	0007d703          	lhu	a4,0(a5)
   13ac8:	0789                	addi	a5,a5,2
   13aca:	db7d                	beqz	a4,13ac0 <ediv+0x188>
   13acc:	0808                	addi	a0,sp,16
   13ace:	dc2ff0ef          	jal	ra,13090 <enormlz>
   13ad2:	40a907b3          	sub	a5,s2,a0
   13ad6:	e03e                	sd	a5,0(sp)
   13ad8:	5742                	lw	a4,48(sp)
   13ada:	03848d13          	addi	s10,s1,56
   13ade:	87ea                	mv	a5,s10
   13ae0:	d8d8                	sw	a4,52(s1)
   13ae2:	04e48913          	addi	s2,s1,78
   13ae6:	0789                	addi	a5,a5,2
   13ae8:	fe079f23          	sh	zero,-2(a5)
   13aec:	fef91de3          	bne	s2,a5,13ae6 <ediv+0x1ae>
   13af0:	1808                	addi	a0,sp,48
   13af2:	900ff0ef          	jal	ra,12bf2 <eshdn1>
   13af6:	01615c03          	lhu	s8,22(sp)
   13afa:	6a41                	lui	s4,0x10
   13afc:	04810d93          	addi	s11,sp,72
   13b00:	010c1a93          	slli	s5,s8,0x10
   13b04:	418a8ab3          	sub	s5,s5,s8
   13b08:	03210b13          	addi	s6,sp,50
   13b0c:	1a7d                	addi	s4,s4,-1
   13b0e:	06a10c93          	addi	s9,sp,106
   13b12:	05210993          	addi	s3,sp,82
   13b16:	03415783          	lhu	a5,52(sp)
   13b1a:	03615703          	lhu	a4,54(sp)
   13b1e:	8bd2                	mv	s7,s4
   13b20:	07c2                	slli	a5,a5,0x10
   13b22:	97ba                	add	a5,a5,a4
   13b24:	00fae863          	bltu	s5,a5,13b34 <ediv+0x1fc>
   13b28:	0387d7b3          	divu	a5,a5,s8
   13b2c:	03079b93          	slli	s7,a5,0x30
   13b30:	030bdb93          	srli	s7,s7,0x30
   13b34:	0890                	addi	a2,sp,80
   13b36:	080c                	addi	a1,sp,16
   13b38:	855e                	mv	a0,s7
   13b3a:	95eff0ef          	jal	ra,12c98 <m16m>
   13b3e:	1858                	addi	a4,sp,52
   13b40:	08dc                	addi	a5,sp,84
   13b42:	0007d583          	lhu	a1,0(a5)
   13b46:	00075603          	lhu	a2,0(a4) # 8000 <register_fini-0x80e8>
   13b4a:	0789                	addi	a5,a5,2
   13b4c:	0709                	addi	a4,a4,2
   13b4e:	0cc59c63          	bne	a1,a2,13c26 <ediv+0x2ee>
   13b52:	ff9798e3          	bne	a5,s9,13b42 <ediv+0x20a>
   13b56:	4781                	li	a5,0
   13b58:	10ac                	addi	a1,sp,104
   13b5a:	866e                	mv	a2,s11
   13b5c:	00065703          	lhu	a4,0(a2)
   13b60:	0005d803          	lhu	a6,0(a1)
   13b64:	1679                	addi	a2,a2,-2
   13b66:	8f1d                	sub	a4,a4,a5
   13b68:	41070733          	sub	a4,a4,a6
   13b6c:	01075793          	srli	a5,a4,0x10
   13b70:	00e61123          	sh	a4,2(a2)
   13b74:	8b85                	andi	a5,a5,1
   13b76:	15f9                	addi	a1,a1,-2
   13b78:	ff6612e3          	bne	a2,s6,13b5c <ediv+0x224>
   13b7c:	017d1023          	sh	s7,0(s10)
   13b80:	185c                	addi	a5,sp,52
   13b82:	0027d703          	lhu	a4,2(a5)
   13b86:	0789                	addi	a5,a5,2
   13b88:	fee79f23          	sh	a4,-2(a5)
   13b8c:	ffb79be3          	bne	a5,s11,13b82 <ediv+0x24a>
   13b90:	04011423          	sh	zero,72(sp)
   13b94:	0d09                	addi	s10,s10,2
   13b96:	f9a910e3          	bne	s2,s10,13b16 <ediv+0x1de>
   13b9a:	4581                	li	a1,0
   13b9c:	185c                	addi	a5,sp,52
   13b9e:	04a10693          	addi	a3,sp,74
   13ba2:	0007d703          	lhu	a4,0(a5)
   13ba6:	0789                	addi	a5,a5,2
   13ba8:	8dd9                	or	a1,a1,a4
   13baa:	fed79ce3          	bne	a5,a3,13ba2 <ediv+0x26a>
   13bae:	0105979b          	slliw	a5,a1,0x10
   13bb2:	4107d79b          	sraiw	a5,a5,0x10
   13bb6:	c391                	beqz	a5,13bba <ediv+0x282>
   13bb8:	4585                	li	a1,1
   13bba:	15c2                	slli	a1,a1,0x30
   13bbc:	91c1                	srli	a1,a1,0x30
   13bbe:	03448713          	addi	a4,s1,52
   13bc2:	181c                	addi	a5,sp,48
   13bc4:	00075603          	lhu	a2,0(a4)
   13bc8:	0789                	addi	a5,a5,2
   13bca:	0709                	addi	a4,a4,2
   13bcc:	fec79f23          	sh	a2,-2(a5)
   13bd0:	fef69ae3          	bne	a3,a5,13bc4 <ediv+0x28c>
   13bd4:	67a2                	ld	a5,8(sp)
   13bd6:	6702                	ld	a4,0(sp)
   13bd8:	6691                	lui	a3,0x4
   13bda:	16fd                	addi	a3,a3,-1
   13bdc:	40e78bb3          	sub	s7,a5,a4
   13be0:	1808                	addi	a0,sp,48
   13be2:	87a6                	mv	a5,s1
   13be4:	04000713          	li	a4,64
   13be8:	96de                	add	a3,a3,s7
   13bea:	4601                	li	a2,0
   13bec:	dc4ff0ef          	jal	ra,131b0 <emdnorm>
   13bf0:	03015703          	lhu	a4,48(sp)
   13bf4:	01015783          	lhu	a5,16(sp)
   13bf8:	85a2                	mv	a1,s0
   13bfa:	1808                	addi	a0,sp,48
   13bfc:	8f99                	sub	a5,a5,a4
   13bfe:	00f037b3          	snez	a5,a5
   13c02:	40f007bb          	negw	a5,a5
   13c06:	02f11823          	sh	a5,48(sp)
   13c0a:	9a1ff0ef          	jal	ra,135aa <emovo.isra.0>
   13c0e:	bb6d                	j	139c8 <ediv+0x90>
   13c10:	01490713          	addi	a4,s2,20
   13c14:	00095783          	lhu	a5,0(s2)
   13c18:	0909                	addi	s2,s2,2
   13c1a:	0409                	addi	s0,s0,2
   13c1c:	fef41f23          	sh	a5,-2(s0)
   13c20:	fee91ae3          	bne	s2,a4,13c14 <ediv+0x2dc>
   13c24:	b355                	j	139c8 <ediv+0x90>
   13c26:	f2b678e3          	bgeu	a2,a1,13b56 <ediv+0x21e>
   13c2a:	fffb879b          	addiw	a5,s7,-1
   13c2e:	03079893          	slli	a7,a5,0x30
   13c32:	0308d893          	srli	a7,a7,0x30
   13c36:	4781                	li	a5,0
   13c38:	102c                	addi	a1,sp,40
   13c3a:	10b0                	addi	a2,sp,104
   13c3c:	00065703          	lhu	a4,0(a2)
   13c40:	0005d803          	lhu	a6,0(a1)
   13c44:	1679                	addi	a2,a2,-2
   13c46:	8f1d                	sub	a4,a4,a5
   13c48:	41070733          	sub	a4,a4,a6
   13c4c:	01075793          	srli	a5,a4,0x10
   13c50:	00e61123          	sh	a4,2(a2)
   13c54:	8b85                	andi	a5,a5,1
   13c56:	15f9                	addi	a1,a1,-2
   13c58:	ff3612e3          	bne	a2,s3,13c3c <ediv+0x304>
   13c5c:	1858                	addi	a4,sp,52
   13c5e:	08dc                	addi	a5,sp,84
   13c60:	0007d583          	lhu	a1,0(a5)
   13c64:	00075603          	lhu	a2,0(a4)
   13c68:	0789                	addi	a5,a5,2
   13c6a:	0709                	addi	a4,a4,2
   13c6c:	00c59663          	bne	a1,a2,13c78 <ediv+0x340>
   13c70:	ff9798e3          	bne	a5,s9,13c60 <ediv+0x328>
   13c74:	8bc6                	mv	s7,a7
   13c76:	b5c5                	j	13b56 <ediv+0x21e>
   13c78:	feb67ee3          	bgeu	a2,a1,13c74 <ediv+0x33c>
   13c7c:	ffeb879b          	addiw	a5,s7,-2
   13c80:	03079b93          	slli	s7,a5,0x30
   13c84:	030bdb93          	srli	s7,s7,0x30
   13c88:	4601                	li	a2,0
   13c8a:	102c                	addi	a1,sp,40
   13c8c:	10b8                	addi	a4,sp,104
   13c8e:	00075783          	lhu	a5,0(a4)
   13c92:	0005d803          	lhu	a6,0(a1)
   13c96:	1779                	addi	a4,a4,-2
   13c98:	8f91                	sub	a5,a5,a2
   13c9a:	410787b3          	sub	a5,a5,a6
   13c9e:	0107d613          	srli	a2,a5,0x10
   13ca2:	00f71123          	sh	a5,2(a4)
   13ca6:	8a05                	andi	a2,a2,1
   13ca8:	15f9                	addi	a1,a1,-2
   13caa:	ff3712e3          	bne	a4,s3,13c8e <ediv+0x356>
   13cae:	b565                	j	13b56 <ediv+0x21e>
   13cb0:	01440793          	addi	a5,s0,20
   13cb4:	0409                	addi	s0,s0,2
   13cb6:	fe041f23          	sh	zero,-2(s0)
   13cba:	fe879de3          	bne	a5,s0,13cb4 <ediv+0x37c>
   13cbe:	b329                	j	139c8 <ediv+0x90>
   13cc0:	01015703          	lhu	a4,16(sp)
   13cc4:	03015783          	lhu	a5,48(sp)
   13cc8:	00f70363          	beq	a4,a5,13cce <ediv+0x396>
   13ccc:	6621                	lui	a2,0x8
