
mtmtp:     file format elf64-littleriscv


Disassembly of section .text:

00000000000100e8 <register_fini>:
   100e8:	00000793          	li	a5,0
   100ec:	c791                	beqz	a5,100f8 <register_fini+0x10>
   100ee:	6549                	lui	a0,0x12
   100f0:	79650513          	addi	a0,a0,1942 # 12796 <__libc_fini_array>
   100f4:	5670806f          	j	18e5a <atexit>
   100f8:	8082                	ret

00000000000100fa <_start>:
   100fa:	0000e197          	auipc	gp,0xe
   100fe:	6f618193          	addi	gp,gp,1782 # 1e7f0 <__global_pointer$>
   10102:	77018513          	addi	a0,gp,1904 # 1ef60 <_PathLocale>
   10106:	0000f617          	auipc	a2,0xf
   1010a:	eea60613          	addi	a2,a2,-278 # 1eff0 <__BSS_END__>
   1010e:	8e09                	sub	a2,a2,a0
   10110:	4581                	li	a1,0
   10112:	350000ef          	jal	ra,10462 <memset>
   10116:	00009517          	auipc	a0,0x9
   1011a:	d4450513          	addi	a0,a0,-700 # 18e5a <atexit>
   1011e:	c519                	beqz	a0,1012c <_start+0x32>
   10120:	00002517          	auipc	a0,0x2
   10124:	67650513          	addi	a0,a0,1654 # 12796 <__libc_fini_array>
   10128:	533080ef          	jal	ra,18e5a <atexit>
   1012c:	2cc000ef          	jal	ra,103f8 <__libc_init_array>
   10130:	4502                	lw	a0,0(sp)
   10132:	002c                	addi	a1,sp,8
   10134:	4601                	li	a2,0
   10136:	052000ef          	jal	ra,10188 <main>
   1013a:	a445                	j	103da <exit>

000000000001013c <__do_global_dtors_aux>:
   1013c:	7981c703          	lbu	a4,1944(gp) # 1ef88 <completed.5528>
   10140:	e715                	bnez	a4,1016c <__do_global_dtors_aux+0x30>
   10142:	1141                	addi	sp,sp,-16
   10144:	e022                	sd	s0,0(sp)
   10146:	843e                	mv	s0,a5
   10148:	e406                	sd	ra,8(sp)
   1014a:	00000793          	li	a5,0
   1014e:	cb81                	beqz	a5,1015e <__do_global_dtors_aux+0x22>
   10150:	6579                	lui	a0,0x1e
   10152:	de850513          	addi	a0,a0,-536 # 1dde8 <__FRAME_END__>
   10156:	00000097          	auipc	ra,0x0
   1015a:	000000e7          	jalr	zero # 0 <register_fini-0x100e8>
   1015e:	4785                	li	a5,1
   10160:	60a2                	ld	ra,8(sp)
   10162:	78f18c23          	sb	a5,1944(gp) # 1ef88 <completed.5528>
   10166:	6402                	ld	s0,0(sp)
   10168:	0141                	addi	sp,sp,16
   1016a:	8082                	ret
   1016c:	8082                	ret

000000000001016e <frame_dummy>:
   1016e:	00000793          	li	a5,0
   10172:	cb91                	beqz	a5,10186 <frame_dummy+0x18>
   10174:	6579                	lui	a0,0x1e
   10176:	7a018593          	addi	a1,gp,1952 # 1ef90 <object.5533>
   1017a:	de850513          	addi	a0,a0,-536 # 1dde8 <__FRAME_END__>
   1017e:	00000317          	auipc	t1,0x0
   10182:	00000067          	jr	zero # 0 <register_fini-0x100e8>
   10186:	8082                	ret

0000000000010188 <main>:
   10188:	7111                	addi	sp,sp,-256
   1018a:	fd86                	sd	ra,248(sp)
   1018c:	f9a2                	sd	s0,240(sp)
   1018e:	0200                	addi	s0,sp,256
   10190:	862a                	mv	a2,a0
   10192:	4681                	li	a3,0
   10194:	fed42623          	sw	a3,-20(s0)
   10198:	fea42423          	sw	a0,-24(s0)
   1019c:	feb43023          	sd	a1,-32(s0)
   101a0:	6571                	lui	a0,0x1c
   101a2:	02050593          	addi	a1,a0,32 # 1c020 <__clzdi2+0x2e>
   101a6:	0385e703          	lwu	a4,56(a1)
   101aa:	03c5e783          	lwu	a5,60(a1)
   101ae:	1782                	slli	a5,a5,0x20
   101b0:	8f5d                	or	a4,a4,a5
   101b2:	fce43c23          	sd	a4,-40(s0)
   101b6:	0305e703          	lwu	a4,48(a1)
   101ba:	0345e783          	lwu	a5,52(a1)
   101be:	1782                	slli	a5,a5,0x20
   101c0:	8f5d                	or	a4,a4,a5
   101c2:	fce43823          	sd	a4,-48(s0)
   101c6:	0285e703          	lwu	a4,40(a1)
   101ca:	02c5e783          	lwu	a5,44(a1)
   101ce:	1782                	slli	a5,a5,0x20
   101d0:	8f5d                	or	a4,a4,a5
   101d2:	fce43423          	sd	a4,-56(s0)
   101d6:	0205e703          	lwu	a4,32(a1)
   101da:	0245e783          	lwu	a5,36(a1)
   101de:	1782                	slli	a5,a5,0x20
   101e0:	8f5d                	or	a4,a4,a5
   101e2:	fce43023          	sd	a4,-64(s0)
   101e6:	0185e703          	lwu	a4,24(a1)
   101ea:	01c5e783          	lwu	a5,28(a1)
   101ee:	1782                	slli	a5,a5,0x20
   101f0:	8f5d                	or	a4,a4,a5
   101f2:	fae43c23          	sd	a4,-72(s0)
   101f6:	0105e703          	lwu	a4,16(a1)
   101fa:	0145e783          	lwu	a5,20(a1)
   101fe:	1782                	slli	a5,a5,0x20
   10200:	8f5d                	or	a4,a4,a5
   10202:	fae43823          	sd	a4,-80(s0)
   10206:	0085e703          	lwu	a4,8(a1)
   1020a:	00c5e783          	lwu	a5,12(a1)
   1020e:	1782                	slli	a5,a5,0x20
   10210:	8f5d                	or	a4,a4,a5
   10212:	fae43423          	sd	a4,-88(s0)
   10216:	02056503          	lwu	a0,32(a0)
   1021a:	0045e583          	lwu	a1,4(a1)
   1021e:	1582                	slli	a1,a1,0x20
   10220:	8d4d                	or	a0,a0,a1
   10222:	faa43023          	sd	a0,-96(s0)
   10226:	6571                	lui	a0,0x1c
   10228:	06050593          	addi	a1,a0,96 # 1c060 <__clzdi2+0x6e>
   1022c:	0385e703          	lwu	a4,56(a1)
   10230:	03c5e783          	lwu	a5,60(a1)
   10234:	1782                	slli	a5,a5,0x20
   10236:	8f5d                	or	a4,a4,a5
   10238:	f8e43c23          	sd	a4,-104(s0)
   1023c:	0305e703          	lwu	a4,48(a1)
   10240:	0345e783          	lwu	a5,52(a1)
   10244:	1782                	slli	a5,a5,0x20
   10246:	8f5d                	or	a4,a4,a5
   10248:	f8e43823          	sd	a4,-112(s0)
   1024c:	0285e703          	lwu	a4,40(a1)
   10250:	02c5e783          	lwu	a5,44(a1)
   10254:	1782                	slli	a5,a5,0x20
   10256:	8f5d                	or	a4,a4,a5
   10258:	f8e43423          	sd	a4,-120(s0)
   1025c:	0205e703          	lwu	a4,32(a1)
   10260:	0245e783          	lwu	a5,36(a1)
   10264:	1782                	slli	a5,a5,0x20
   10266:	8f5d                	or	a4,a4,a5
   10268:	f8e43023          	sd	a4,-128(s0)
   1026c:	0185e703          	lwu	a4,24(a1)
   10270:	01c5e783          	lwu	a5,28(a1)
   10274:	1782                	slli	a5,a5,0x20
   10276:	8f5d                	or	a4,a4,a5
   10278:	f6e43c23          	sd	a4,-136(s0)
   1027c:	0105e703          	lwu	a4,16(a1)
   10280:	0145e783          	lwu	a5,20(a1)
   10284:	1782                	slli	a5,a5,0x20
   10286:	8f5d                	or	a4,a4,a5
   10288:	f6e43823          	sd	a4,-144(s0)
   1028c:	0085e703          	lwu	a4,8(a1)
   10290:	00c5e783          	lwu	a5,12(a1)
   10294:	1782                	slli	a5,a5,0x20
   10296:	8f5d                	or	a4,a4,a5
   10298:	f6e43423          	sd	a4,-152(s0)
   1029c:	06056503          	lwu	a0,96(a0)
   102a0:	0045e583          	lwu	a1,4(a1)
   102a4:	1582                	slli	a1,a1,0x20
   102a6:	8d4d                	or	a0,a0,a1
   102a8:	f6a43023          	sd	a0,-160(s0)
   102ac:	6571                	lui	a0,0x1c
   102ae:	0a050593          	addi	a1,a0,160 # 1c0a0 <__clzdi2+0xae>
   102b2:	0385e703          	lwu	a4,56(a1)
   102b6:	03c5e783          	lwu	a5,60(a1)
   102ba:	1782                	slli	a5,a5,0x20
   102bc:	8f5d                	or	a4,a4,a5
   102be:	f4e43c23          	sd	a4,-168(s0)
   102c2:	0305e703          	lwu	a4,48(a1)
   102c6:	0345e783          	lwu	a5,52(a1)
   102ca:	1782                	slli	a5,a5,0x20
   102cc:	8f5d                	or	a4,a4,a5
   102ce:	f4e43823          	sd	a4,-176(s0)
   102d2:	0285e703          	lwu	a4,40(a1)
   102d6:	02c5e783          	lwu	a5,44(a1)
   102da:	1782                	slli	a5,a5,0x20
   102dc:	8f5d                	or	a4,a4,a5
   102de:	f4e43423          	sd	a4,-184(s0)
   102e2:	0205e703          	lwu	a4,32(a1)
   102e6:	0245e783          	lwu	a5,36(a1)
   102ea:	1782                	slli	a5,a5,0x20
   102ec:	8f5d                	or	a4,a4,a5
   102ee:	f4e43023          	sd	a4,-192(s0)
   102f2:	0185e703          	lwu	a4,24(a1)
   102f6:	01c5e783          	lwu	a5,28(a1)
   102fa:	1782                	slli	a5,a5,0x20
   102fc:	8f5d                	or	a4,a4,a5
   102fe:	f2e43c23          	sd	a4,-200(s0)
   10302:	0105e703          	lwu	a4,16(a1)
   10306:	0145e783          	lwu	a5,20(a1)
   1030a:	1782                	slli	a5,a5,0x20
   1030c:	8f5d                	or	a4,a4,a5
   1030e:	f2e43823          	sd	a4,-208(s0)
   10312:	0085e703          	lwu	a4,8(a1)
   10316:	00c5e783          	lwu	a5,12(a1)
   1031a:	1782                	slli	a5,a5,0x20
   1031c:	8f5d                	or	a4,a4,a5
   1031e:	f2e43423          	sd	a4,-216(s0)
   10322:	0a056503          	lwu	a0,160(a0)
   10326:	0045e583          	lwu	a1,4(a1)
   1032a:	1582                	slli	a1,a1,0x20
   1032c:	8d4d                	or	a0,a0,a1
   1032e:	f2a43023          	sd	a0,-224(s0)
   10332:	4541                	li	a0,16
   10334:	fa040593          	addi	a1,s0,-96
   10338:	f6040713          	addi	a4,s0,-160
   1033c:	f2040793          	addi	a5,s0,-224
   10340:	f0c43823          	sd	a2,-240(s0)
   10344:	863a                	mv	a2,a4
   10346:	f0d43423          	sd	a3,-248(s0)
   1034a:	86be                	mv	a3,a5
   1034c:	064000ef          	jal	ra,103b0 <tensormul>
   10350:	f0843583          	ld	a1,-248(s0)
   10354:	f0b42e23          	sw	a1,-228(s0)
   10358:	0040006f          	j	1035c <main+0x1d4>
   1035c:	f1c42503          	lw	a0,-228(s0)
   10360:	45bd                	li	a1,15
   10362:	02a5c963          	blt	a1,a0,10394 <main+0x20c>
   10366:	0040006f          	j	1036a <main+0x1e2>
   1036a:	f1c42503          	lw	a0,-228(s0)
   1036e:	050a                	slli	a0,a0,0x2
   10370:	f2040593          	addi	a1,s0,-224
   10374:	952e                	add	a0,a0,a1
   10376:	410c                	lw	a1,0(a0)
   10378:	6571                	lui	a0,0x1c
   1037a:	0e050513          	addi	a0,a0,224 # 1c0e0 <__clzdi2+0xee>
   1037e:	1b0000ef          	jal	ra,1052e <printf>
   10382:	0040006f          	j	10386 <main+0x1fe>
   10386:	f1c42503          	lw	a0,-228(s0)
   1038a:	0505                	addi	a0,a0,1
   1038c:	f0a42e23          	sw	a0,-228(s0)
   10390:	fcdff06f          	j	1035c <main+0x1d4>
   10394:	6571                	lui	a0,0x1c
   10396:	0e450513          	addi	a0,a0,228 # 1c0e4 <__clzdi2+0xf2>
   1039a:	194000ef          	jal	ra,1052e <printf>
   1039e:	fec42583          	lw	a1,-20(s0)
   103a2:	f0a43023          	sd	a0,-256(s0)
   103a6:	852e                	mv	a0,a1
   103a8:	744e                	ld	s0,240(sp)
   103aa:	70ee                	ld	ra,248(sp)
   103ac:	6111                	addi	sp,sp,256
   103ae:	8082                	ret

00000000000103b0 <tensormul>:
   103b0:	0d2572d7          	vsetvli	t0,a0,e128,m4,ta,ma,d1
   103b4:	0205e207          	vle32.v	v4,(a1)
   103b8:	40550533          	sub	a0,a0,t0
   103bc:	028a                	slli	t0,t0,0x2
   103be:	9596                	add	a1,a1,t0
   103c0:	02066407          	vle32.v	v8,(a2)
   103c4:	9616                	add	a2,a2,t0
   103c6:	0206e007          	vle32.v	v0,(a3)
   103ca:	e6820057          	vdot.vv	v0,v8,v4
   103ce:	0206e027          	vse32.v	v0,(a3)
   103d2:	9696                	add	a3,a3,t0
   103d4:	fc051ee3          	bnez	a0,103b0 <tensormul>
   103d8:	8082                	ret

00000000000103da <exit>:
   103da:	1141                	addi	sp,sp,-16
   103dc:	4581                	li	a1,0
   103de:	e022                	sd	s0,0(sp)
   103e0:	e406                	sd	ra,8(sp)
   103e2:	842a                	mv	s0,a0
   103e4:	6ad010ef          	jal	ra,12290 <__call_exitprocs>
   103e8:	7481b503          	ld	a0,1864(gp) # 1ef38 <_global_impure_ptr>
   103ec:	6d3c                	ld	a5,88(a0)
   103ee:	c391                	beqz	a5,103f2 <exit+0x18>
   103f0:	9782                	jalr	a5
   103f2:	8522                	mv	a0,s0
   103f4:	6160a0ef          	jal	ra,1aa0a <_exit>

00000000000103f8 <__libc_init_array>:
   103f8:	1101                	addi	sp,sp,-32
   103fa:	e822                	sd	s0,16(sp)
   103fc:	e04a                	sd	s2,0(sp)
   103fe:	6479                	lui	s0,0x1e
   10400:	6979                	lui	s2,0x1e
   10402:	dec40793          	addi	a5,s0,-532 # 1ddec <__preinit_array_end>
   10406:	dec90913          	addi	s2,s2,-532 # 1ddec <__preinit_array_end>
   1040a:	40f90933          	sub	s2,s2,a5
   1040e:	ec06                	sd	ra,24(sp)
   10410:	e426                	sd	s1,8(sp)
   10412:	40395913          	srai	s2,s2,0x3
   10416:	00090b63          	beqz	s2,1042c <__libc_init_array+0x34>
   1041a:	dec40413          	addi	s0,s0,-532
   1041e:	4481                	li	s1,0
   10420:	601c                	ld	a5,0(s0)
   10422:	0485                	addi	s1,s1,1
   10424:	0421                	addi	s0,s0,8
   10426:	9782                	jalr	a5
   10428:	fe991ce3          	bne	s2,s1,10420 <__libc_init_array+0x28>
   1042c:	6479                	lui	s0,0x1e
   1042e:	6979                	lui	s2,0x1e
   10430:	df040793          	addi	a5,s0,-528 # 1ddf0 <__init_array_start>
   10434:	e0090913          	addi	s2,s2,-512 # 1de00 <__do_global_dtors_aux_fini_array_entry>
   10438:	40f90933          	sub	s2,s2,a5
   1043c:	40395913          	srai	s2,s2,0x3
   10440:	00090b63          	beqz	s2,10456 <__libc_init_array+0x5e>
   10444:	df040413          	addi	s0,s0,-528
   10448:	4481                	li	s1,0
   1044a:	601c                	ld	a5,0(s0)
   1044c:	0485                	addi	s1,s1,1
   1044e:	0421                	addi	s0,s0,8
   10450:	9782                	jalr	a5
   10452:	fe991ce3          	bne	s2,s1,1044a <__libc_init_array+0x52>
   10456:	60e2                	ld	ra,24(sp)
   10458:	6442                	ld	s0,16(sp)
   1045a:	64a2                	ld	s1,8(sp)
   1045c:	6902                	ld	s2,0(sp)
   1045e:	6105                	addi	sp,sp,32
   10460:	8082                	ret

0000000000010462 <memset>:
   10462:	433d                	li	t1,15
   10464:	872a                	mv	a4,a0
   10466:	02c37163          	bgeu	t1,a2,10488 <memset+0x26>
   1046a:	00f77793          	andi	a5,a4,15
   1046e:	e3c1                	bnez	a5,104ee <memset+0x8c>
   10470:	e1bd                	bnez	a1,104d6 <memset+0x74>
   10472:	ff067693          	andi	a3,a2,-16
   10476:	8a3d                	andi	a2,a2,15
   10478:	96ba                	add	a3,a3,a4
   1047a:	e30c                	sd	a1,0(a4)
   1047c:	e70c                	sd	a1,8(a4)
   1047e:	0741                	addi	a4,a4,16
   10480:	fed76de3          	bltu	a4,a3,1047a <memset+0x18>
   10484:	e211                	bnez	a2,10488 <memset+0x26>
   10486:	8082                	ret
   10488:	40c306b3          	sub	a3,t1,a2
   1048c:	068a                	slli	a3,a3,0x2
   1048e:	00000297          	auipc	t0,0x0
   10492:	9696                	add	a3,a3,t0
   10494:	00a68067          	jr	10(a3)
   10498:	00b70723          	sb	a1,14(a4)
   1049c:	00b706a3          	sb	a1,13(a4)
   104a0:	00b70623          	sb	a1,12(a4)
   104a4:	00b705a3          	sb	a1,11(a4)
   104a8:	00b70523          	sb	a1,10(a4)
   104ac:	00b704a3          	sb	a1,9(a4)
   104b0:	00b70423          	sb	a1,8(a4)
   104b4:	00b703a3          	sb	a1,7(a4)
   104b8:	00b70323          	sb	a1,6(a4)
   104bc:	00b702a3          	sb	a1,5(a4)
   104c0:	00b70223          	sb	a1,4(a4)
   104c4:	00b701a3          	sb	a1,3(a4)
   104c8:	00b70123          	sb	a1,2(a4)
   104cc:	00b700a3          	sb	a1,1(a4)
   104d0:	00b70023          	sb	a1,0(a4)
   104d4:	8082                	ret
   104d6:	0ff5f593          	andi	a1,a1,255
   104da:	00859693          	slli	a3,a1,0x8
   104de:	8dd5                	or	a1,a1,a3
   104e0:	01059693          	slli	a3,a1,0x10
   104e4:	8dd5                	or	a1,a1,a3
   104e6:	02059693          	slli	a3,a1,0x20
   104ea:	8dd5                	or	a1,a1,a3
   104ec:	b759                	j	10472 <memset+0x10>
   104ee:	00279693          	slli	a3,a5,0x2
   104f2:	00000297          	auipc	t0,0x0
   104f6:	9696                	add	a3,a3,t0
   104f8:	8286                	mv	t0,ra
   104fa:	fa2680e7          	jalr	-94(a3)
   104fe:	8096                	mv	ra,t0
   10500:	17c1                	addi	a5,a5,-16
   10502:	8f1d                	sub	a4,a4,a5
   10504:	963e                	add	a2,a2,a5
   10506:	f8c371e3          	bgeu	t1,a2,10488 <memset+0x26>
   1050a:	b79d                	j	10470 <memset+0xe>

000000000001050c <_printf_r>:
   1050c:	715d                	addi	sp,sp,-80
   1050e:	f032                	sd	a2,32(sp)
   10510:	f436                	sd	a3,40(sp)
   10512:	f83a                	sd	a4,48(sp)
   10514:	fc3e                	sd	a5,56(sp)
   10516:	e0c2                	sd	a6,64(sp)
   10518:	e4c6                	sd	a7,72(sp)
   1051a:	862e                	mv	a2,a1
   1051c:	690c                	ld	a1,16(a0)
   1051e:	1014                	addi	a3,sp,32
   10520:	ec06                	sd	ra,24(sp)
   10522:	e436                	sd	a3,8(sp)
   10524:	036000ef          	jal	ra,1055a <_vfprintf_r>
   10528:	60e2                	ld	ra,24(sp)
   1052a:	6161                	addi	sp,sp,80
   1052c:	8082                	ret

000000000001052e <printf>:
   1052e:	7581b303          	ld	t1,1880(gp) # 1ef48 <_impure_ptr>
   10532:	711d                	addi	sp,sp,-96
   10534:	f832                	sd	a2,48(sp)
   10536:	fc36                	sd	a3,56(sp)
   10538:	f42e                	sd	a1,40(sp)
   1053a:	e0ba                	sd	a4,64(sp)
   1053c:	e4be                	sd	a5,72(sp)
   1053e:	e8c2                	sd	a6,80(sp)
   10540:	ecc6                	sd	a7,88(sp)
   10542:	01033583          	ld	a1,16(t1) # 1018e <main+0x6>
   10546:	1034                	addi	a3,sp,40
   10548:	862a                	mv	a2,a0
   1054a:	851a                	mv	a0,t1
   1054c:	ec06                	sd	ra,24(sp)
   1054e:	e436                	sd	a3,8(sp)
   10550:	00a000ef          	jal	ra,1055a <_vfprintf_r>
   10554:	60e2                	ld	ra,24(sp)
   10556:	6125                	addi	sp,sp,96
   10558:	8082                	ret

000000000001055a <_vfprintf_r>:
   1055a:	d8010113          	addi	sp,sp,-640
   1055e:	26113c23          	sd	ra,632(sp)
   10562:	25313c23          	sd	s3,600(sp)
   10566:	25413823          	sd	s4,592(sp)
   1056a:	23a13023          	sd	s10,544(sp)
   1056e:	89ae                	mv	s3,a1
   10570:	8d32                	mv	s10,a2
   10572:	e836                	sd	a3,16(sp)
   10574:	26813823          	sd	s0,624(sp)
   10578:	26913423          	sd	s1,616(sp)
   1057c:	27213023          	sd	s2,608(sp)
   10580:	25513423          	sd	s5,584(sp)
   10584:	25613023          	sd	s6,576(sp)
   10588:	23713c23          	sd	s7,568(sp)
   1058c:	23813823          	sd	s8,560(sp)
   10590:	23913423          	sd	s9,552(sp)
   10594:	21b13c23          	sd	s11,536(sp)
   10598:	8a2a                	mv	s4,a0
   1059a:	6ca040ef          	jal	ra,14c64 <_localeconv_r>
   1059e:	611c                	ld	a5,0(a0)
   105a0:	853e                	mv	a0,a5
   105a2:	f8be                	sd	a5,112(sp)
   105a4:	673050ef          	jal	ra,16416 <strlen>
   105a8:	f4aa                	sd	a0,104(sp)
   105aa:	e202                	sd	zero,256(sp)
   105ac:	e602                	sd	zero,264(sp)
   105ae:	000a0663          	beqz	s4,105ba <_vfprintf_r+0x60>
   105b2:	050a2783          	lw	a5,80(s4)
   105b6:	6e078763          	beqz	a5,10ca4 <_vfprintf_r+0x74a>
   105ba:	01099703          	lh	a4,16(s3)
   105be:	03071793          	slli	a5,a4,0x30
   105c2:	03271693          	slli	a3,a4,0x32
   105c6:	93c1                	srli	a5,a5,0x30
   105c8:	0206c363          	bltz	a3,105ee <_vfprintf_r+0x94>
   105cc:	6789                	lui	a5,0x2
   105ce:	0ac9a683          	lw	a3,172(s3)
   105d2:	8fd9                	or	a5,a5,a4
   105d4:	0107979b          	slliw	a5,a5,0x10
   105d8:	7779                	lui	a4,0xffffe
   105da:	4107d79b          	sraiw	a5,a5,0x10
   105de:	177d                	addi	a4,a4,-1
   105e0:	8f75                	and	a4,a4,a3
   105e2:	00f99823          	sh	a5,16(s3)
   105e6:	17c2                	slli	a5,a5,0x30
   105e8:	0ae9a623          	sw	a4,172(s3)
   105ec:	93c1                	srli	a5,a5,0x30
   105ee:	0087f713          	andi	a4,a5,8
   105f2:	26070963          	beqz	a4,10864 <_vfprintf_r+0x30a>
   105f6:	0189b703          	ld	a4,24(s3)
   105fa:	26070563          	beqz	a4,10864 <_vfprintf_r+0x30a>
   105fe:	8be9                	andi	a5,a5,26
   10600:	4729                	li	a4,10
   10602:	26e78e63          	beq	a5,a4,1087e <_vfprintf_r+0x324>
   10606:	67f1                	lui	a5,0x1c
   10608:	3087b783          	ld	a5,776(a5) # 1c308 <zeroes.4521+0x40>
   1060c:	19010b13          	addi	s6,sp,400
   10610:	ea5a                	sd	s6,272(sp)
   10612:	f13e                	sd	a5,160(sp)
   10614:	67f1                	lui	a5,0x1c
   10616:	2e87b783          	ld	a5,744(a5) # 1c2e8 <zeroes.4521+0x20>
   1061a:	f202                	sd	zero,288(sp)
   1061c:	10012c23          	sw	zero,280(sp)
   10620:	e93e                	sd	a5,144(sp)
   10622:	67f1                	lui	a5,0x1c
   10624:	2f87b783          	ld	a5,760(a5) # 1c2f8 <zeroes.4521+0x30>
   10628:	f002                	sd	zero,32(sp)
   1062a:	f402                	sd	zero,40(sp)
   1062c:	ed3e                	sd	a5,152(sp)
   1062e:	000d4783          	lbu	a5,0(s10)
   10632:	fc82                	sd	zero,120(sp)
   10634:	f082                	sd	zero,96(sp)
   10636:	e102                	sd	zero,128(sp)
   10638:	e502                	sd	zero,136(sp)
   1063a:	e402                	sd	zero,8(sp)
   1063c:	835a                	mv	t1,s6
   1063e:	1c078463          	beqz	a5,10806 <_vfprintf_r+0x2ac>
   10642:	846a                	mv	s0,s10
   10644:	02500713          	li	a4,37
   10648:	30e78263          	beq	a5,a4,1094c <_vfprintf_r+0x3f2>
   1064c:	00144783          	lbu	a5,1(s0)
   10650:	0405                	addi	s0,s0,1
   10652:	fbfd                	bnez	a5,10648 <_vfprintf_r+0xee>
   10654:	41a404bb          	subw	s1,s0,s10
   10658:	1a048763          	beqz	s1,10806 <_vfprintf_r+0x2ac>
   1065c:	7712                	ld	a4,288(sp)
   1065e:	11812783          	lw	a5,280(sp)
   10662:	01a33023          	sd	s10,0(t1)
   10666:	9726                	add	a4,a4,s1
   10668:	2785                	addiw	a5,a5,1
   1066a:	00933423          	sd	s1,8(t1)
   1066e:	f23a                	sd	a4,288(sp)
   10670:	10f12c23          	sw	a5,280(sp)
   10674:	0007871b          	sext.w	a4,a5
   10678:	479d                	li	a5,7
   1067a:	0341                	addi	t1,t1,16
   1067c:	2ce7cf63          	blt	a5,a4,1095a <_vfprintf_r+0x400>
   10680:	6722                	ld	a4,8(sp)
   10682:	00044783          	lbu	a5,0(s0)
   10686:	9f25                	addw	a4,a4,s1
   10688:	e43a                	sd	a4,8(sp)
   1068a:	16078e63          	beqz	a5,10806 <_vfprintf_r+0x2ac>
   1068e:	67f1                	lui	a5,0x1c
   10690:	00144e83          	lbu	t4,1(s0)
   10694:	0c010fa3          	sb	zero,223(sp)
   10698:	0405                	addi	s0,s0,1
   1069a:	5c7d                	li	s8,-1
   1069c:	4a81                	li	s5,0
   1069e:	4481                	li	s1,0
   106a0:	05a00913          	li	s2,90
   106a4:	14878b93          	addi	s7,a5,328 # 1c148 <__clzdi2+0x156>
   106a8:	4da5                	li	s11,9
   106aa:	0405                	addi	s0,s0,1
   106ac:	000e8c9b          	sext.w	s9,t4
   106b0:	02a00693          	li	a3,42
   106b4:	fe0c879b          	addiw	a5,s9,-32
   106b8:	0007871b          	sext.w	a4,a5
   106bc:	04e96163          	bltu	s2,a4,106fe <_vfprintf_r+0x1a4>
   106c0:	1782                	slli	a5,a5,0x20
   106c2:	83f9                	srli	a5,a5,0x1e
   106c4:	97de                	add	a5,a5,s7
   106c6:	439c                	lw	a5,0(a5)
   106c8:	8782                	jr	a5
   106ca:	4a81                	li	s5,0
   106cc:	00044703          	lbu	a4,0(s0)
   106d0:	002a979b          	slliw	a5,s5,0x2
   106d4:	01578abb          	addw	s5,a5,s5
   106d8:	fd0c8e9b          	addiw	t4,s9,-48
   106dc:	001a9a9b          	slliw	s5,s5,0x1
   106e0:	fd07079b          	addiw	a5,a4,-48
   106e4:	0405                	addi	s0,s0,1
   106e6:	015e8abb          	addw	s5,t4,s5
   106ea:	00070c9b          	sext.w	s9,a4
   106ee:	fcfdffe3          	bgeu	s11,a5,106cc <_vfprintf_r+0x172>
   106f2:	fe0c879b          	addiw	a5,s9,-32
   106f6:	0007871b          	sext.w	a4,a5
   106fa:	fce973e3          	bgeu	s2,a4,106c0 <_vfprintf_r+0x166>
   106fe:	100c8463          	beqz	s9,10806 <_vfprintf_r+0x2ac>
   10702:	13910423          	sb	s9,296(sp)
   10706:	0c010fa3          	sb	zero,223(sp)
   1070a:	4905                	li	s2,1
   1070c:	4b85                	li	s7,1
   1070e:	12810d13          	addi	s10,sp,296
   10712:	ec02                	sd	zero,24(sp)
   10714:	4c01                	li	s8,0
   10716:	e482                	sd	zero,72(sp)
   10718:	ec82                	sd	zero,88(sp)
   1071a:	e882                	sd	zero,80(sp)
   1071c:	0024f793          	andi	a5,s1,2
   10720:	0007829b          	sext.w	t0,a5
   10724:	c391                	beqz	a5,10728 <_vfprintf_r+0x1ce>
   10726:	2909                	addiw	s2,s2,2
   10728:	0844fd93          	andi	s11,s1,132
   1072c:	7792                	ld	a5,288(sp)
   1072e:	000d9663          	bnez	s11,1073a <_vfprintf_r+0x1e0>
   10732:	412a86bb          	subw	a3,s5,s2
   10736:	2ad045e3          	bgtz	a3,111e0 <_vfprintf_r+0xc86>
   1073a:	0df14703          	lbu	a4,223(sp)
   1073e:	c70d                	beqz	a4,10768 <_vfprintf_r+0x20e>
   10740:	11812703          	lw	a4,280(sp)
   10744:	0df10693          	addi	a3,sp,223
   10748:	00d33023          	sd	a3,0(t1)
   1074c:	2705                	addiw	a4,a4,1
   1074e:	4685                	li	a3,1
   10750:	0785                	addi	a5,a5,1
   10752:	00d33423          	sd	a3,8(t1)
   10756:	10e12c23          	sw	a4,280(sp)
   1075a:	0007069b          	sext.w	a3,a4
   1075e:	f23e                	sd	a5,288(sp)
   10760:	471d                	li	a4,7
   10762:	0341                	addi	t1,t1,16
   10764:	40d74b63          	blt	a4,a3,10b7a <_vfprintf_r+0x620>
   10768:	02028563          	beqz	t0,10792 <_vfprintf_r+0x238>
   1076c:	11812703          	lw	a4,280(sp)
   10770:	1194                	addi	a3,sp,224
   10772:	00d33023          	sd	a3,0(t1)
   10776:	2705                	addiw	a4,a4,1
   10778:	4689                	li	a3,2
   1077a:	0789                	addi	a5,a5,2
   1077c:	00d33423          	sd	a3,8(t1)
   10780:	10e12c23          	sw	a4,280(sp)
   10784:	0007069b          	sext.w	a3,a4
   10788:	f23e                	sd	a5,288(sp)
   1078a:	471d                	li	a4,7
   1078c:	0341                	addi	t1,t1,16
   1078e:	2ed745e3          	blt	a4,a3,11278 <_vfprintf_r+0xd1e>
   10792:	08000713          	li	a4,128
   10796:	02ed8ae3          	beq	s11,a4,10fca <_vfprintf_r+0xa70>
   1079a:	417c0c3b          	subw	s8,s8,s7
   1079e:	0b804ee3          	bgtz	s8,1105a <_vfprintf_r+0xb00>
   107a2:	1004f713          	andi	a4,s1,256
   107a6:	74071a63          	bnez	a4,10efa <_vfprintf_r+0x9a0>
   107aa:	11812703          	lw	a4,280(sp)
   107ae:	97de                	add	a5,a5,s7
   107b0:	01a33023          	sd	s10,0(t1)
   107b4:	0017069b          	addiw	a3,a4,1
   107b8:	8736                	mv	a4,a3
   107ba:	01733423          	sd	s7,8(t1)
   107be:	10e12c23          	sw	a4,280(sp)
   107c2:	f23e                	sd	a5,288(sp)
   107c4:	471d                	li	a4,7
   107c6:	42d74763          	blt	a4,a3,10bf4 <_vfprintf_r+0x69a>
   107ca:	0341                	addi	t1,t1,16
   107cc:	8891                	andi	s1,s1,4
   107ce:	c489                	beqz	s1,107d8 <_vfprintf_r+0x27e>
   107d0:	412a84bb          	subw	s1,s5,s2
   107d4:	2a904de3          	bgtz	s1,1128e <_vfprintf_r+0xd34>
   107d8:	8756                	mv	a4,s5
   107da:	012ad363          	bge	s5,s2,107e0 <_vfprintf_r+0x286>
   107de:	874a                	mv	a4,s2
   107e0:	66a2                	ld	a3,8(sp)
   107e2:	9f35                	addw	a4,a4,a3
   107e4:	e43a                	sd	a4,8(sp)
   107e6:	0e079be3          	bnez	a5,110dc <_vfprintf_r+0xb82>
   107ea:	67e2                	ld	a5,24(sp)
   107ec:	10012c23          	sw	zero,280(sp)
   107f0:	c789                	beqz	a5,107fa <_vfprintf_r+0x2a0>
   107f2:	65e2                	ld	a1,24(sp)
   107f4:	8552                	mv	a0,s4
   107f6:	0a4020ef          	jal	ra,1289a <_free_r>
   107fa:	835a                	mv	t1,s6
   107fc:	8d22                	mv	s10,s0
   107fe:	000d4783          	lbu	a5,0(s10)
   10802:	e40790e3          	bnez	a5,10642 <_vfprintf_r+0xe8>
   10806:	7792                	ld	a5,288(sp)
   10808:	c399                	beqz	a5,1080e <_vfprintf_r+0x2b4>
   1080a:	2a60106f          	j	11ab0 <_vfprintf_r+0x1556>
   1080e:	0109d783          	lhu	a5,16(s3)
   10812:	0407f793          	andi	a5,a5,64
   10816:	c399                	beqz	a5,1081c <_vfprintf_r+0x2c2>
   10818:	64a0106f          	j	11e62 <_vfprintf_r+0x1908>
   1081c:	27813083          	ld	ra,632(sp)
   10820:	27013403          	ld	s0,624(sp)
   10824:	6522                	ld	a0,8(sp)
   10826:	26813483          	ld	s1,616(sp)
   1082a:	26013903          	ld	s2,608(sp)
   1082e:	25813983          	ld	s3,600(sp)
   10832:	25013a03          	ld	s4,592(sp)
   10836:	24813a83          	ld	s5,584(sp)
   1083a:	24013b03          	ld	s6,576(sp)
   1083e:	23813b83          	ld	s7,568(sp)
   10842:	23013c03          	ld	s8,560(sp)
   10846:	22813c83          	ld	s9,552(sp)
   1084a:	22013d03          	ld	s10,544(sp)
   1084e:	21813d83          	ld	s11,536(sp)
   10852:	28010113          	addi	sp,sp,640
   10856:	8082                	ret
   10858:	0104e493          	ori	s1,s1,16
   1085c:	00044e83          	lbu	t4,0(s0)
   10860:	2481                	sext.w	s1,s1
   10862:	b5a1                	j	106aa <_vfprintf_r+0x150>
   10864:	85ce                	mv	a1,s3
   10866:	8552                	mv	a0,s4
   10868:	13b010ef          	jal	ra,121a2 <__swsetup_r>
   1086c:	c119                	beqz	a0,10872 <_vfprintf_r+0x318>
   1086e:	5f40106f          	j	11e62 <_vfprintf_r+0x1908>
   10872:	0109d783          	lhu	a5,16(s3)
   10876:	4729                	li	a4,10
   10878:	8be9                	andi	a5,a5,26
   1087a:	d8e796e3          	bne	a5,a4,10606 <_vfprintf_r+0xac>
   1087e:	01299783          	lh	a5,18(s3)
   10882:	d807c2e3          	bltz	a5,10606 <_vfprintf_r+0xac>
   10886:	66c2                	ld	a3,16(sp)
   10888:	866a                	mv	a2,s10
   1088a:	85ce                	mv	a1,s3
   1088c:	8552                	mv	a0,s4
   1088e:	081010ef          	jal	ra,1210e <__sbprintf>
   10892:	e42a                	sd	a0,8(sp)
   10894:	b761                	j	1081c <_vfprintf_r+0x2c2>
   10896:	0104e493          	ori	s1,s1,16
   1089a:	2481                	sext.w	s1,s1
   1089c:	66c2                	ld	a3,16(sp)
   1089e:	0204f793          	andi	a5,s1,32
   108a2:	00868713          	addi	a4,a3,8
   108a6:	38078063          	beqz	a5,10c26 <_vfprintf_r+0x6cc>
   108aa:	629c                	ld	a5,0(a3)
   108ac:	893e                	mv	s2,a5
   108ae:	3807ca63          	bltz	a5,10c42 <_vfprintf_r+0x6e8>
   108b2:	57fd                	li	a5,-1
   108b4:	46fc03e3          	beq	s8,a5,1151a <_vfprintf_r+0xfc0>
   108b8:	f7f4f493          	andi	s1,s1,-129
   108bc:	e83a                	sd	a4,16(sp)
   108be:	00048d9b          	sext.w	s11,s1
   108c2:	100912e3          	bnez	s2,111c6 <_vfprintf_r+0xc6c>
   108c6:	100c13e3          	bnez	s8,111cc <_vfprintf_r+0xc72>
   108ca:	84ee                	mv	s1,s11
   108cc:	4c01                	li	s8,0
   108ce:	4b81                	li	s7,0
   108d0:	18c10d13          	addi	s10,sp,396
   108d4:	000b891b          	sext.w	s2,s7
   108d8:	018bd463          	bge	s7,s8,108e0 <_vfprintf_r+0x386>
   108dc:	000c091b          	sext.w	s2,s8
   108e0:	0df14783          	lbu	a5,223(sp)
   108e4:	ec02                	sd	zero,24(sp)
   108e6:	e482                	sd	zero,72(sp)
   108e8:	ec82                	sd	zero,88(sp)
   108ea:	e882                	sd	zero,80(sp)
   108ec:	e20788e3          	beqz	a5,1071c <_vfprintf_r+0x1c2>
   108f0:	2905                	addiw	s2,s2,1
   108f2:	b52d                	j	1071c <_vfprintf_r+0x1c2>
   108f4:	0104e493          	ori	s1,s1,16
   108f8:	2481                	sext.w	s1,s1
   108fa:	66c2                	ld	a3,16(sp)
   108fc:	0204f793          	andi	a5,s1,32
   10900:	00868713          	addi	a4,a3,8
   10904:	30078263          	beqz	a5,10c08 <_vfprintf_r+0x6ae>
   10908:	0006b903          	ld	s2,0(a3)
   1090c:	bff4f493          	andi	s1,s1,-1025
   10910:	00048d9b          	sext.w	s11,s1
   10914:	e83a                	sd	a4,16(sp)
   10916:	4781                	li	a5,0
   10918:	0c010fa3          	sb	zero,223(sp)
   1091c:	577d                	li	a4,-1
   1091e:	32ec0e63          	beq	s8,a4,10c5a <_vfprintf_r+0x700>
   10922:	f7fdf493          	andi	s1,s11,-129
   10926:	2481                	sext.w	s1,s1
   10928:	08091be3          	bnez	s2,111be <_vfprintf_r+0xc64>
   1092c:	580c1a63          	bnez	s8,10ec0 <_vfprintf_r+0x966>
   10930:	ffd1                	bnez	a5,108cc <_vfprintf_r+0x372>
   10932:	001dfb93          	andi	s7,s11,1
   10936:	18c10d13          	addi	s10,sp,396
   1093a:	f80b8de3          	beqz	s7,108d4 <_vfprintf_r+0x37a>
   1093e:	03000793          	li	a5,48
   10942:	18f105a3          	sb	a5,395(sp)
   10946:	18b10d13          	addi	s10,sp,395
   1094a:	b769                	j	108d4 <_vfprintf_r+0x37a>
   1094c:	41a404bb          	subw	s1,s0,s10
   10950:	d00496e3          	bnez	s1,1065c <_vfprintf_r+0x102>
   10954:	00044783          	lbu	a5,0(s0)
   10958:	bb0d                	j	1068a <_vfprintf_r+0x130>
   1095a:	0a10                	addi	a2,sp,272
   1095c:	85ce                	mv	a1,s3
   1095e:	8552                	mv	a0,s4
   10960:	7bc070ef          	jal	ra,1811c <__sprint_r>
   10964:	ea0515e3          	bnez	a0,1080e <_vfprintf_r+0x2b4>
   10968:	835a                	mv	t1,s6
   1096a:	bb19                	j	10680 <_vfprintf_r+0x126>
   1096c:	0084f793          	andi	a5,s1,8
   10970:	38079ae3          	bnez	a5,11504 <_vfprintf_r+0xfaa>
   10974:	67c2                	ld	a5,16(sp)
   10976:	ec1a                	sd	t1,24(sp)
   10978:	2388                	fld	fa0,0(a5)
   1097a:	07a1                	addi	a5,a5,8
   1097c:	e83e                	sd	a5,16(sp)
   1097e:	3840b0ef          	jal	ra,1bd02 <__extenddftf2>
   10982:	6362                	ld	t1,24(sp)
   10984:	e22a                	sd	a0,256(sp)
   10986:	e62e                	sd	a1,264(sp)
   10988:	0208                	addi	a0,sp,256
   1098a:	ec1a                	sd	t1,24(sp)
   1098c:	29c040ef          	jal	ra,14c28 <_ldcheck>
   10990:	d5aa                	sw	a0,232(sp)
   10992:	4789                	li	a5,2
   10994:	6362                	ld	t1,24(sp)
   10996:	62f500e3          	beq	a0,a5,117b6 <_vfprintf_r+0x125c>
   1099a:	4785                	li	a5,1
   1099c:	6cf50ae3          	beq	a0,a5,11870 <_vfprintf_r+0x1316>
   109a0:	06100793          	li	a5,97
   109a4:	00fc9463          	bne	s9,a5,109ac <_vfprintf_r+0x452>
   109a8:	55a0106f          	j	11f02 <_vfprintf_r+0x19a8>
   109ac:	04100793          	li	a5,65
   109b0:	00fc9463          	bne	s9,a5,109b8 <_vfprintf_r+0x45e>
   109b4:	10a0106f          	j	11abe <_vfprintf_r+0x1564>
   109b8:	fdfcf713          	andi	a4,s9,-33
   109bc:	57fd                	li	a5,-1
   109be:	ecba                	sd	a4,88(sp)
   109c0:	00fc1463          	bne	s8,a5,109c8 <_vfprintf_r+0x46e>
   109c4:	5600106f          	j	11f24 <_vfprintf_r+0x19ca>
   109c8:	04700793          	li	a5,71
   109cc:	00f71463          	bne	a4,a5,109d4 <_vfprintf_r+0x47a>
   109d0:	5620106f          	j	11f32 <_vfprintf_r+0x19d8>
   109d4:	6bb2                	ld	s7,264(sp)
   109d6:	1004e793          	ori	a5,s1,256
   109da:	f526                	sd	s1,168(sp)
   109dc:	6d92                	ld	s11,256(sp)
   109de:	2781                	sext.w	a5,a5
   109e0:	000bd463          	bgez	s7,109e8 <_vfprintf_r+0x48e>
   109e4:	58a0106f          	j	11f6e <_vfprintf_r+0x1a14>
   109e8:	e582                	sd	zero,200(sp)
   109ea:	84be                	mv	s1,a5
   109ec:	ec02                	sd	zero,24(sp)
   109ee:	2701                	sext.w	a4,a4
   109f0:	04600793          	li	a5,70
   109f4:	00f71463          	bne	a4,a5,109fc <_vfprintf_r+0x4a2>
   109f8:	3320106f          	j	11d2a <_vfprintf_r+0x17d0>
   109fc:	6766                	ld	a4,88(sp)
   109fe:	04500793          	li	a5,69
   10a02:	f01a                	sd	t1,32(sp)
   10a04:	00f70463          	beq	a4,a5,10a0c <_vfprintf_r+0x4b2>
   10a08:	2e80106f          	j	11cf0 <_vfprintf_r+0x1796>
   10a0c:	001c091b          	addiw	s2,s8,1
   10a10:	874a                	mv	a4,s2
   10a12:	0f810893          	addi	a7,sp,248
   10a16:	0ec10813          	addi	a6,sp,236
   10a1a:	11bc                	addi	a5,sp,232
   10a1c:	4689                	li	a3,2
   10a1e:	85ee                	mv	a1,s11
   10a20:	865e                	mv	a2,s7
   10a22:	8552                	mv	a0,s4
   10a24:	3ca030ef          	jal	ra,13dee <_ldtoa_r>
   10a28:	7302                	ld	t1,32(sp)
   10a2a:	8d2a                	mv	s10,a0
   10a2c:	992a                	add	s2,s2,a0
   10a2e:	4681                	li	a3,0
   10a30:	4601                	li	a2,0
   10a32:	856e                	mv	a0,s11
   10a34:	85de                	mv	a1,s7
   10a36:	f01a                	sd	t1,32(sp)
   10a38:	1c80a0ef          	jal	ra,1ac00 <__eqtf2>
   10a3c:	7302                	ld	t1,32(sp)
   10a3e:	86ca                	mv	a3,s2
   10a40:	cd11                	beqz	a0,10a5c <_vfprintf_r+0x502>
   10a42:	76ee                	ld	a3,248(sp)
   10a44:	0126fc63          	bgeu	a3,s2,10a5c <_vfprintf_r+0x502>
   10a48:	03000713          	li	a4,48
   10a4c:	00168793          	addi	a5,a3,1
   10a50:	fdbe                	sd	a5,248(sp)
   10a52:	00e68023          	sb	a4,0(a3)
   10a56:	76ee                	ld	a3,248(sp)
   10a58:	ff26eae3          	bltu	a3,s2,10a4c <_vfprintf_r+0x4f2>
   10a5c:	41a687bb          	subw	a5,a3,s10
   10a60:	f03e                	sd	a5,32(sp)
   10a62:	572e                	lw	a4,232(sp)
   10a64:	04700793          	li	a5,71
   10a68:	e8ba                	sd	a4,80(sp)
   10a6a:	6766                	ld	a4,88(sp)
   10a6c:	00f71463          	bne	a4,a5,10a74 <_vfprintf_r+0x51a>
   10a70:	1c60106f          	j	11c36 <_vfprintf_r+0x16dc>
   10a74:	6766                	ld	a4,88(sp)
   10a76:	04600793          	li	a5,70
   10a7a:	00f71463          	bne	a4,a5,10a82 <_vfprintf_r+0x528>
   10a7e:	3760106f          	j	11df4 <_vfprintf_r+0x189a>
   10a82:	67c6                	ld	a5,80(sp)
   10a84:	65e6                	ld	a1,88(sp)
   10a86:	04100613          	li	a2,65
   10a8a:	37fd                	addiw	a5,a5,-1
   10a8c:	d5be                	sw	a5,232(sp)
   10a8e:	0ffcf713          	andi	a4,s9,255
   10a92:	4681                	li	a3,0
   10a94:	00c59663          	bne	a1,a2,10aa0 <_vfprintf_r+0x546>
   10a98:	273d                	addiw	a4,a4,15
   10a9a:	0ff77713          	andi	a4,a4,255
   10a9e:	4685                	li	a3,1
   10aa0:	0ee10823          	sb	a4,240(sp)
   10aa4:	02b00713          	li	a4,43
   10aa8:	0007d763          	bgez	a5,10ab6 <_vfprintf_r+0x55c>
   10aac:	6746                	ld	a4,80(sp)
   10aae:	4785                	li	a5,1
   10ab0:	9f99                	subw	a5,a5,a4
   10ab2:	02d00713          	li	a4,45
   10ab6:	0ee108a3          	sb	a4,241(sp)
   10aba:	4725                	li	a4,9
   10abc:	00f74463          	blt	a4,a5,10ac4 <_vfprintf_r+0x56a>
   10ac0:	56a0106f          	j	1202a <_vfprintf_r+0x1ad0>
   10ac4:	0ff10513          	addi	a0,sp,255
   10ac8:	85aa                	mv	a1,a0
   10aca:	46a9                	li	a3,10
   10acc:	06300e13          	li	t3,99
   10ad0:	02d7e73b          	remw	a4,a5,a3
   10ad4:	862e                	mv	a2,a1
   10ad6:	88be                	mv	a7,a5
   10ad8:	15fd                	addi	a1,a1,-1
   10ada:	0307071b          	addiw	a4,a4,48
   10ade:	fee60fa3          	sb	a4,-1(a2)
   10ae2:	02d7c7bb          	divw	a5,a5,a3
   10ae6:	ff1e45e3          	blt	t3,a7,10ad0 <_vfprintf_r+0x576>
   10aea:	0307879b          	addiw	a5,a5,48
   10aee:	0ff7f693          	andi	a3,a5,255
   10af2:	fed58fa3          	sb	a3,-1(a1)
   10af6:	ffe60793          	addi	a5,a2,-2
   10afa:	00a7e463          	bltu	a5,a0,10b02 <_vfprintf_r+0x5a8>
   10afe:	5f80106f          	j	120f6 <_vfprintf_r+0x1b9c>
   10b02:	0f210713          	addi	a4,sp,242
   10b06:	a019                	j	10b0c <_vfprintf_r+0x5b2>
   10b08:	0007c683          	lbu	a3,0(a5)
   10b0c:	00d70023          	sb	a3,0(a4) # ffffffffffffe000 <__BSS_END__+0xfffffffffffdf010>
   10b10:	0785                	addi	a5,a5,1
   10b12:	0705                	addi	a4,a4,1
   10b14:	fea79ae3          	bne	a5,a0,10b08 <_vfprintf_r+0x5ae>
   10b18:	10110793          	addi	a5,sp,257
   10b1c:	0f210713          	addi	a4,sp,242
   10b20:	8f91                	sub	a5,a5,a2
   10b22:	97ba                	add	a5,a5,a4
   10b24:	1998                	addi	a4,sp,240
   10b26:	9f99                	subw	a5,a5,a4
   10b28:	fcbe                	sd	a5,120(sp)
   10b2a:	77e6                	ld	a5,120(sp)
   10b2c:	7682                	ld	a3,32(sp)
   10b2e:	4705                	li	a4,1
   10b30:	00f68bbb          	addw	s7,a3,a5
   10b34:	87de                	mv	a5,s7
   10b36:	00d74463          	blt	a4,a3,10b3e <_vfprintf_r+0x5e4>
   10b3a:	52a0106f          	j	12064 <_vfprintf_r+0x1b0a>
   10b3e:	7726                	ld	a4,104(sp)
   10b40:	00e78bbb          	addw	s7,a5,a4
   10b44:	77aa                	ld	a5,168(sp)
   10b46:	fffbc913          	not	s2,s7
   10b4a:	43f95913          	srai	s2,s2,0x3f
   10b4e:	bff7f493          	andi	s1,a5,-1025
   10b52:	2481                	sext.w	s1,s1
   10b54:	012bf933          	and	s2,s7,s2
   10b58:	1004e493          	ori	s1,s1,256
   10b5c:	2901                	sext.w	s2,s2
   10b5e:	e482                	sd	zero,72(sp)
   10b60:	ec82                	sd	zero,88(sp)
   10b62:	e882                	sd	zero,80(sp)
   10b64:	67ae                	ld	a5,200(sp)
   10b66:	e399                	bnez	a5,10b6c <_vfprintf_r+0x612>
   10b68:	1240106f          	j	11c8c <_vfprintf_r+0x1732>
   10b6c:	02d00793          	li	a5,45
   10b70:	0cf10fa3          	sb	a5,223(sp)
   10b74:	4c01                	li	s8,0
   10b76:	2905                	addiw	s2,s2,1
   10b78:	b655                	j	1071c <_vfprintf_r+0x1c2>
   10b7a:	0a10                	addi	a2,sp,272
   10b7c:	85ce                	mv	a1,s3
   10b7e:	8552                	mv	a0,s4
   10b80:	f816                	sd	t0,48(sp)
   10b82:	59a070ef          	jal	ra,1811c <__sprint_r>
   10b86:	56051263          	bnez	a0,110ea <_vfprintf_r+0xb90>
   10b8a:	7792                	ld	a5,288(sp)
   10b8c:	72c2                	ld	t0,48(sp)
   10b8e:	835a                	mv	t1,s6
   10b90:	bee1                	j	10768 <_vfprintf_r+0x20e>
   10b92:	7746                	ld	a4,112(sp)
   10b94:	76a6                	ld	a3,104(sp)
   10b96:	0341                	addi	t1,t1,16
   10b98:	fee33823          	sd	a4,-16(t1)
   10b9c:	11812703          	lw	a4,280(sp)
   10ba0:	97b6                	add	a5,a5,a3
   10ba2:	fed33c23          	sd	a3,-8(t1)
   10ba6:	2705                	addiw	a4,a4,1
   10ba8:	0007069b          	sext.w	a3,a4
   10bac:	10e12c23          	sw	a4,280(sp)
   10bb0:	f23e                	sd	a5,288(sp)
   10bb2:	471d                	li	a4,7
   10bb4:	00d75e63          	bge	a4,a3,10bd0 <_vfprintf_r+0x676>
   10bb8:	0a10                	addi	a2,sp,272
   10bba:	85ce                	mv	a1,s3
   10bbc:	8552                	mv	a0,s4
   10bbe:	55e070ef          	jal	ra,1811c <__sprint_r>
   10bc2:	52051463          	bnez	a0,110ea <_vfprintf_r+0xb90>
   10bc6:	562e                	lw	a2,232(sp)
   10bc8:	7792                	ld	a5,288(sp)
   10bca:	11812683          	lw	a3,280(sp)
   10bce:	835a                	mv	t1,s6
   10bd0:	00065463          	bgez	a2,10bd8 <_vfprintf_r+0x67e>
   10bd4:	2420106f          	j	11e16 <_vfprintf_r+0x18bc>
   10bd8:	7702                	ld	a4,32(sp)
   10bda:	0016861b          	addiw	a2,a3,1
   10bde:	01a33023          	sd	s10,0(t1)
   10be2:	97ba                	add	a5,a5,a4
   10be4:	00e33423          	sd	a4,8(t1)
   10be8:	f23e                	sd	a5,288(sp)
   10bea:	10c12c23          	sw	a2,280(sp)
   10bee:	471d                	li	a4,7
   10bf0:	bcc75de3          	bge	a4,a2,107ca <_vfprintf_r+0x270>
   10bf4:	0a10                	addi	a2,sp,272
   10bf6:	85ce                	mv	a1,s3
   10bf8:	8552                	mv	a0,s4
   10bfa:	522070ef          	jal	ra,1811c <__sprint_r>
   10bfe:	4e051663          	bnez	a0,110ea <_vfprintf_r+0xb90>
   10c02:	7792                	ld	a5,288(sp)
   10c04:	835a                	mv	t1,s6
   10c06:	b6d9                	j	107cc <_vfprintf_r+0x272>
   10c08:	0104f793          	andi	a5,s1,16
   10c0c:	0e0797e3          	bnez	a5,114fa <_vfprintf_r+0xfa0>
   10c10:	66c2                	ld	a3,16(sp)
   10c12:	0404f793          	andi	a5,s1,64
   10c16:	0006a903          	lw	s2,0(a3)
   10c1a:	440783e3          	beqz	a5,11860 <_vfprintf_r+0x1306>
   10c1e:	1942                	slli	s2,s2,0x30
   10c20:	03095913          	srli	s2,s2,0x30
   10c24:	b1e5                	j	1090c <_vfprintf_r+0x3b2>
   10c26:	0104f793          	andi	a5,s1,16
   10c2a:	0c0793e3          	bnez	a5,114f0 <_vfprintf_r+0xf96>
   10c2e:	0404f793          	andi	a5,s1,64
   10c32:	400786e3          	beqz	a5,1183e <_vfprintf_r+0x12e4>
   10c36:	67c2                	ld	a5,16(sp)
   10c38:	00079903          	lh	s2,0(a5)
   10c3c:	87ca                	mv	a5,s2
   10c3e:	c607dae3          	bgez	a5,108b2 <_vfprintf_r+0x358>
   10c42:	02d00793          	li	a5,45
   10c46:	0cf10fa3          	sb	a5,223(sp)
   10c4a:	e83a                	sd	a4,16(sp)
   10c4c:	577d                	li	a4,-1
   10c4e:	41200933          	neg	s2,s2
   10c52:	8da6                	mv	s11,s1
   10c54:	4785                	li	a5,1
   10c56:	ccec16e3          	bne	s8,a4,10922 <_vfprintf_r+0x3c8>
   10c5a:	4705                	li	a4,1
   10c5c:	56e78563          	beq	a5,a4,111c6 <_vfprintf_r+0xc6c>
   10c60:	4709                	li	a4,2
   10c62:	26e78863          	beq	a5,a4,10ed2 <_vfprintf_r+0x978>
   10c66:	18c10b93          	addi	s7,sp,396
   10c6a:	8d5e                	mv	s10,s7
   10c6c:	00797793          	andi	a5,s2,7
   10c70:	03078793          	addi	a5,a5,48
   10c74:	fefd0fa3          	sb	a5,-1(s10)
   10c78:	00395913          	srli	s2,s2,0x3
   10c7c:	876a                	mv	a4,s10
   10c7e:	1d7d                	addi	s10,s10,-1
   10c80:	fe0916e3          	bnez	s2,10c6c <_vfprintf_r+0x712>
   10c84:	001df693          	andi	a3,s11,1
   10c88:	26068563          	beqz	a3,10ef2 <_vfprintf_r+0x998>
   10c8c:	03000693          	li	a3,48
   10c90:	26d78163          	beq	a5,a3,10ef2 <_vfprintf_r+0x998>
   10c94:	1779                	addi	a4,a4,-2
   10c96:	fedd0fa3          	sb	a3,-1(s10)
   10c9a:	40eb8bbb          	subw	s7,s7,a4
   10c9e:	84ee                	mv	s1,s11
   10ca0:	8d3a                	mv	s10,a4
   10ca2:	b90d                	j	108d4 <_vfprintf_r+0x37a>
   10ca4:	8552                	mv	a0,s4
   10ca6:	2c9010ef          	jal	ra,1276e <__sinit>
   10caa:	ba01                	j	105ba <_vfprintf_r+0x60>
   10cac:	67c2                	ld	a5,16(sp)
   10cae:	0c010fa3          	sb	zero,223(sp)
   10cb2:	0007bd03          	ld	s10,0(a5)
   10cb6:	00878d93          	addi	s11,a5,8
   10cba:	1a0d0de3          	beqz	s10,11674 <_vfprintf_r+0x111a>
   10cbe:	57fd                	li	a5,-1
   10cc0:	32fc0be3          	beq	s8,a5,117f6 <_vfprintf_r+0x129c>
   10cc4:	8662                	mv	a2,s8
   10cc6:	4581                	li	a1,0
   10cc8:	856a                	mv	a0,s10
   10cca:	e81a                	sd	t1,16(sp)
   10ccc:	79e040ef          	jal	ra,1546a <memchr>
   10cd0:	ec2a                	sd	a0,24(sp)
   10cd2:	6342                	ld	t1,16(sp)
   10cd4:	e119                	bnez	a0,10cda <_vfprintf_r+0x780>
   10cd6:	0b80106f          	j	11d8e <_vfprintf_r+0x1834>
   10cda:	67e2                	ld	a5,24(sp)
   10cdc:	e86e                	sd	s11,16(sp)
   10cde:	ec02                	sd	zero,24(sp)
   10ce0:	41a78bbb          	subw	s7,a5,s10
   10ce4:	fffbc913          	not	s2,s7
   10ce8:	0df14783          	lbu	a5,223(sp)
   10cec:	43f95913          	srai	s2,s2,0x3f
   10cf0:	012bf933          	and	s2,s7,s2
   10cf4:	e482                	sd	zero,72(sp)
   10cf6:	ec82                	sd	zero,88(sp)
   10cf8:	e882                	sd	zero,80(sp)
   10cfa:	2901                	sext.w	s2,s2
   10cfc:	4c01                	li	s8,0
   10cfe:	be0799e3          	bnez	a5,108f0 <_vfprintf_r+0x396>
   10d02:	bc29                	j	1071c <_vfprintf_r+0x1c2>
   10d04:	6742                	ld	a4,16(sp)
   10d06:	0c010fa3          	sb	zero,223(sp)
   10d0a:	4905                	li	s2,1
   10d0c:	431c                	lw	a5,0(a4)
   10d0e:	0721                	addi	a4,a4,8
   10d10:	e83a                	sd	a4,16(sp)
   10d12:	12f10423          	sb	a5,296(sp)
   10d16:	4b85                	li	s7,1
   10d18:	12810d13          	addi	s10,sp,296
   10d1c:	badd                	j	10712 <_vfprintf_r+0x1b8>
   10d1e:	00044e83          	lbu	t4,0(s0)
   10d22:	0044e493          	ori	s1,s1,4
   10d26:	2481                	sext.w	s1,s1
   10d28:	b249                	j	106aa <_vfprintf_r+0x150>
   10d2a:	02b00793          	li	a5,43
   10d2e:	00044e83          	lbu	t4,0(s0)
   10d32:	0cf10fa3          	sb	a5,223(sp)
   10d36:	ba95                	j	106aa <_vfprintf_r+0x150>
   10d38:	0804e493          	ori	s1,s1,128
   10d3c:	00044e83          	lbu	t4,0(s0)
   10d40:	2481                	sext.w	s1,s1
   10d42:	b2a5                	j	106aa <_vfprintf_r+0x150>
   10d44:	00044c83          	lbu	s9,0(s0)
   10d48:	00140793          	addi	a5,s0,1
   10d4c:	00dc9463          	bne	s9,a3,10d54 <_vfprintf_r+0x7fa>
   10d50:	3780106f          	j	120c8 <_vfprintf_r+0x1b6e>
   10d54:	fd0c871b          	addiw	a4,s9,-48
   10d58:	843e                	mv	s0,a5
   10d5a:	4c01                	li	s8,0
   10d5c:	94edece3          	bltu	s11,a4,106b4 <_vfprintf_r+0x15a>
   10d60:	00044c83          	lbu	s9,0(s0)
   10d64:	002c179b          	slliw	a5,s8,0x2
   10d68:	01878e3b          	addw	t3,a5,s8
   10d6c:	001e1e1b          	slliw	t3,t3,0x1
   10d70:	00ee0c3b          	addw	s8,t3,a4
   10d74:	fd0c871b          	addiw	a4,s9,-48
   10d78:	0405                	addi	s0,s0,1
   10d7a:	feedf3e3          	bgeu	s11,a4,10d60 <_vfprintf_r+0x806>
   10d7e:	ba1d                	j	106b4 <_vfprintf_r+0x15a>
   10d80:	67c2                	ld	a5,16(sp)
   10d82:	00044e83          	lbu	t4,0(s0)
   10d86:	0007aa83          	lw	s5,0(a5)
   10d8a:	07a1                	addi	a5,a5,8
   10d8c:	e83e                	sd	a5,16(sp)
   10d8e:	900adee3          	bgez	s5,106aa <_vfprintf_r+0x150>
   10d92:	41500abb          	negw	s5,s5
   10d96:	b771                	j	10d22 <_vfprintf_r+0x7c8>
   10d98:	8552                	mv	a0,s4
   10d9a:	ec1a                	sd	t1,24(sp)
   10d9c:	6c9030ef          	jal	ra,14c64 <_localeconv_r>
   10da0:	651c                	ld	a5,8(a0)
   10da2:	853e                	mv	a0,a5
   10da4:	e53e                	sd	a5,136(sp)
   10da6:	670050ef          	jal	ra,16416 <strlen>
   10daa:	87aa                	mv	a5,a0
   10dac:	8552                	mv	a0,s4
   10dae:	8cbe                	mv	s9,a5
   10db0:	e13e                	sd	a5,128(sp)
   10db2:	6b3030ef          	jal	ra,14c64 <_localeconv_r>
   10db6:	691c                	ld	a5,16(a0)
   10db8:	6362                	ld	t1,24(sp)
   10dba:	00044e83          	lbu	t4,0(s0)
   10dbe:	f0be                	sd	a5,96(sp)
   10dc0:	8e0c85e3          	beqz	s9,106aa <_vfprintf_r+0x150>
   10dc4:	8e0783e3          	beqz	a5,106aa <_vfprintf_r+0x150>
   10dc8:	0007c783          	lbu	a5,0(a5)
   10dcc:	8c078fe3          	beqz	a5,106aa <_vfprintf_r+0x150>
   10dd0:	4004e493          	ori	s1,s1,1024
   10dd4:	2481                	sext.w	s1,s1
   10dd6:	b8d1                	j	106aa <_vfprintf_r+0x150>
   10dd8:	0014e493          	ori	s1,s1,1
   10ddc:	00044e83          	lbu	t4,0(s0)
   10de0:	2481                	sext.w	s1,s1
   10de2:	b0e1                	j	106aa <_vfprintf_r+0x150>
   10de4:	0df14783          	lbu	a5,223(sp)
   10de8:	00044e83          	lbu	t4,0(s0)
   10dec:	8a079fe3          	bnez	a5,106aa <_vfprintf_r+0x150>
   10df0:	02000793          	li	a5,32
   10df4:	0cf10fa3          	sb	a5,223(sp)
   10df8:	b84d                	j	106aa <_vfprintf_r+0x150>
   10dfa:	0084e493          	ori	s1,s1,8
   10dfe:	00044e83          	lbu	t4,0(s0)
   10e02:	2481                	sext.w	s1,s1
   10e04:	b05d                	j	106aa <_vfprintf_r+0x150>
   10e06:	0104e493          	ori	s1,s1,16
   10e0a:	00048d9b          	sext.w	s11,s1
   10e0e:	66c2                	ld	a3,16(sp)
   10e10:	020df793          	andi	a5,s11,32
   10e14:	00868713          	addi	a4,a3,8
   10e18:	68078a63          	beqz	a5,114ac <_vfprintf_r+0xf52>
   10e1c:	0006b903          	ld	s2,0(a3)
   10e20:	4785                	li	a5,1
   10e22:	e83a                	sd	a4,16(sp)
   10e24:	bcd5                	j	10918 <_vfprintf_r+0x3be>
   10e26:	0204e493          	ori	s1,s1,32
   10e2a:	00044e83          	lbu	t4,0(s0)
   10e2e:	2481                	sext.w	s1,s1
   10e30:	b8ad                	j	106aa <_vfprintf_r+0x150>
   10e32:	6742                	ld	a4,16(sp)
   10e34:	77e1                	lui	a5,0xffff8
   10e36:	8307c793          	xori	a5,a5,-2000
   10e3a:	0ef11023          	sh	a5,224(sp)
   10e3e:	00870793          	addi	a5,a4,8
   10e42:	e83e                	sd	a5,16(sp)
   10e44:	67f1                	lui	a5,0x1c
   10e46:	12078793          	addi	a5,a5,288 # 1c120 <__clzdi2+0x12e>
   10e4a:	0024e493          	ori	s1,s1,2
   10e4e:	f43e                	sd	a5,40(sp)
   10e50:	00073903          	ld	s2,0(a4)
   10e54:	00048d9b          	sext.w	s11,s1
   10e58:	4789                	li	a5,2
   10e5a:	07800c93          	li	s9,120
   10e5e:	bc6d                	j	10918 <_vfprintf_r+0x3be>
   10e60:	66c2                	ld	a3,16(sp)
   10e62:	0204f793          	andi	a5,s1,32
   10e66:	6298                	ld	a4,0(a3)
   10e68:	06a1                	addi	a3,a3,8
   10e6a:	e836                	sd	a3,16(sp)
   10e6c:	66079663          	bnez	a5,114d8 <_vfprintf_r+0xf7e>
   10e70:	0104f793          	andi	a5,s1,16
   10e74:	66079263          	bnez	a5,114d8 <_vfprintf_r+0xf7e>
   10e78:	0404f793          	andi	a5,s1,64
   10e7c:	3e0799e3          	bnez	a5,11a6e <_vfprintf_r+0x1514>
   10e80:	2004f493          	andi	s1,s1,512
   10e84:	67a2                	ld	a5,8(sp)
   10e86:	e099                	bnez	s1,10e8c <_vfprintf_r+0x932>
   10e88:	0a20106f          	j	11f2a <_vfprintf_r+0x19d0>
   10e8c:	00f70023          	sb	a5,0(a4)
   10e90:	8d22                	mv	s10,s0
   10e92:	b2b5                	j	107fe <_vfprintf_r+0x2a4>
   10e94:	00044e83          	lbu	t4,0(s0)
   10e98:	06c00793          	li	a5,108
   10e9c:	7afe8563          	beq	t4,a5,11646 <_vfprintf_r+0x10ec>
   10ea0:	0104e493          	ori	s1,s1,16
   10ea4:	2481                	sext.w	s1,s1
   10ea6:	805ff06f          	j	106aa <_vfprintf_r+0x150>
   10eaa:	00044e83          	lbu	t4,0(s0)
   10eae:	06800793          	li	a5,104
   10eb2:	78fe8263          	beq	t4,a5,11636 <_vfprintf_r+0x10dc>
   10eb6:	0404e493          	ori	s1,s1,64
   10eba:	2481                	sext.w	s1,s1
   10ebc:	feeff06f          	j	106aa <_vfprintf_r+0x150>
   10ec0:	4705                	li	a4,1
   10ec2:	00e79463          	bne	a5,a4,10eca <_vfprintf_r+0x970>
   10ec6:	0580106f          	j	11f1e <_vfprintf_r+0x19c4>
   10eca:	4709                	li	a4,2
   10ecc:	8da6                	mv	s11,s1
   10ece:	d8e79ce3          	bne	a5,a4,10c66 <_vfprintf_r+0x70c>
   10ed2:	18c10b93          	addi	s7,sp,396
   10ed6:	8d5e                	mv	s10,s7
   10ed8:	7722                	ld	a4,40(sp)
   10eda:	00f97793          	andi	a5,s2,15
   10ede:	1d7d                	addi	s10,s10,-1
   10ee0:	97ba                	add	a5,a5,a4
   10ee2:	0007c783          	lbu	a5,0(a5)
   10ee6:	00495913          	srli	s2,s2,0x4
   10eea:	00fd0023          	sb	a5,0(s10)
   10eee:	fe0915e3          	bnez	s2,10ed8 <_vfprintf_r+0x97e>
   10ef2:	41ab8bbb          	subw	s7,s7,s10
   10ef6:	84ee                	mv	s1,s11
   10ef8:	baf1                	j	108d4 <_vfprintf_r+0x37a>
   10efa:	06500713          	li	a4,101
   10efe:	1f975f63          	bge	a4,s9,110fc <_vfprintf_r+0xba2>
   10f02:	6512                	ld	a0,256(sp)
   10f04:	65b2                	ld	a1,264(sp)
   10f06:	4601                	li	a2,0
   10f08:	4681                	li	a3,0
   10f0a:	fc3e                	sd	a5,56(sp)
   10f0c:	f81a                	sd	t1,48(sp)
   10f0e:	4f3090ef          	jal	ra,1ac00 <__eqtf2>
   10f12:	7342                	ld	t1,48(sp)
   10f14:	77e2                	ld	a5,56(sp)
   10f16:	3e051d63          	bnez	a0,11310 <_vfprintf_r+0xdb6>
   10f1a:	11812703          	lw	a4,280(sp)
   10f1e:	66f1                	lui	a3,0x1c
   10f20:	14068693          	addi	a3,a3,320 # 1c140 <__clzdi2+0x14e>
   10f24:	2705                	addiw	a4,a4,1
   10f26:	00d33023          	sd	a3,0(t1)
   10f2a:	0785                	addi	a5,a5,1
   10f2c:	4685                	li	a3,1
   10f2e:	00d33423          	sd	a3,8(t1)
   10f32:	10e12c23          	sw	a4,280(sp)
   10f36:	0007069b          	sext.w	a3,a4
   10f3a:	f23e                	sd	a5,288(sp)
   10f3c:	471d                	li	a4,7
   10f3e:	0341                	addi	t1,t1,16
   10f40:	04d748e3          	blt	a4,a3,11790 <_vfprintf_r+0x1236>
   10f44:	572e                	lw	a4,232(sp)
   10f46:	7682                	ld	a3,32(sp)
   10f48:	58d75363          	bge	a4,a3,114ce <_vfprintf_r+0xf74>
   10f4c:	7746                	ld	a4,112(sp)
   10f4e:	76a6                	ld	a3,104(sp)
   10f50:	0341                	addi	t1,t1,16
   10f52:	fee33823          	sd	a4,-16(t1)
   10f56:	11812703          	lw	a4,280(sp)
   10f5a:	97b6                	add	a5,a5,a3
   10f5c:	fed33c23          	sd	a3,-8(t1)
   10f60:	2705                	addiw	a4,a4,1
   10f62:	0007069b          	sext.w	a3,a4
   10f66:	10e12c23          	sw	a4,280(sp)
   10f6a:	f23e                	sd	a5,288(sp)
   10f6c:	471d                	li	a4,7
   10f6e:	6ed74463          	blt	a4,a3,11656 <_vfprintf_r+0x10fc>
   10f72:	7702                	ld	a4,32(sp)
   10f74:	fff70b9b          	addiw	s7,a4,-1
   10f78:	85705ae3          	blez	s7,107cc <_vfprintf_r+0x272>
   10f7c:	68f1                	lui	a7,0x1c
   10f7e:	46c1                	li	a3,16
   10f80:	11812703          	lw	a4,280(sp)
   10f84:	2c888d93          	addi	s11,a7,712 # 1c2c8 <zeroes.4521>
   10f88:	4cc1                	li	s9,16
   10f8a:	4c1d                	li	s8,7
   10f8c:	0176c763          	blt	a3,s7,10f9a <_vfprintf_r+0xa40>
   10f90:	0170006f          	j	117a6 <_vfprintf_r+0x124c>
   10f94:	3bc1                	addiw	s7,s7,-16
   10f96:	017cd8e3          	bge	s9,s7,117a6 <_vfprintf_r+0x124c>
   10f9a:	2705                	addiw	a4,a4,1
   10f9c:	07c1                	addi	a5,a5,16
   10f9e:	01b33023          	sd	s11,0(t1)
   10fa2:	01933423          	sd	s9,8(t1)
   10fa6:	f23e                	sd	a5,288(sp)
   10fa8:	10e12c23          	sw	a4,280(sp)
   10fac:	0341                	addi	t1,t1,16
   10fae:	feec53e3          	bge	s8,a4,10f94 <_vfprintf_r+0xa3a>
   10fb2:	0a10                	addi	a2,sp,272
   10fb4:	85ce                	mv	a1,s3
   10fb6:	8552                	mv	a0,s4
   10fb8:	164070ef          	jal	ra,1811c <__sprint_r>
   10fbc:	12051763          	bnez	a0,110ea <_vfprintf_r+0xb90>
   10fc0:	7792                	ld	a5,288(sp)
   10fc2:	11812703          	lw	a4,280(sp)
   10fc6:	835a                	mv	t1,s6
   10fc8:	b7f1                	j	10f94 <_vfprintf_r+0xa3a>
   10fca:	412a86bb          	subw	a3,s5,s2
   10fce:	fcd05663          	blez	a3,1079a <_vfprintf_r+0x240>
   10fd2:	68f1                	lui	a7,0x1c
   10fd4:	4641                	li	a2,16
   10fd6:	11812703          	lw	a4,280(sp)
   10fda:	2c888d93          	addi	s11,a7,712 # 1c2c8 <zeroes.4521>
   10fde:	4f41                	li	t5,16
   10fe0:	4f9d                	li	t6,7
   10fe2:	00d64663          	blt	a2,a3,10fee <_vfprintf_r+0xa94>
   10fe6:	a089                	j	11028 <_vfprintf_r+0xace>
   10fe8:	36c1                	addiw	a3,a3,-16
   10fea:	02df5f63          	bge	t5,a3,11028 <_vfprintf_r+0xace>
   10fee:	2705                	addiw	a4,a4,1
   10ff0:	07c1                	addi	a5,a5,16
   10ff2:	01b33023          	sd	s11,0(t1)
   10ff6:	01e33423          	sd	t5,8(t1)
   10ffa:	f23e                	sd	a5,288(sp)
   10ffc:	10e12c23          	sw	a4,280(sp)
   11000:	0341                	addi	t1,t1,16
   11002:	feefd3e3          	bge	t6,a4,10fe8 <_vfprintf_r+0xa8e>
   11006:	0a10                	addi	a2,sp,272
   11008:	85ce                	mv	a1,s3
   1100a:	8552                	mv	a0,s4
   1100c:	f836                	sd	a3,48(sp)
   1100e:	10e070ef          	jal	ra,1811c <__sprint_r>
   11012:	ed61                	bnez	a0,110ea <_vfprintf_r+0xb90>
   11014:	76c2                	ld	a3,48(sp)
   11016:	4f41                	li	t5,16
   11018:	7792                	ld	a5,288(sp)
   1101a:	36c1                	addiw	a3,a3,-16
   1101c:	11812703          	lw	a4,280(sp)
   11020:	835a                	mv	t1,s6
   11022:	4f9d                	li	t6,7
   11024:	fcdf45e3          	blt	t5,a3,10fee <_vfprintf_r+0xa94>
   11028:	2705                	addiw	a4,a4,1
   1102a:	97b6                	add	a5,a5,a3
   1102c:	00d33423          	sd	a3,8(t1)
   11030:	01b33023          	sd	s11,0(t1)
   11034:	0007069b          	sext.w	a3,a4
   11038:	10e12c23          	sw	a4,280(sp)
   1103c:	f23e                	sd	a5,288(sp)
   1103e:	471d                	li	a4,7
   11040:	0341                	addi	t1,t1,16
   11042:	f4d75c63          	bge	a4,a3,1079a <_vfprintf_r+0x240>
   11046:	0a10                	addi	a2,sp,272
   11048:	85ce                	mv	a1,s3
   1104a:	8552                	mv	a0,s4
   1104c:	0d0070ef          	jal	ra,1811c <__sprint_r>
   11050:	ed49                	bnez	a0,110ea <_vfprintf_r+0xb90>
   11052:	7792                	ld	a5,288(sp)
   11054:	835a                	mv	t1,s6
   11056:	f44ff06f          	j	1079a <_vfprintf_r+0x240>
   1105a:	68f1                	lui	a7,0x1c
   1105c:	46c1                	li	a3,16
   1105e:	11812703          	lw	a4,280(sp)
   11062:	2c888d93          	addi	s11,a7,712 # 1c2c8 <zeroes.4521>
   11066:	4f41                	li	t5,16
   11068:	4f9d                	li	t6,7
   1106a:	0186c663          	blt	a3,s8,11076 <_vfprintf_r+0xb1c>
   1106e:	a83d                	j	110ac <_vfprintf_r+0xb52>
   11070:	3c41                	addiw	s8,s8,-16
   11072:	038f5d63          	bge	t5,s8,110ac <_vfprintf_r+0xb52>
   11076:	2705                	addiw	a4,a4,1
   11078:	07c1                	addi	a5,a5,16
   1107a:	01b33023          	sd	s11,0(t1)
   1107e:	01e33423          	sd	t5,8(t1)
   11082:	f23e                	sd	a5,288(sp)
   11084:	10e12c23          	sw	a4,280(sp)
   11088:	0341                	addi	t1,t1,16
   1108a:	feefd3e3          	bge	t6,a4,11070 <_vfprintf_r+0xb16>
   1108e:	0a10                	addi	a2,sp,272
   11090:	85ce                	mv	a1,s3
   11092:	8552                	mv	a0,s4
   11094:	088070ef          	jal	ra,1811c <__sprint_r>
   11098:	e929                	bnez	a0,110ea <_vfprintf_r+0xb90>
   1109a:	4f41                	li	t5,16
   1109c:	3c41                	addiw	s8,s8,-16
   1109e:	7792                	ld	a5,288(sp)
   110a0:	11812703          	lw	a4,280(sp)
   110a4:	835a                	mv	t1,s6
   110a6:	4f9d                	li	t6,7
   110a8:	fd8f47e3          	blt	t5,s8,11076 <_vfprintf_r+0xb1c>
   110ac:	0017069b          	addiw	a3,a4,1
   110b0:	97e2                	add	a5,a5,s8
   110b2:	01b33023          	sd	s11,0(t1)
   110b6:	01833423          	sd	s8,8(t1)
   110ba:	f23e                	sd	a5,288(sp)
   110bc:	10d12c23          	sw	a3,280(sp)
   110c0:	471d                	li	a4,7
   110c2:	0341                	addi	t1,t1,16
   110c4:	ecd75f63          	bge	a4,a3,107a2 <_vfprintf_r+0x248>
   110c8:	0a10                	addi	a2,sp,272
   110ca:	85ce                	mv	a1,s3
   110cc:	8552                	mv	a0,s4
   110ce:	04e070ef          	jal	ra,1811c <__sprint_r>
   110d2:	ed01                	bnez	a0,110ea <_vfprintf_r+0xb90>
   110d4:	7792                	ld	a5,288(sp)
   110d6:	835a                	mv	t1,s6
   110d8:	ecaff06f          	j	107a2 <_vfprintf_r+0x248>
   110dc:	0a10                	addi	a2,sp,272
   110de:	85ce                	mv	a1,s3
   110e0:	8552                	mv	a0,s4
   110e2:	03a070ef          	jal	ra,1811c <__sprint_r>
   110e6:	f0050263          	beqz	a0,107ea <_vfprintf_r+0x290>
   110ea:	67e2                	ld	a5,24(sp)
   110ec:	f2078163          	beqz	a5,1080e <_vfprintf_r+0x2b4>
   110f0:	85be                	mv	a1,a5
   110f2:	8552                	mv	a0,s4
   110f4:	7a6010ef          	jal	ra,1289a <_free_r>
   110f8:	f16ff06f          	j	1080e <_vfprintf_r+0x2b4>
   110fc:	11812603          	lw	a2,280(sp)
   11100:	00178c13          	addi	s8,a5,1
   11104:	7782                	ld	a5,32(sp)
   11106:	0016071b          	addiw	a4,a2,1
   1110a:	4585                	li	a1,1
   1110c:	01a33023          	sd	s10,0(t1)
   11110:	86ba                	mv	a3,a4
   11112:	01030b93          	addi	s7,t1,16
   11116:	32f5d163          	bge	a1,a5,11438 <_vfprintf_r+0xede>
   1111a:	4605                	li	a2,1
   1111c:	10d12c23          	sw	a3,280(sp)
   11120:	00c33423          	sd	a2,8(t1)
   11124:	f262                	sd	s8,288(sp)
   11126:	469d                	li	a3,7
   11128:	5ae6cf63          	blt	a3,a4,116e6 <_vfprintf_r+0x118c>
   1112c:	77a6                	ld	a5,104(sp)
   1112e:	0017069b          	addiw	a3,a4,1
   11132:	7746                	ld	a4,112(sp)
   11134:	9c3e                	add	s8,s8,a5
   11136:	00fbb423          	sd	a5,8(s7)
   1113a:	00ebb023          	sd	a4,0(s7)
   1113e:	10d12c23          	sw	a3,280(sp)
   11142:	0006871b          	sext.w	a4,a3
   11146:	f262                	sd	s8,288(sp)
   11148:	469d                	li	a3,7
   1114a:	0bc1                	addi	s7,s7,16
   1114c:	5ae6c963          	blt	a3,a4,116fe <_vfprintf_r+0x11a4>
   11150:	6512                	ld	a0,256(sp)
   11152:	65b2                	ld	a1,264(sp)
   11154:	00170e1b          	addiw	t3,a4,1
   11158:	4601                	li	a2,0
   1115a:	4681                	li	a3,0
   1115c:	f872                	sd	t3,48(sp)
   1115e:	fc3a                	sd	a4,56(sp)
   11160:	2a1090ef          	jal	ra,1ac00 <__eqtf2>
   11164:	7e42                	ld	t3,48(sp)
   11166:	7782                	ld	a5,32(sp)
   11168:	010b8313          	addi	t1,s7,16
   1116c:	000e061b          	sext.w	a2,t3
   11170:	fff78c9b          	addiw	s9,a5,-1
   11174:	2e050263          	beqz	a0,11458 <_vfprintf_r+0xefe>
   11178:	001d0813          	addi	a6,s10,1
   1117c:	9c66                	add	s8,s8,s9
   1117e:	010bb023          	sd	a6,0(s7)
   11182:	019bb423          	sd	s9,8(s7)
   11186:	f262                	sd	s8,288(sp)
   11188:	11c12c23          	sw	t3,280(sp)
   1118c:	469d                	li	a3,7
   1118e:	44c6c063          	blt	a3,a2,115ce <_vfprintf_r+0x1074>
   11192:	7762                	ld	a4,56(sp)
   11194:	020b8693          	addi	a3,s7,32
   11198:	8b9a                	mv	s7,t1
   1119a:	0027061b          	addiw	a2,a4,2
   1119e:	8336                	mv	t1,a3
   111a0:	76e6                	ld	a3,120(sp)
   111a2:	1998                	addi	a4,sp,240
   111a4:	00ebb023          	sd	a4,0(s7)
   111a8:	00dc07b3          	add	a5,s8,a3
   111ac:	00dbb423          	sd	a3,8(s7)
   111b0:	f23e                	sd	a5,288(sp)
   111b2:	10c12c23          	sw	a2,280(sp)
   111b6:	471d                	li	a4,7
   111b8:	e0c75a63          	bge	a4,a2,107cc <_vfprintf_r+0x272>
   111bc:	bc25                	j	10bf4 <_vfprintf_r+0x69a>
   111be:	4705                	li	a4,1
   111c0:	8da6                	mv	s11,s1
   111c2:	a8e79fe3          	bne	a5,a4,10c60 <_vfprintf_r+0x706>
   111c6:	47a5                	li	a5,9
   111c8:	3527ee63          	bltu	a5,s2,11524 <_vfprintf_r+0xfca>
   111cc:	0309091b          	addiw	s2,s2,48
   111d0:	192105a3          	sb	s2,395(sp)
   111d4:	84ee                	mv	s1,s11
   111d6:	4b85                	li	s7,1
   111d8:	18b10d13          	addi	s10,sp,395
   111dc:	ef8ff06f          	j	108d4 <_vfprintf_r+0x37a>
   111e0:	68f1                	lui	a7,0x1c
   111e2:	4641                	li	a2,16
   111e4:	11812703          	lw	a4,280(sp)
   111e8:	2b888893          	addi	a7,a7,696 # 1c2b8 <blanks.4520>
   111ec:	4f41                	li	t5,16
   111ee:	439d                	li	t2,7
   111f0:	00d64663          	blt	a2,a3,111fc <_vfprintf_r+0xca2>
   111f4:	a0b1                	j	11240 <_vfprintf_r+0xce6>
   111f6:	36c1                	addiw	a3,a3,-16
   111f8:	04df5463          	bge	t5,a3,11240 <_vfprintf_r+0xce6>
   111fc:	2705                	addiw	a4,a4,1
   111fe:	07c1                	addi	a5,a5,16
   11200:	01133023          	sd	a7,0(t1)
   11204:	01e33423          	sd	t5,8(t1)
   11208:	f23e                	sd	a5,288(sp)
   1120a:	10e12c23          	sw	a4,280(sp)
   1120e:	0341                	addi	t1,t1,16
   11210:	fee3d3e3          	bge	t2,a4,111f6 <_vfprintf_r+0xc9c>
   11214:	0a10                	addi	a2,sp,272
   11216:	85ce                	mv	a1,s3
   11218:	8552                	mv	a0,s4
   1121a:	e0c6                	sd	a7,64(sp)
   1121c:	fc16                	sd	t0,56(sp)
   1121e:	f836                	sd	a3,48(sp)
   11220:	6fd060ef          	jal	ra,1811c <__sprint_r>
   11224:	ec0513e3          	bnez	a0,110ea <_vfprintf_r+0xb90>
   11228:	76c2                	ld	a3,48(sp)
   1122a:	4f41                	li	t5,16
   1122c:	7792                	ld	a5,288(sp)
   1122e:	36c1                	addiw	a3,a3,-16
   11230:	11812703          	lw	a4,280(sp)
   11234:	6886                	ld	a7,64(sp)
   11236:	72e2                	ld	t0,56(sp)
   11238:	835a                	mv	t1,s6
   1123a:	439d                	li	t2,7
   1123c:	fcdf40e3          	blt	t5,a3,111fc <_vfprintf_r+0xca2>
   11240:	2705                	addiw	a4,a4,1
   11242:	97b6                	add	a5,a5,a3
   11244:	00d33423          	sd	a3,8(t1)
   11248:	01133023          	sd	a7,0(t1)
   1124c:	0007069b          	sext.w	a3,a4
   11250:	10e12c23          	sw	a4,280(sp)
   11254:	f23e                	sd	a5,288(sp)
   11256:	471d                	li	a4,7
   11258:	0341                	addi	t1,t1,16
   1125a:	ced75063          	bge	a4,a3,1073a <_vfprintf_r+0x1e0>
   1125e:	0a10                	addi	a2,sp,272
   11260:	85ce                	mv	a1,s3
   11262:	8552                	mv	a0,s4
   11264:	f816                	sd	t0,48(sp)
   11266:	6b7060ef          	jal	ra,1811c <__sprint_r>
   1126a:	e80510e3          	bnez	a0,110ea <_vfprintf_r+0xb90>
   1126e:	7792                	ld	a5,288(sp)
   11270:	72c2                	ld	t0,48(sp)
   11272:	835a                	mv	t1,s6
   11274:	cc6ff06f          	j	1073a <_vfprintf_r+0x1e0>
   11278:	0a10                	addi	a2,sp,272
   1127a:	85ce                	mv	a1,s3
   1127c:	8552                	mv	a0,s4
   1127e:	69f060ef          	jal	ra,1811c <__sprint_r>
   11282:	e60514e3          	bnez	a0,110ea <_vfprintf_r+0xb90>
   11286:	7792                	ld	a5,288(sp)
   11288:	835a                	mv	t1,s6
   1128a:	d08ff06f          	j	10792 <_vfprintf_r+0x238>
   1128e:	68f1                	lui	a7,0x1c
   11290:	46c1                	li	a3,16
   11292:	11812703          	lw	a4,280(sp)
   11296:	2b888893          	addi	a7,a7,696 # 1c2b8 <blanks.4520>
   1129a:	4bc1                	li	s7,16
   1129c:	4c1d                	li	s8,7
   1129e:	0096c663          	blt	a3,s1,112aa <_vfprintf_r+0xd50>
   112a2:	a081                	j	112e2 <_vfprintf_r+0xd88>
   112a4:	34c1                	addiw	s1,s1,-16
   112a6:	029bde63          	bge	s7,s1,112e2 <_vfprintf_r+0xd88>
   112aa:	2705                	addiw	a4,a4,1
   112ac:	07c1                	addi	a5,a5,16
   112ae:	01133023          	sd	a7,0(t1)
   112b2:	01733423          	sd	s7,8(t1)
   112b6:	f23e                	sd	a5,288(sp)
   112b8:	10e12c23          	sw	a4,280(sp)
   112bc:	0341                	addi	t1,t1,16
   112be:	feec53e3          	bge	s8,a4,112a4 <_vfprintf_r+0xd4a>
   112c2:	0a10                	addi	a2,sp,272
   112c4:	85ce                	mv	a1,s3
   112c6:	8552                	mv	a0,s4
   112c8:	f846                	sd	a7,48(sp)
   112ca:	653060ef          	jal	ra,1811c <__sprint_r>
   112ce:	e0051ee3          	bnez	a0,110ea <_vfprintf_r+0xb90>
   112d2:	34c1                	addiw	s1,s1,-16
   112d4:	7792                	ld	a5,288(sp)
   112d6:	11812703          	lw	a4,280(sp)
   112da:	78c2                	ld	a7,48(sp)
   112dc:	835a                	mv	t1,s6
   112de:	fc9bc6e3          	blt	s7,s1,112aa <_vfprintf_r+0xd50>
   112e2:	0017069b          	addiw	a3,a4,1
   112e6:	97a6                	add	a5,a5,s1
   112e8:	01133023          	sd	a7,0(t1)
   112ec:	00933423          	sd	s1,8(t1)
   112f0:	f23e                	sd	a5,288(sp)
   112f2:	10d12c23          	sw	a3,280(sp)
   112f6:	471d                	li	a4,7
   112f8:	ced75063          	bge	a4,a3,107d8 <_vfprintf_r+0x27e>
   112fc:	0a10                	addi	a2,sp,272
   112fe:	85ce                	mv	a1,s3
   11300:	8552                	mv	a0,s4
   11302:	61b060ef          	jal	ra,1811c <__sprint_r>
   11306:	de0512e3          	bnez	a0,110ea <_vfprintf_r+0xb90>
   1130a:	7792                	ld	a5,288(sp)
   1130c:	cccff06f          	j	107d8 <_vfprintf_r+0x27e>
   11310:	562e                	lw	a2,232(sp)
   11312:	40c05263          	blez	a2,11716 <_vfprintf_r+0x11bc>
   11316:	6746                	ld	a4,80(sp)
   11318:	7682                	ld	a3,32(sp)
   1131a:	00070b9b          	sext.w	s7,a4
   1131e:	28e6c463          	blt	a3,a4,115a6 <_vfprintf_r+0x104c>
   11322:	03705263          	blez	s7,11346 <_vfprintf_r+0xdec>
   11326:	11812703          	lw	a4,280(sp)
   1132a:	97de                	add	a5,a5,s7
   1132c:	01a33023          	sd	s10,0(t1)
   11330:	0017069b          	addiw	a3,a4,1
   11334:	01733423          	sd	s7,8(t1)
   11338:	f23e                	sd	a5,288(sp)
   1133a:	10d12c23          	sw	a3,280(sp)
   1133e:	471d                	li	a4,7
   11340:	0341                	addi	t1,t1,16
   11342:	6ed74d63          	blt	a4,a3,11a3c <_vfprintf_r+0x14e2>
   11346:	fffbc713          	not	a4,s7
   1134a:	977d                	srai	a4,a4,0x3f
   1134c:	00ebfbb3          	and	s7,s7,a4
   11350:	6746                	ld	a4,80(sp)
   11352:	41770bbb          	subw	s7,a4,s7
   11356:	33704b63          	bgtz	s7,1168c <_vfprintf_r+0x1132>
   1135a:	66c6                	ld	a3,80(sp)
   1135c:	4004f713          	andi	a4,s1,1024
   11360:	00dd0c33          	add	s8,s10,a3
   11364:	54071b63          	bnez	a4,118ba <_vfprintf_r+0x1360>
   11368:	572e                	lw	a4,232(sp)
   1136a:	7682                	ld	a3,32(sp)
   1136c:	00d74663          	blt	a4,a3,11378 <_vfprintf_r+0xe1e>
   11370:	0014f693          	andi	a3,s1,1
   11374:	6e068063          	beqz	a3,11a54 <_vfprintf_r+0x14fa>
   11378:	76c6                	ld	a3,112(sp)
   1137a:	7626                	ld	a2,104(sp)
   1137c:	0341                	addi	t1,t1,16
   1137e:	fed33823          	sd	a3,-16(t1)
   11382:	11812683          	lw	a3,280(sp)
   11386:	97b2                	add	a5,a5,a2
   11388:	fec33c23          	sd	a2,-8(t1)
   1138c:	2685                	addiw	a3,a3,1
   1138e:	0006861b          	sext.w	a2,a3
   11392:	10d12c23          	sw	a3,280(sp)
   11396:	f23e                	sd	a5,288(sp)
   11398:	469d                	li	a3,7
   1139a:	12c6cae3          	blt	a3,a2,11cce <_vfprintf_r+0x1774>
   1139e:	7682                	ld	a3,32(sp)
   113a0:	40e6863b          	subw	a2,a3,a4
   113a4:	96ea                	add	a3,a3,s10
   113a6:	418686bb          	subw	a3,a3,s8
   113aa:	8732                	mv	a4,a2
   113ac:	00c6d363          	bge	a3,a2,113b2 <_vfprintf_r+0xe58>
   113b0:	8736                	mv	a4,a3
   113b2:	00070b9b          	sext.w	s7,a4
   113b6:	03705263          	blez	s7,113da <_vfprintf_r+0xe80>
   113ba:	11812703          	lw	a4,280(sp)
   113be:	97de                	add	a5,a5,s7
   113c0:	01833023          	sd	s8,0(t1)
   113c4:	0017069b          	addiw	a3,a4,1
   113c8:	01733423          	sd	s7,8(t1)
   113cc:	f23e                	sd	a5,288(sp)
   113ce:	10d12c23          	sw	a3,280(sp)
   113d2:	471d                	li	a4,7
   113d4:	0341                	addi	t1,t1,16
   113d6:	1cd74ae3          	blt	a4,a3,11daa <_vfprintf_r+0x1850>
   113da:	fffbc713          	not	a4,s7
   113de:	977d                	srai	a4,a4,0x3f
   113e0:	00ebfbb3          	and	s7,s7,a4
   113e4:	41760bbb          	subw	s7,a2,s7
   113e8:	bf705263          	blez	s7,107cc <_vfprintf_r+0x272>
   113ec:	68f1                	lui	a7,0x1c
   113ee:	46c1                	li	a3,16
   113f0:	11812703          	lw	a4,280(sp)
   113f4:	2c888d93          	addi	s11,a7,712 # 1c2c8 <zeroes.4521>
   113f8:	4cc1                	li	s9,16
   113fa:	4c1d                	li	s8,7
   113fc:	0176c663          	blt	a3,s7,11408 <_vfprintf_r+0xeae>
   11400:	a65d                	j	117a6 <_vfprintf_r+0x124c>
   11402:	3bc1                	addiw	s7,s7,-16
   11404:	3b7cd163          	bge	s9,s7,117a6 <_vfprintf_r+0x124c>
   11408:	2705                	addiw	a4,a4,1
   1140a:	07c1                	addi	a5,a5,16
   1140c:	01b33023          	sd	s11,0(t1)
   11410:	01933423          	sd	s9,8(t1)
   11414:	f23e                	sd	a5,288(sp)
   11416:	10e12c23          	sw	a4,280(sp)
   1141a:	0341                	addi	t1,t1,16
   1141c:	feec53e3          	bge	s8,a4,11402 <_vfprintf_r+0xea8>
   11420:	0a10                	addi	a2,sp,272
   11422:	85ce                	mv	a1,s3
   11424:	8552                	mv	a0,s4
   11426:	4f7060ef          	jal	ra,1811c <__sprint_r>
   1142a:	cc0510e3          	bnez	a0,110ea <_vfprintf_r+0xb90>
   1142e:	7792                	ld	a5,288(sp)
   11430:	11812703          	lw	a4,280(sp)
   11434:	835a                	mv	t1,s6
   11436:	b7f1                	j	11402 <_vfprintf_r+0xea8>
   11438:	0014f513          	andi	a0,s1,1
   1143c:	cc051fe3          	bnez	a0,1111a <_vfprintf_r+0xbc0>
   11440:	00b33423          	sd	a1,8(t1)
   11444:	f262                	sd	s8,288(sp)
   11446:	10e12c23          	sw	a4,280(sp)
   1144a:	469d                	li	a3,7
   1144c:	18e6c163          	blt	a3,a4,115ce <_vfprintf_r+0x1074>
   11450:	2609                	addiw	a2,a2,2
   11452:	02030313          	addi	t1,t1,32
   11456:	b3a9                	j	111a0 <_vfprintf_r+0xc46>
   11458:	d59054e3          	blez	s9,111a0 <_vfprintf_r+0xc46>
   1145c:	4741                	li	a4,16
   1145e:	45975fe3          	bge	a4,s9,120bc <_vfprintf_r+0x1b62>
   11462:	68f1                	lui	a7,0x1c
   11464:	2c888d93          	addi	s11,a7,712 # 1c2c8 <zeroes.4521>
   11468:	4841                	li	a6,16
   1146a:	4d1d                	li	s10,7
   1146c:	a031                	j	11478 <_vfprintf_r+0xf1e>
   1146e:	3cc1                	addiw	s9,s9,-16
   11470:	15985063          	bge	a6,s9,115b0 <_vfprintf_r+0x1056>
   11474:	00170e1b          	addiw	t3,a4,1
   11478:	0c41                	addi	s8,s8,16
   1147a:	01bbb023          	sd	s11,0(s7)
   1147e:	010bb423          	sd	a6,8(s7)
   11482:	f262                	sd	s8,288(sp)
   11484:	000e071b          	sext.w	a4,t3
   11488:	11c12c23          	sw	t3,280(sp)
   1148c:	0bc1                	addi	s7,s7,16
   1148e:	feed50e3          	bge	s10,a4,1146e <_vfprintf_r+0xf14>
   11492:	0a10                	addi	a2,sp,272
   11494:	85ce                	mv	a1,s3
   11496:	8552                	mv	a0,s4
   11498:	485060ef          	jal	ra,1811c <__sprint_r>
   1149c:	c40517e3          	bnez	a0,110ea <_vfprintf_r+0xb90>
   114a0:	7c12                	ld	s8,288(sp)
   114a2:	11812703          	lw	a4,280(sp)
   114a6:	8bda                	mv	s7,s6
   114a8:	4841                	li	a6,16
   114aa:	b7d1                	j	1146e <_vfprintf_r+0xf14>
   114ac:	010df793          	andi	a5,s11,16
   114b0:	eb8d                	bnez	a5,114e2 <_vfprintf_r+0xf88>
   114b2:	66c2                	ld	a3,16(sp)
   114b4:	040df793          	andi	a5,s11,64
   114b8:	0006a903          	lw	s2,0(a3)
   114bc:	36078763          	beqz	a5,1182a <_vfprintf_r+0x12d0>
   114c0:	1942                	slli	s2,s2,0x30
   114c2:	03095913          	srli	s2,s2,0x30
   114c6:	e83a                	sd	a4,16(sp)
   114c8:	4785                	li	a5,1
   114ca:	c4eff06f          	j	10918 <_vfprintf_r+0x3be>
   114ce:	0014f713          	andi	a4,s1,1
   114d2:	ae070d63          	beqz	a4,107cc <_vfprintf_r+0x272>
   114d6:	bc9d                	j	10f4c <_vfprintf_r+0x9f2>
   114d8:	67a2                	ld	a5,8(sp)
   114da:	8d22                	mv	s10,s0
   114dc:	e31c                	sd	a5,0(a4)
   114de:	b20ff06f          	j	107fe <_vfprintf_r+0x2a4>
   114e2:	67c2                	ld	a5,16(sp)
   114e4:	e83a                	sd	a4,16(sp)
   114e6:	0007b903          	ld	s2,0(a5)
   114ea:	4785                	li	a5,1
   114ec:	c2cff06f          	j	10918 <_vfprintf_r+0x3be>
   114f0:	67c2                	ld	a5,16(sp)
   114f2:	639c                	ld	a5,0(a5)
   114f4:	893e                	mv	s2,a5
   114f6:	bb8ff06f          	j	108ae <_vfprintf_r+0x354>
   114fa:	67c2                	ld	a5,16(sp)
   114fc:	0007b903          	ld	s2,0(a5)
   11500:	c0cff06f          	j	1090c <_vfprintf_r+0x3b2>
   11504:	67c2                	ld	a5,16(sp)
   11506:	07bd                	addi	a5,a5,15
   11508:	9bc1                	andi	a5,a5,-16
   1150a:	6398                	ld	a4,0(a5)
   1150c:	6794                	ld	a3,8(a5)
   1150e:	07c1                	addi	a5,a5,16
   11510:	e83e                	sd	a5,16(sp)
   11512:	e23a                	sd	a4,256(sp)
   11514:	e636                	sd	a3,264(sp)
   11516:	c72ff06f          	j	10988 <_vfprintf_r+0x42e>
   1151a:	e83a                	sd	a4,16(sp)
   1151c:	47a5                	li	a5,9
   1151e:	8da6                	mv	s11,s1
   11520:	cb27f6e3          	bgeu	a5,s2,111cc <_vfprintf_r+0xc72>
   11524:	400df713          	andi	a4,s11,1024
   11528:	18c10b93          	addi	s7,sp,396
   1152c:	2701                	sext.w	a4,a4
   1152e:	f002                	sd	zero,32(sp)
   11530:	865e                	mv	a2,s7
   11532:	44a9                	li	s1,10
   11534:	46a5                	li	a3,9
   11536:	0ff00893          	li	a7,255
   1153a:	a039                	j	11548 <_vfprintf_r+0xfee>
   1153c:	029957b3          	divu	a5,s2,s1
   11540:	9b26f9e3          	bgeu	a3,s2,10ef2 <_vfprintf_r+0x998>
   11544:	893e                	mv	s2,a5
   11546:	866a                	mv	a2,s10
   11548:	7582                	ld	a1,32(sp)
   1154a:	fff60d13          	addi	s10,a2,-1
   1154e:	2585                	addiw	a1,a1,1
   11550:	f02e                	sd	a1,32(sp)
   11552:	029977b3          	remu	a5,s2,s1
   11556:	0307879b          	addiw	a5,a5,48
   1155a:	fef60fa3          	sb	a5,-1(a2)
   1155e:	df79                	beqz	a4,1153c <_vfprintf_r+0xfe2>
   11560:	7786                	ld	a5,96(sp)
   11562:	0007c783          	lbu	a5,0(a5)
   11566:	fcf59be3          	bne	a1,a5,1153c <_vfprintf_r+0xfe2>
   1156a:	fd1789e3          	beq	a5,a7,1153c <_vfprintf_r+0xfe2>
   1156e:	9926f2e3          	bgeu	a3,s2,10ef2 <_vfprintf_r+0x998>
   11572:	678a                	ld	a5,128(sp)
   11574:	65aa                	ld	a1,136(sp)
   11576:	f83a                	sd	a4,48(sp)
   11578:	40fd0d33          	sub	s10,s10,a5
   1157c:	863e                	mv	a2,a5
   1157e:	856a                	mv	a0,s10
   11580:	ec1a                	sd	t1,24(sp)
   11582:	725040ef          	jal	ra,164a6 <strncpy>
   11586:	7706                	ld	a4,96(sp)
   11588:	029957b3          	divu	a5,s2,s1
   1158c:	6362                	ld	t1,24(sp)
   1158e:	00174603          	lbu	a2,1(a4)
   11592:	f002                	sd	zero,32(sp)
   11594:	46a5                	li	a3,9
   11596:	00c03633          	snez	a2,a2
   1159a:	9732                	add	a4,a4,a2
   1159c:	f0ba                	sd	a4,96(sp)
   1159e:	0ff00893          	li	a7,255
   115a2:	7742                	ld	a4,48(sp)
   115a4:	b745                	j	11544 <_vfprintf_r+0xfea>
   115a6:	00068b9b          	sext.w	s7,a3
   115aa:	d7704ee3          	bgtz	s7,11326 <_vfprintf_r+0xdcc>
   115ae:	bb61                	j	11346 <_vfprintf_r+0xdec>
   115b0:	0017061b          	addiw	a2,a4,1
   115b4:	010b8713          	addi	a4,s7,16
   115b8:	9c66                	add	s8,s8,s9
   115ba:	01bbb023          	sd	s11,0(s7)
   115be:	019bb423          	sd	s9,8(s7)
   115c2:	f262                	sd	s8,288(sp)
   115c4:	10c12c23          	sw	a2,280(sp)
   115c8:	469d                	li	a3,7
   115ca:	44c6d463          	bge	a3,a2,11a12 <_vfprintf_r+0x14b8>
   115ce:	0a10                	addi	a2,sp,272
   115d0:	85ce                	mv	a1,s3
   115d2:	8552                	mv	a0,s4
   115d4:	349060ef          	jal	ra,1811c <__sprint_r>
   115d8:	b00519e3          	bnez	a0,110ea <_vfprintf_r+0xb90>
   115dc:	11812603          	lw	a2,280(sp)
   115e0:	7c12                	ld	s8,288(sp)
   115e2:	1a010313          	addi	t1,sp,416
   115e6:	2605                	addiw	a2,a2,1
   115e8:	8bda                	mv	s7,s6
   115ea:	be5d                	j	111a0 <_vfprintf_r+0xc46>
   115ec:	8da6                	mv	s11,s1
   115ee:	821ff06f          	j	10e0e <_vfprintf_r+0x8b4>
   115f2:	67f1                	lui	a5,0x1c
   115f4:	12078793          	addi	a5,a5,288 # 1c120 <__clzdi2+0x12e>
   115f8:	f43e                	sd	a5,40(sp)
   115fa:	66c2                	ld	a3,16(sp)
   115fc:	0204f793          	andi	a5,s1,32
   11600:	00868713          	addi	a4,a3,8
   11604:	cbf1                	beqz	a5,116d8 <_vfprintf_r+0x117e>
   11606:	0006b903          	ld	s2,0(a3)
   1160a:	0014f793          	andi	a5,s1,1
   1160e:	cf81                	beqz	a5,11626 <_vfprintf_r+0x10cc>
   11610:	00090b63          	beqz	s2,11626 <_vfprintf_r+0x10cc>
   11614:	0024e493          	ori	s1,s1,2
   11618:	03000793          	li	a5,48
   1161c:	0ef10023          	sb	a5,224(sp)
   11620:	0f9100a3          	sb	s9,225(sp)
   11624:	2481                	sext.w	s1,s1
   11626:	bff4f493          	andi	s1,s1,-1025
   1162a:	00048d9b          	sext.w	s11,s1
   1162e:	e83a                	sd	a4,16(sp)
   11630:	4789                	li	a5,2
   11632:	ae6ff06f          	j	10918 <_vfprintf_r+0x3be>
   11636:	2004e493          	ori	s1,s1,512
   1163a:	00144e83          	lbu	t4,1(s0)
   1163e:	2481                	sext.w	s1,s1
   11640:	0405                	addi	s0,s0,1
   11642:	868ff06f          	j	106aa <_vfprintf_r+0x150>
   11646:	0204e493          	ori	s1,s1,32
   1164a:	00144e83          	lbu	t4,1(s0)
   1164e:	2481                	sext.w	s1,s1
   11650:	0405                	addi	s0,s0,1
   11652:	858ff06f          	j	106aa <_vfprintf_r+0x150>
   11656:	0a10                	addi	a2,sp,272
   11658:	85ce                	mv	a1,s3
   1165a:	8552                	mv	a0,s4
   1165c:	2c1060ef          	jal	ra,1811c <__sprint_r>
   11660:	a80515e3          	bnez	a0,110ea <_vfprintf_r+0xb90>
   11664:	7792                	ld	a5,288(sp)
   11666:	835a                	mv	t1,s6
   11668:	b229                	j	10f72 <_vfprintf_r+0xa18>
   1166a:	67f1                	lui	a5,0x1c
   1166c:	10878793          	addi	a5,a5,264 # 1c108 <__clzdi2+0x116>
   11670:	f43e                	sd	a5,40(sp)
   11672:	b761                	j	115fa <_vfprintf_r+0x10a0>
   11674:	4799                	li	a5,6
   11676:	000c0b9b          	sext.w	s7,s8
   1167a:	3d87eb63          	bltu	a5,s8,11a50 <_vfprintf_r+0x14f6>
   1167e:	6871                	lui	a6,0x1c
   11680:	895e                	mv	s2,s7
   11682:	e86e                	sd	s11,16(sp)
   11684:	13880d13          	addi	s10,a6,312 # 1c138 <__clzdi2+0x146>
   11688:	88aff06f          	j	10712 <_vfprintf_r+0x1b8>
   1168c:	68f1                	lui	a7,0x1c
   1168e:	46c1                	li	a3,16
   11690:	11812703          	lw	a4,280(sp)
   11694:	2c888d93          	addi	s11,a7,712 # 1c2c8 <zeroes.4521>
   11698:	4cc1                	li	s9,16
   1169a:	4c1d                	li	s8,7
   1169c:	0176c663          	blt	a3,s7,116a8 <_vfprintf_r+0x114e>
   116a0:	a2ed                	j	1188a <_vfprintf_r+0x1330>
   116a2:	3bc1                	addiw	s7,s7,-16
   116a4:	1f7cd363          	bge	s9,s7,1188a <_vfprintf_r+0x1330>
   116a8:	2705                	addiw	a4,a4,1
   116aa:	07c1                	addi	a5,a5,16
   116ac:	01b33023          	sd	s11,0(t1)
   116b0:	01933423          	sd	s9,8(t1)
   116b4:	f23e                	sd	a5,288(sp)
   116b6:	10e12c23          	sw	a4,280(sp)
   116ba:	0341                	addi	t1,t1,16
   116bc:	feec53e3          	bge	s8,a4,116a2 <_vfprintf_r+0x1148>
   116c0:	0a10                	addi	a2,sp,272
   116c2:	85ce                	mv	a1,s3
   116c4:	8552                	mv	a0,s4
   116c6:	257060ef          	jal	ra,1811c <__sprint_r>
   116ca:	a20510e3          	bnez	a0,110ea <_vfprintf_r+0xb90>
   116ce:	7792                	ld	a5,288(sp)
   116d0:	11812703          	lw	a4,280(sp)
   116d4:	835a                	mv	t1,s6
   116d6:	b7f1                	j	116a2 <_vfprintf_r+0x1148>
   116d8:	0104f793          	andi	a5,s1,16
   116dc:	c3c5                	beqz	a5,1177c <_vfprintf_r+0x1222>
   116de:	67c2                	ld	a5,16(sp)
   116e0:	0007b903          	ld	s2,0(a5)
   116e4:	b71d                	j	1160a <_vfprintf_r+0x10b0>
   116e6:	0a10                	addi	a2,sp,272
   116e8:	85ce                	mv	a1,s3
   116ea:	8552                	mv	a0,s4
   116ec:	231060ef          	jal	ra,1811c <__sprint_r>
   116f0:	9e051de3          	bnez	a0,110ea <_vfprintf_r+0xb90>
   116f4:	7c12                	ld	s8,288(sp)
   116f6:	11812703          	lw	a4,280(sp)
   116fa:	8bda                	mv	s7,s6
   116fc:	bc05                	j	1112c <_vfprintf_r+0xbd2>
   116fe:	0a10                	addi	a2,sp,272
   11700:	85ce                	mv	a1,s3
   11702:	8552                	mv	a0,s4
   11704:	219060ef          	jal	ra,1811c <__sprint_r>
   11708:	9e0511e3          	bnez	a0,110ea <_vfprintf_r+0xb90>
   1170c:	7c12                	ld	s8,288(sp)
   1170e:	11812703          	lw	a4,280(sp)
   11712:	8bda                	mv	s7,s6
   11714:	bc35                	j	11150 <_vfprintf_r+0xbf6>
   11716:	11812703          	lw	a4,280(sp)
   1171a:	66f1                	lui	a3,0x1c
   1171c:	14068693          	addi	a3,a3,320 # 1c140 <__clzdi2+0x14e>
   11720:	2705                	addiw	a4,a4,1
   11722:	00d33023          	sd	a3,0(t1)
   11726:	0785                	addi	a5,a5,1
   11728:	4685                	li	a3,1
   1172a:	00d33423          	sd	a3,8(t1)
   1172e:	10e12c23          	sw	a4,280(sp)
   11732:	0007069b          	sext.w	a3,a4
   11736:	f23e                	sd	a5,288(sp)
   11738:	471d                	li	a4,7
   1173a:	0341                	addi	t1,t1,16
   1173c:	2ed74163          	blt	a4,a3,11a1e <_vfprintf_r+0x14c4>
   11740:	c4061963          	bnez	a2,10b92 <_vfprintf_r+0x638>
   11744:	7682                	ld	a3,32(sp)
   11746:	0014f713          	andi	a4,s1,1
   1174a:	8f55                	or	a4,a4,a3
   1174c:	e319                	bnez	a4,11752 <_vfprintf_r+0x11f8>
   1174e:	87eff06f          	j	107cc <_vfprintf_r+0x272>
   11752:	7746                	ld	a4,112(sp)
   11754:	76a6                	ld	a3,104(sp)
   11756:	00e33023          	sd	a4,0(t1)
   1175a:	11812703          	lw	a4,280(sp)
   1175e:	97b6                	add	a5,a5,a3
   11760:	00d33423          	sd	a3,8(t1)
   11764:	2705                	addiw	a4,a4,1
   11766:	0007069b          	sext.w	a3,a4
   1176a:	10e12c23          	sw	a4,280(sp)
   1176e:	f23e                	sd	a5,288(sp)
   11770:	471d                	li	a4,7
   11772:	c4d74363          	blt	a4,a3,10bb8 <_vfprintf_r+0x65e>
   11776:	0341                	addi	t1,t1,16
   11778:	c60ff06f          	j	10bd8 <_vfprintf_r+0x67e>
   1177c:	66c2                	ld	a3,16(sp)
   1177e:	0404f793          	andi	a5,s1,64
   11782:	0006a903          	lw	s2,0(a3)
   11786:	c7f1                	beqz	a5,11852 <_vfprintf_r+0x12f8>
   11788:	1942                	slli	s2,s2,0x30
   1178a:	03095913          	srli	s2,s2,0x30
   1178e:	bdb5                	j	1160a <_vfprintf_r+0x10b0>
   11790:	0a10                	addi	a2,sp,272
   11792:	85ce                	mv	a1,s3
   11794:	8552                	mv	a0,s4
   11796:	187060ef          	jal	ra,1811c <__sprint_r>
   1179a:	940518e3          	bnez	a0,110ea <_vfprintf_r+0xb90>
   1179e:	7792                	ld	a5,288(sp)
   117a0:	835a                	mv	t1,s6
   117a2:	fa2ff06f          	j	10f44 <_vfprintf_r+0x9ea>
   117a6:	0017069b          	addiw	a3,a4,1
   117aa:	8736                	mv	a4,a3
   117ac:	97de                	add	a5,a5,s7
   117ae:	01b33023          	sd	s11,0(t1)
   117b2:	808ff06f          	j	107ba <_vfprintf_r+0x260>
   117b6:	6512                	ld	a0,256(sp)
   117b8:	65b2                	ld	a1,264(sp)
   117ba:	4601                	li	a2,0
   117bc:	4681                	li	a3,0
   117be:	57e090ef          	jal	ra,1ad3c <__letf2>
   117c2:	6362                	ld	t1,24(sp)
   117c4:	52054163          	bltz	a0,11ce6 <_vfprintf_r+0x178c>
   117c8:	0df14783          	lbu	a5,223(sp)
   117cc:	04700713          	li	a4,71
   117d0:	27975263          	bge	a4,s9,11a34 <_vfprintf_r+0x14da>
   117d4:	6871                	lui	a6,0x1c
   117d6:	0f080d13          	addi	s10,a6,240 # 1c0f0 <__clzdi2+0xfe>
   117da:	f7f4f493          	andi	s1,s1,-129
   117de:	ec02                	sd	zero,24(sp)
   117e0:	e482                	sd	zero,72(sp)
   117e2:	ec82                	sd	zero,88(sp)
   117e4:	e882                	sd	zero,80(sp)
   117e6:	2481                	sext.w	s1,s1
   117e8:	490d                	li	s2,3
   117ea:	4b8d                	li	s7,3
   117ec:	4c01                	li	s8,0
   117ee:	90079163          	bnez	a5,108f0 <_vfprintf_r+0x396>
   117f2:	f2bfe06f          	j	1071c <_vfprintf_r+0x1c2>
   117f6:	856a                	mv	a0,s10
   117f8:	f81a                	sd	t1,48(sp)
   117fa:	41d040ef          	jal	ra,16416 <strlen>
   117fe:	00050b9b          	sext.w	s7,a0
   11802:	fffbc913          	not	s2,s7
   11806:	0df14783          	lbu	a5,223(sp)
   1180a:	43f95913          	srai	s2,s2,0x3f
   1180e:	012bf933          	and	s2,s7,s2
   11812:	e86e                	sd	s11,16(sp)
   11814:	ec02                	sd	zero,24(sp)
   11816:	e482                	sd	zero,72(sp)
   11818:	ec82                	sd	zero,88(sp)
   1181a:	e882                	sd	zero,80(sp)
   1181c:	7342                	ld	t1,48(sp)
   1181e:	2901                	sext.w	s2,s2
   11820:	4c01                	li	s8,0
   11822:	8c079763          	bnez	a5,108f0 <_vfprintf_r+0x396>
   11826:	ef7fe06f          	j	1071c <_vfprintf_r+0x1c2>
   1182a:	200df793          	andi	a5,s11,512
   1182e:	26078163          	beqz	a5,11a90 <_vfprintf_r+0x1536>
   11832:	0ff97913          	andi	s2,s2,255
   11836:	e83a                	sd	a4,16(sp)
   11838:	4785                	li	a5,1
   1183a:	8deff06f          	j	10918 <_vfprintf_r+0x3be>
   1183e:	2004f793          	andi	a5,s1,512
   11842:	24078163          	beqz	a5,11a84 <_vfprintf_r+0x152a>
   11846:	67c2                	ld	a5,16(sp)
   11848:	00078903          	lb	s2,0(a5)
   1184c:	87ca                	mv	a5,s2
   1184e:	860ff06f          	j	108ae <_vfprintf_r+0x354>
   11852:	2004f793          	andi	a5,s1,512
   11856:	24078463          	beqz	a5,11a9e <_vfprintf_r+0x1544>
   1185a:	0ff97913          	andi	s2,s2,255
   1185e:	b375                	j	1160a <_vfprintf_r+0x10b0>
   11860:	2004f793          	andi	a5,s1,512
   11864:	20078b63          	beqz	a5,11a7a <_vfprintf_r+0x1520>
   11868:	0ff97913          	andi	s2,s2,255
   1186c:	8a0ff06f          	j	1090c <_vfprintf_r+0x3b2>
   11870:	67b2                	ld	a5,264(sp)
   11872:	2207ca63          	bltz	a5,11aa6 <_vfprintf_r+0x154c>
   11876:	0df14783          	lbu	a5,223(sp)
   1187a:	04700713          	li	a4,71
   1187e:	59975863          	bge	a4,s9,11e0e <_vfprintf_r+0x18b4>
   11882:	6871                	lui	a6,0x1c
   11884:	10080d13          	addi	s10,a6,256 # 1c100 <__clzdi2+0x10e>
   11888:	bf89                	j	117da <_vfprintf_r+0x1280>
   1188a:	0017069b          	addiw	a3,a4,1
   1188e:	97de                	add	a5,a5,s7
   11890:	01b33023          	sd	s11,0(t1)
   11894:	01733423          	sd	s7,8(t1)
   11898:	f23e                	sd	a5,288(sp)
   1189a:	10d12c23          	sw	a3,280(sp)
   1189e:	471d                	li	a4,7
   118a0:	0341                	addi	t1,t1,16
   118a2:	aad75ce3          	bge	a4,a3,1135a <_vfprintf_r+0xe00>
   118a6:	0a10                	addi	a2,sp,272
   118a8:	85ce                	mv	a1,s3
   118aa:	8552                	mv	a0,s4
   118ac:	071060ef          	jal	ra,1811c <__sprint_r>
   118b0:	82051de3          	bnez	a0,110ea <_vfprintf_r+0xb90>
   118b4:	7792                	ld	a5,288(sp)
   118b6:	835a                	mv	t1,s6
   118b8:	b44d                	j	1135a <_vfprintf_r+0xe00>
   118ba:	7702                	ld	a4,32(sp)
   118bc:	6ef1                	lui	t4,0x1c
   118be:	4b9d                	li	s7,7
   118c0:	976a                	add	a4,a4,s10
   118c2:	fc3a                	sd	a4,56(sp)
   118c4:	6766                	ld	a4,88(sp)
   118c6:	4dc1                	li	s11,16
   118c8:	2c8e8c93          	addi	s9,t4,712 # 1c2c8 <zeroes.4521>
   118cc:	cb51                	beqz	a4,11960 <_vfprintf_r+0x1406>
   118ce:	6726                	ld	a4,72(sp)
   118d0:	eb59                	bnez	a4,11966 <_vfprintf_r+0x140c>
   118d2:	7706                	ld	a4,96(sp)
   118d4:	177d                	addi	a4,a4,-1
   118d6:	f0ba                	sd	a4,96(sp)
   118d8:	6766                	ld	a4,88(sp)
   118da:	377d                	addiw	a4,a4,-1
   118dc:	ecba                	sd	a4,88(sp)
   118de:	672a                	ld	a4,136(sp)
   118e0:	668a                	ld	a3,128(sp)
   118e2:	0341                	addi	t1,t1,16
   118e4:	fee33823          	sd	a4,-16(t1)
   118e8:	11812703          	lw	a4,280(sp)
   118ec:	97b6                	add	a5,a5,a3
   118ee:	fed33c23          	sd	a3,-8(t1)
   118f2:	2705                	addiw	a4,a4,1
   118f4:	f23e                	sd	a5,288(sp)
   118f6:	0007069b          	sext.w	a3,a4
   118fa:	10e12c23          	sw	a4,280(sp)
   118fe:	0cdbcf63          	blt	s7,a3,119dc <_vfprintf_r+0x1482>
   11902:	7706                	ld	a4,96(sp)
   11904:	00074583          	lbu	a1,0(a4)
   11908:	7762                	ld	a4,56(sp)
   1190a:	0005869b          	sext.w	a3,a1
   1190e:	4187063b          	subw	a2,a4,s8
   11912:	0006871b          	sext.w	a4,a3
   11916:	00d65463          	bge	a2,a3,1191e <_vfprintf_r+0x13c4>
   1191a:	0006071b          	sext.w	a4,a2
   1191e:	02e05663          	blez	a4,1194a <_vfprintf_r+0x13f0>
   11922:	11812683          	lw	a3,280(sp)
   11926:	97ba                	add	a5,a5,a4
   11928:	01833023          	sd	s8,0(t1)
   1192c:	0016861b          	addiw	a2,a3,1
   11930:	00e33423          	sd	a4,8(t1)
   11934:	f23e                	sd	a5,288(sp)
   11936:	10c12c23          	sw	a2,280(sp)
   1193a:	0acbcb63          	blt	s7,a2,119f0 <_vfprintf_r+0x1496>
   1193e:	7686                	ld	a3,96(sp)
   11940:	0341                	addi	t1,t1,16
   11942:	0006c583          	lbu	a1,0(a3)
   11946:	0005869b          	sext.w	a3,a1
   1194a:	fff74613          	not	a2,a4
   1194e:	967d                	srai	a2,a2,0x3f
   11950:	8f71                	and	a4,a4,a2
   11952:	40e6873b          	subw	a4,a3,a4
   11956:	00e04c63          	bgtz	a4,1196e <_vfprintf_r+0x1414>
   1195a:	9c2e                	add	s8,s8,a1
   1195c:	6766                	ld	a4,88(sp)
   1195e:	fb25                	bnez	a4,118ce <_vfprintf_r+0x1374>
   11960:	6726                	ld	a4,72(sp)
   11962:	2c070363          	beqz	a4,11c28 <_vfprintf_r+0x16ce>
   11966:	6726                	ld	a4,72(sp)
   11968:	377d                	addiw	a4,a4,-1
   1196a:	e4ba                	sd	a4,72(sp)
   1196c:	bf8d                	j	118de <_vfprintf_r+0x1384>
   1196e:	11812683          	lw	a3,280(sp)
   11972:	00edc663          	blt	s11,a4,1197e <_vfprintf_r+0x1424>
   11976:	a081                	j	119b6 <_vfprintf_r+0x145c>
   11978:	3741                	addiw	a4,a4,-16
   1197a:	02edde63          	bge	s11,a4,119b6 <_vfprintf_r+0x145c>
   1197e:	2685                	addiw	a3,a3,1
   11980:	07c1                	addi	a5,a5,16
   11982:	01933023          	sd	s9,0(t1)
   11986:	01b33423          	sd	s11,8(t1)
   1198a:	f23e                	sd	a5,288(sp)
   1198c:	10d12c23          	sw	a3,280(sp)
   11990:	0341                	addi	t1,t1,16
   11992:	fedbd3e3          	bge	s7,a3,11978 <_vfprintf_r+0x141e>
   11996:	0a10                	addi	a2,sp,272
   11998:	85ce                	mv	a1,s3
   1199a:	8552                	mv	a0,s4
   1199c:	f83a                	sd	a4,48(sp)
   1199e:	77e060ef          	jal	ra,1811c <__sprint_r>
   119a2:	f4051463          	bnez	a0,110ea <_vfprintf_r+0xb90>
   119a6:	7742                	ld	a4,48(sp)
   119a8:	7792                	ld	a5,288(sp)
   119aa:	11812683          	lw	a3,280(sp)
   119ae:	3741                	addiw	a4,a4,-16
   119b0:	835a                	mv	t1,s6
   119b2:	fcedc6e3          	blt	s11,a4,1197e <_vfprintf_r+0x1424>
   119b6:	2685                	addiw	a3,a3,1
   119b8:	97ba                	add	a5,a5,a4
   119ba:	00e33423          	sd	a4,8(t1)
   119be:	01933023          	sd	s9,0(t1)
   119c2:	f23e                	sd	a5,288(sp)
   119c4:	0006871b          	sext.w	a4,a3
   119c8:	10d12c23          	sw	a3,280(sp)
   119cc:	2eebc363          	blt	s7,a4,11cb2 <_vfprintf_r+0x1758>
   119d0:	7706                	ld	a4,96(sp)
   119d2:	0341                	addi	t1,t1,16
   119d4:	00074583          	lbu	a1,0(a4)
   119d8:	9c2e                	add	s8,s8,a1
   119da:	b749                	j	1195c <_vfprintf_r+0x1402>
   119dc:	0a10                	addi	a2,sp,272
   119de:	85ce                	mv	a1,s3
   119e0:	8552                	mv	a0,s4
   119e2:	73a060ef          	jal	ra,1811c <__sprint_r>
   119e6:	f0051263          	bnez	a0,110ea <_vfprintf_r+0xb90>
   119ea:	7792                	ld	a5,288(sp)
   119ec:	835a                	mv	t1,s6
   119ee:	bf11                	j	11902 <_vfprintf_r+0x13a8>
   119f0:	0a10                	addi	a2,sp,272
   119f2:	85ce                	mv	a1,s3
   119f4:	8552                	mv	a0,s4
   119f6:	f83a                	sd	a4,48(sp)
   119f8:	724060ef          	jal	ra,1811c <__sprint_r>
   119fc:	ee051763          	bnez	a0,110ea <_vfprintf_r+0xb90>
   11a00:	7786                	ld	a5,96(sp)
   11a02:	7742                	ld	a4,48(sp)
   11a04:	835a                	mv	t1,s6
   11a06:	0007c583          	lbu	a1,0(a5)
   11a0a:	7792                	ld	a5,288(sp)
   11a0c:	0005869b          	sext.w	a3,a1
   11a10:	bf2d                	j	1194a <_vfprintf_r+0x13f0>
   11a12:	2605                	addiw	a2,a2,1
   11a14:	01070313          	addi	t1,a4,16
   11a18:	8bba                	mv	s7,a4
   11a1a:	f86ff06f          	j	111a0 <_vfprintf_r+0xc46>
   11a1e:	0a10                	addi	a2,sp,272
   11a20:	85ce                	mv	a1,s3
   11a22:	8552                	mv	a0,s4
   11a24:	6f8060ef          	jal	ra,1811c <__sprint_r>
   11a28:	ec051163          	bnez	a0,110ea <_vfprintf_r+0xb90>
   11a2c:	562e                	lw	a2,232(sp)
   11a2e:	7792                	ld	a5,288(sp)
   11a30:	835a                	mv	t1,s6
   11a32:	b339                	j	11740 <_vfprintf_r+0x11e6>
   11a34:	6871                	lui	a6,0x1c
   11a36:	0e880d13          	addi	s10,a6,232 # 1c0e8 <__clzdi2+0xf6>
   11a3a:	b345                	j	117da <_vfprintf_r+0x1280>
   11a3c:	0a10                	addi	a2,sp,272
   11a3e:	85ce                	mv	a1,s3
   11a40:	8552                	mv	a0,s4
   11a42:	6da060ef          	jal	ra,1811c <__sprint_r>
   11a46:	ea051263          	bnez	a0,110ea <_vfprintf_r+0xb90>
   11a4a:	7792                	ld	a5,288(sp)
   11a4c:	835a                	mv	t1,s6
   11a4e:	b8e5                	j	11346 <_vfprintf_r+0xdec>
   11a50:	4b99                	li	s7,6
   11a52:	b135                	j	1167e <_vfprintf_r+0x1124>
   11a54:	7682                	ld	a3,32(sp)
   11a56:	00dd0833          	add	a6,s10,a3
   11a5a:	40e6863b          	subw	a2,a3,a4
   11a5e:	41880f3b          	subw	t5,a6,s8
   11a62:	8bb2                	mv	s7,a2
   11a64:	96cf5be3          	bge	t5,a2,113da <_vfprintf_r+0xe80>
   11a68:	000f0b9b          	sext.w	s7,t5
   11a6c:	b2bd                	j	113da <_vfprintf_r+0xe80>
   11a6e:	67a2                	ld	a5,8(sp)
   11a70:	8d22                	mv	s10,s0
   11a72:	00f71023          	sh	a5,0(a4)
   11a76:	d89fe06f          	j	107fe <_vfprintf_r+0x2a4>
   11a7a:	1902                	slli	s2,s2,0x20
   11a7c:	02095913          	srli	s2,s2,0x20
   11a80:	e8dfe06f          	j	1090c <_vfprintf_r+0x3b2>
   11a84:	67c2                	ld	a5,16(sp)
   11a86:	0007a903          	lw	s2,0(a5)
   11a8a:	87ca                	mv	a5,s2
   11a8c:	e23fe06f          	j	108ae <_vfprintf_r+0x354>
   11a90:	1902                	slli	s2,s2,0x20
   11a92:	02095913          	srli	s2,s2,0x20
   11a96:	e83a                	sd	a4,16(sp)
   11a98:	4785                	li	a5,1
   11a9a:	e7ffe06f          	j	10918 <_vfprintf_r+0x3be>
   11a9e:	1902                	slli	s2,s2,0x20
   11aa0:	02095913          	srli	s2,s2,0x20
   11aa4:	b69d                	j	1160a <_vfprintf_r+0x10b0>
   11aa6:	02d00793          	li	a5,45
   11aaa:	0cf10fa3          	sb	a5,223(sp)
   11aae:	b3f1                	j	1187a <_vfprintf_r+0x1320>
   11ab0:	0a10                	addi	a2,sp,272
   11ab2:	85ce                	mv	a1,s3
   11ab4:	8552                	mv	a0,s4
   11ab6:	666060ef          	jal	ra,1811c <__sprint_r>
   11aba:	d55fe06f          	j	1080e <_vfprintf_r+0x2b4>
   11abe:	03000793          	li	a5,48
   11ac2:	0ef10023          	sb	a5,224(sp)
   11ac6:	05800713          	li	a4,88
   11aca:	0024e793          	ori	a5,s1,2
   11ace:	2781                	sext.w	a5,a5
   11ad0:	0ee100a3          	sb	a4,225(sp)
   11ad4:	f53e                	sd	a5,168(sp)
   11ad6:	06300713          	li	a4,99
   11ada:	ec02                	sd	zero,24(sp)
   11adc:	12810d13          	addi	s10,sp,296
   11ae0:	39874563          	blt	a4,s8,11e6a <_vfprintf_r+0x1910>
   11ae4:	6bb2                	ld	s7,264(sp)
   11ae6:	fdfcf713          	andi	a4,s9,-33
   11aea:	1024e493          	ori	s1,s1,258
   11aee:	ecba                	sd	a4,88(sp)
   11af0:	e582                	sd	zero,200(sp)
   11af2:	6d92                	ld	s11,256(sp)
   11af4:	2481                	sext.w	s1,s1
   11af6:	1a0bc663          	bltz	s7,11ca2 <_vfprintf_r+0x1748>
   11afa:	06100793          	li	a5,97
   11afe:	4efc8763          	beq	s9,a5,11fec <_vfprintf_r+0x1a92>
   11b02:	04100793          	li	a5,65
   11b06:	00fc8463          	beq	s9,a5,11b0e <_vfprintf_r+0x15b4>
   11b0a:	ee5fe06f          	j	109ee <_vfprintf_r+0x494>
   11b0e:	85de                	mv	a1,s7
   11b10:	856e                	mv	a0,s11
   11b12:	fc1a                	sd	t1,56(sp)
   11b14:	2ae0a0ef          	jal	ra,1bdc2 <__trunctfdf2>
   11b18:	11a8                	addi	a0,sp,232
   11b1a:	594040ef          	jal	ra,160ae <frexp>
   11b1e:	1e40a0ef          	jal	ra,1bd02 <__extenddftf2>
   11b22:	00fff7b7          	lui	a5,0xfff
   11b26:	02679693          	slli	a3,a5,0x26
   11b2a:	4601                	li	a2,0
   11b2c:	2b8090ef          	jal	ra,1ade4 <__multf3>
   11b30:	4601                	li	a2,0
   11b32:	4681                	li	a3,0
   11b34:	f82a                	sd	a0,48(sp)
   11b36:	f02e                	sd	a1,32(sp)
   11b38:	0c8090ef          	jal	ra,1ac00 <__eqtf2>
   11b3c:	7f82                	ld	t6,32(sp)
   11b3e:	7f42                	ld	t5,48(sp)
   11b40:	7362                	ld	t1,56(sp)
   11b42:	e119                	bnez	a0,11b48 <_vfprintf_r+0x15ee>
   11b44:	4785                	li	a5,1
   11b46:	d5be                	sw	a5,232(sp)
   11b48:	6bf1                	lui	s7,0x1c
   11b4a:	108b8793          	addi	a5,s7,264 # 1c108 <__clzdi2+0x116>
   11b4e:	e4be                	sd	a5,72(sp)
   11b50:	020c1793          	slli	a5,s8,0x20
   11b54:	9381                	srli	a5,a5,0x20
   11b56:	0785                	addi	a5,a5,1
   11b58:	97ea                	add	a5,a5,s10
   11b5a:	f93e                	sd	a5,176(sp)
   11b5c:	018d07bb          	addw	a5,s10,s8
   11b60:	8dea                	mv	s11,s10
   11b62:	c3be                	sw	a5,196(sp)
   11b64:	a819                	j	11b7a <_vfprintf_r+0x1620>
   11b66:	4601                	li	a2,0
   11b68:	4681                	li	a3,0
   11b6a:	e0aa                	sd	a0,64(sp)
   11b6c:	094090ef          	jal	ra,1ac00 <__eqtf2>
   11b70:	7342                	ld	t1,48(sp)
   11b72:	6886                	ld	a7,64(sp)
   11b74:	7f82                	ld	t6,32(sp)
   11b76:	7f62                	ld	t5,56(sp)
   11b78:	cd31                	beqz	a0,11bd4 <_vfprintf_r+0x167a>
   11b7a:	66ca                	ld	a3,144(sp)
   11b7c:	4601                	li	a2,0
   11b7e:	857a                	mv	a0,t5
   11b80:	85fe                	mv	a1,t6
   11b82:	f81a                	sd	t1,48(sp)
   11b84:	260090ef          	jal	ra,1ade4 <__multf3>
   11b88:	8bae                	mv	s7,a1
   11b8a:	f02a                	sd	a0,32(sp)
   11b8c:	0840a0ef          	jal	ra,1bc10 <__fixtfsi>
   11b90:	0005091b          	sext.w	s2,a0
   11b94:	854a                	mv	a0,s2
   11b96:	1120a0ef          	jal	ra,1bca8 <__floatsitf>
   11b9a:	7782                	ld	a5,32(sp)
   11b9c:	86ae                	mv	a3,a1
   11b9e:	862a                	mv	a2,a0
   11ba0:	85de                	mv	a1,s7
   11ba2:	853e                	mv	a0,a5
   11ba4:	055090ef          	jal	ra,1b3f8 <__subtf3>
   11ba8:	67a6                	ld	a5,72(sp)
   11baa:	fd6e                	sd	s11,184(sp)
   11bac:	0d85                	addi	s11,s11,1
   11bae:	97ca                	add	a5,a5,s2
   11bb0:	0007c683          	lbu	a3,0(a5) # fff000 <__BSS_END__+0xfe0010>
   11bb4:	479e                	lw	a5,196(sp)
   11bb6:	fc2a                	sd	a0,56(sp)
   11bb8:	fedd8fa3          	sb	a3,-1(s11)
   11bbc:	41b787bb          	subw	a5,a5,s11
   11bc0:	e8be                	sd	a5,80(sp)
   11bc2:	77ca                	ld	a5,176(sp)
   11bc4:	f02e                	sd	a1,32(sp)
   11bc6:	7342                	ld	t1,48(sp)
   11bc8:	88aa                	mv	a7,a0
   11bca:	8bae                	mv	s7,a1
   11bcc:	f9b79de3          	bne	a5,s11,11b66 <_vfprintf_r+0x160c>
   11bd0:	57fd                	li	a5,-1
   11bd2:	e8be                	sd	a5,80(sp)
   11bd4:	66ea                	ld	a3,152(sp)
   11bd6:	4601                	li	a2,0
   11bd8:	8546                	mv	a0,a7
   11bda:	85de                	mv	a1,s7
   11bdc:	f01a                	sd	t1,32(sp)
   11bde:	f846                	sd	a7,48(sp)
   11be0:	0b4090ef          	jal	ra,1ac94 <__getf2>
   11be4:	7302                	ld	t1,32(sp)
   11be6:	2ca04763          	bgtz	a0,11eb4 <_vfprintf_r+0x195a>
   11bea:	78c2                	ld	a7,48(sp)
   11bec:	66ea                	ld	a3,152(sp)
   11bee:	4601                	li	a2,0
   11bf0:	8546                	mv	a0,a7
   11bf2:	85de                	mv	a1,s7
   11bf4:	00c090ef          	jal	ra,1ac00 <__eqtf2>
   11bf8:	7302                	ld	t1,32(sp)
   11bfa:	e509                	bnez	a0,11c04 <_vfprintf_r+0x16aa>
   11bfc:	00197913          	andi	s2,s2,1
   11c00:	2a091a63          	bnez	s2,11eb4 <_vfprintf_r+0x195a>
   11c04:	6746                	ld	a4,80(sp)
   11c06:	03000693          	li	a3,48
   11c0a:	00170793          	addi	a5,a4,1
   11c0e:	97ee                	add	a5,a5,s11
   11c10:	00074763          	bltz	a4,11c1e <_vfprintf_r+0x16c4>
   11c14:	0d85                	addi	s11,s11,1
   11c16:	fedd8fa3          	sb	a3,-1(s11)
   11c1a:	ffb79de3          	bne	a5,s11,11c14 <_vfprintf_r+0x16ba>
   11c1e:	41ad87bb          	subw	a5,s11,s10
   11c22:	f03e                	sd	a5,32(sp)
   11c24:	e3ffe06f          	j	10a62 <_vfprintf_r+0x508>
   11c28:	7702                	ld	a4,32(sp)
   11c2a:	976a                	add	a4,a4,s10
   11c2c:	f3877e63          	bgeu	a4,s8,11368 <_vfprintf_r+0xe0e>
   11c30:	8c3a                	mv	s8,a4
   11c32:	f36ff06f          	j	11368 <_vfprintf_r+0xe0e>
   11c36:	6746                	ld	a4,80(sp)
   11c38:	57f5                	li	a5,-3
   11c3a:	00f74463          	blt	a4,a5,11c42 <_vfprintf_r+0x16e8>
   11c3e:	00ec5863          	bge	s8,a4,11c4e <_vfprintf_r+0x16f4>
   11c42:	3cf9                	addiw	s9,s9,-2
   11c44:	fdfcf793          	andi	a5,s9,-33
   11c48:	ecbe                	sd	a5,88(sp)
   11c4a:	e39fe06f          	j	10a82 <_vfprintf_r+0x528>
   11c4e:	7782                	ld	a5,32(sp)
   11c50:	6746                	ld	a4,80(sp)
   11c52:	16f74b63          	blt	a4,a5,11dc8 <_vfprintf_r+0x186e>
   11c56:	77aa                	ld	a5,168(sp)
   11c58:	8bba                	mv	s7,a4
   11c5a:	8b85                	andi	a5,a5,1
   11c5c:	c781                	beqz	a5,11c64 <_vfprintf_r+0x170a>
   11c5e:	77a6                	ld	a5,104(sp)
   11c60:	00e78bbb          	addw	s7,a5,a4
   11c64:	77aa                	ld	a5,168(sp)
   11c66:	4007f793          	andi	a5,a5,1024
   11c6a:	c781                	beqz	a5,11c72 <_vfprintf_r+0x1718>
   11c6c:	67c6                	ld	a5,80(sp)
   11c6e:	30f04363          	bgtz	a5,11f74 <_vfprintf_r+0x1a1a>
   11c72:	fffbc913          	not	s2,s7
   11c76:	43f95913          	srai	s2,s2,0x3f
   11c7a:	012bf933          	and	s2,s7,s2
   11c7e:	2901                	sext.w	s2,s2
   11c80:	06700c93          	li	s9,103
   11c84:	e482                	sd	zero,72(sp)
   11c86:	ec82                	sd	zero,88(sp)
   11c88:	eddfe06f          	j	10b64 <_vfprintf_r+0x60a>
   11c8c:	0df14783          	lbu	a5,223(sp)
   11c90:	4c01                	li	s8,0
   11c92:	c399                	beqz	a5,11c98 <_vfprintf_r+0x173e>
   11c94:	c5dfe06f          	j	108f0 <_vfprintf_r+0x396>
   11c98:	a85fe06f          	j	1071c <_vfprintf_r+0x1c2>
   11c9c:	f526                	sd	s1,168(sp)
   11c9e:	ec02                	sd	zero,24(sp)
   11ca0:	84ca                	mv	s1,s2
   11ca2:	57fd                	li	a5,-1
   11ca4:	17fe                	slli	a5,a5,0x3f
   11ca6:	00fbcbb3          	xor	s7,s7,a5
   11caa:	02d00793          	li	a5,45
   11cae:	e5be                	sd	a5,200(sp)
   11cb0:	b5a9                	j	11afa <_vfprintf_r+0x15a0>
   11cb2:	0a10                	addi	a2,sp,272
   11cb4:	85ce                	mv	a1,s3
   11cb6:	8552                	mv	a0,s4
   11cb8:	464060ef          	jal	ra,1811c <__sprint_r>
   11cbc:	c2051763          	bnez	a0,110ea <_vfprintf_r+0xb90>
   11cc0:	7786                	ld	a5,96(sp)
   11cc2:	835a                	mv	t1,s6
   11cc4:	0007c583          	lbu	a1,0(a5)
   11cc8:	7792                	ld	a5,288(sp)
   11cca:	9c2e                	add	s8,s8,a1
   11ccc:	b941                	j	1195c <_vfprintf_r+0x1402>
   11cce:	0a10                	addi	a2,sp,272
   11cd0:	85ce                	mv	a1,s3
   11cd2:	8552                	mv	a0,s4
   11cd4:	448060ef          	jal	ra,1811c <__sprint_r>
   11cd8:	c0051963          	bnez	a0,110ea <_vfprintf_r+0xb90>
   11cdc:	572e                	lw	a4,232(sp)
   11cde:	7792                	ld	a5,288(sp)
   11ce0:	835a                	mv	t1,s6
   11ce2:	ebcff06f          	j	1139e <_vfprintf_r+0xe44>
   11ce6:	02d00793          	li	a5,45
   11cea:	0cf10fa3          	sb	a5,223(sp)
   11cee:	bcf9                	j	117cc <_vfprintf_r+0x1272>
   11cf0:	11bc                	addi	a5,sp,232
   11cf2:	8762                	mv	a4,s8
   11cf4:	0f810893          	addi	a7,sp,248
   11cf8:	0ec10813          	addi	a6,sp,236
   11cfc:	4689                	li	a3,2
   11cfe:	85ee                	mv	a1,s11
   11d00:	865e                	mv	a2,s7
   11d02:	8552                	mv	a0,s4
   11d04:	0ea020ef          	jal	ra,13dee <_ldtoa_r>
   11d08:	6766                	ld	a4,88(sp)
   11d0a:	04700793          	li	a5,71
   11d0e:	7302                	ld	t1,32(sp)
   11d10:	8d2a                	mv	s10,a0
   11d12:	02f71b63          	bne	a4,a5,11d48 <_vfprintf_r+0x17ee>
   11d16:	77aa                	ld	a5,168(sp)
   11d18:	8b85                	andi	a5,a5,1
   11d1a:	1e079b63          	bnez	a5,11f10 <_vfprintf_r+0x19b6>
   11d1e:	04700793          	li	a5,71
   11d22:	76ee                	ld	a3,248(sp)
   11d24:	ecbe                	sd	a5,88(sp)
   11d26:	d37fe06f          	j	10a5c <_vfprintf_r+0x502>
   11d2a:	0f810893          	addi	a7,sp,248
   11d2e:	0ec10813          	addi	a6,sp,236
   11d32:	11bc                	addi	a5,sp,232
   11d34:	8762                	mv	a4,s8
   11d36:	468d                	li	a3,3
   11d38:	85ee                	mv	a1,s11
   11d3a:	865e                	mv	a2,s7
   11d3c:	8552                	mv	a0,s4
   11d3e:	f01a                	sd	t1,32(sp)
   11d40:	0ae020ef          	jal	ra,13dee <_ldtoa_r>
   11d44:	7302                	ld	t1,32(sp)
   11d46:	8d2a                	mv	s10,a0
   11d48:	6766                	ld	a4,88(sp)
   11d4a:	04600793          	li	a5,70
   11d4e:	018d0933          	add	s2,s10,s8
   11d52:	00f70463          	beq	a4,a5,11d5a <_vfprintf_r+0x1800>
   11d56:	cd9fe06f          	j	10a2e <_vfprintf_r+0x4d4>
   11d5a:	000d4703          	lbu	a4,0(s10)
   11d5e:	03000793          	li	a5,48
   11d62:	00f70663          	beq	a4,a5,11d6e <_vfprintf_r+0x1814>
   11d66:	572e                	lw	a4,232(sp)
   11d68:	993a                	add	s2,s2,a4
   11d6a:	cc5fe06f          	j	10a2e <_vfprintf_r+0x4d4>
   11d6e:	4601                	li	a2,0
   11d70:	4681                	li	a3,0
   11d72:	856e                	mv	a0,s11
   11d74:	85de                	mv	a1,s7
   11d76:	f01a                	sd	t1,32(sp)
   11d78:	689080ef          	jal	ra,1ac00 <__eqtf2>
   11d7c:	7302                	ld	t1,32(sp)
   11d7e:	d565                	beqz	a0,11d66 <_vfprintf_r+0x180c>
   11d80:	4785                	li	a5,1
   11d82:	4187873b          	subw	a4,a5,s8
   11d86:	d5ba                	sw	a4,232(sp)
   11d88:	993a                	add	s2,s2,a4
   11d8a:	ca5fe06f          	j	10a2e <_vfprintf_r+0x4d4>
   11d8e:	0df14783          	lbu	a5,223(sp)
   11d92:	e86e                	sd	s11,16(sp)
   11d94:	e482                	sd	zero,72(sp)
   11d96:	ec82                	sd	zero,88(sp)
   11d98:	e882                	sd	zero,80(sp)
   11d9a:	8962                	mv	s2,s8
   11d9c:	8be2                	mv	s7,s8
   11d9e:	4c01                	li	s8,0
   11da0:	c399                	beqz	a5,11da6 <_vfprintf_r+0x184c>
   11da2:	b4ffe06f          	j	108f0 <_vfprintf_r+0x396>
   11da6:	977fe06f          	j	1071c <_vfprintf_r+0x1c2>
   11daa:	0a10                	addi	a2,sp,272
   11dac:	85ce                	mv	a1,s3
   11dae:	8552                	mv	a0,s4
   11db0:	36c060ef          	jal	ra,1811c <__sprint_r>
   11db4:	b2051b63          	bnez	a0,110ea <_vfprintf_r+0xb90>
   11db8:	562e                	lw	a2,232(sp)
   11dba:	7702                	ld	a4,32(sp)
   11dbc:	7792                	ld	a5,288(sp)
   11dbe:	835a                	mv	t1,s6
   11dc0:	40c7063b          	subw	a2,a4,a2
   11dc4:	e16ff06f          	j	113da <_vfprintf_r+0xe80>
   11dc8:	7702                	ld	a4,32(sp)
   11dca:	77a6                	ld	a5,104(sp)
   11dcc:	06700c93          	li	s9,103
   11dd0:	00e78bbb          	addw	s7,a5,a4
   11dd4:	6746                	ld	a4,80(sp)
   11dd6:	28e05e63          	blez	a4,12072 <_vfprintf_r+0x1b18>
   11dda:	77aa                	ld	a5,168(sp)
   11ddc:	4007f793          	andi	a5,a5,1024
   11de0:	18079c63          	bnez	a5,11f78 <_vfprintf_r+0x1a1e>
   11de4:	fffbc913          	not	s2,s7
   11de8:	43f95913          	srai	s2,s2,0x3f
   11dec:	012bf933          	and	s2,s7,s2
   11df0:	2901                	sext.w	s2,s2
   11df2:	bd49                	j	11c84 <_vfprintf_r+0x172a>
   11df4:	77aa                	ld	a5,168(sp)
   11df6:	6746                	ld	a4,80(sp)
   11df8:	8b85                	andi	a5,a5,1
   11dfa:	00fc67b3          	or	a5,s8,a5
   11dfe:	28e05863          	blez	a4,1208e <_vfprintf_r+0x1b34>
   11e02:	24079963          	bnez	a5,12054 <_vfprintf_r+0x1afa>
   11e06:	6bc6                	ld	s7,80(sp)
   11e08:	06600c93          	li	s9,102
   11e0c:	b7f9                	j	11dda <_vfprintf_r+0x1880>
   11e0e:	6871                	lui	a6,0x1c
   11e10:	0f880d13          	addi	s10,a6,248 # 1c0f8 <__clzdi2+0x106>
   11e14:	b2d9                	j	117da <_vfprintf_r+0x1280>
   11e16:	68f1                	lui	a7,0x1c
   11e18:	5741                	li	a4,-16
   11e1a:	40c00c3b          	negw	s8,a2
   11e1e:	2c888d93          	addi	s11,a7,712 # 1c2c8 <zeroes.4521>
   11e22:	4bc1                	li	s7,16
   11e24:	4c9d                	li	s9,7
   11e26:	00e64663          	blt	a2,a4,11e32 <_vfprintf_r+0x18d8>
   11e2a:	a8a1                	j	11e82 <_vfprintf_r+0x1928>
   11e2c:	3c41                	addiw	s8,s8,-16
   11e2e:	058bda63          	bge	s7,s8,11e82 <_vfprintf_r+0x1928>
   11e32:	2685                	addiw	a3,a3,1
   11e34:	07c1                	addi	a5,a5,16
   11e36:	01b33023          	sd	s11,0(t1)
   11e3a:	01733423          	sd	s7,8(t1)
   11e3e:	f23e                	sd	a5,288(sp)
   11e40:	10d12c23          	sw	a3,280(sp)
   11e44:	0341                	addi	t1,t1,16
   11e46:	fedcd3e3          	bge	s9,a3,11e2c <_vfprintf_r+0x18d2>
   11e4a:	0a10                	addi	a2,sp,272
   11e4c:	85ce                	mv	a1,s3
   11e4e:	8552                	mv	a0,s4
   11e50:	2cc060ef          	jal	ra,1811c <__sprint_r>
   11e54:	a8051b63          	bnez	a0,110ea <_vfprintf_r+0xb90>
   11e58:	7792                	ld	a5,288(sp)
   11e5a:	11812683          	lw	a3,280(sp)
   11e5e:	835a                	mv	t1,s6
   11e60:	b7f1                	j	11e2c <_vfprintf_r+0x18d2>
   11e62:	57fd                	li	a5,-1
   11e64:	e43e                	sd	a5,8(sp)
   11e66:	9b7fe06f          	j	1081c <_vfprintf_r+0x2c2>
   11e6a:	001c059b          	addiw	a1,s8,1
   11e6e:	8552                	mv	a0,s4
   11e70:	ec1a                	sd	t1,24(sp)
   11e72:	799020ef          	jal	ra,14e0a <_malloc_r>
   11e76:	6362                	ld	t1,24(sp)
   11e78:	8d2a                	mv	s10,a0
   11e7a:	26050663          	beqz	a0,120e6 <_vfprintf_r+0x1b8c>
   11e7e:	ec2a                	sd	a0,24(sp)
   11e80:	b195                	j	11ae4 <_vfprintf_r+0x158a>
   11e82:	2685                	addiw	a3,a3,1
   11e84:	97e2                	add	a5,a5,s8
   11e86:	01b33023          	sd	s11,0(t1)
   11e8a:	01833423          	sd	s8,8(t1)
   11e8e:	f23e                	sd	a5,288(sp)
   11e90:	10d12c23          	sw	a3,280(sp)
   11e94:	471d                	li	a4,7
   11e96:	8ed750e3          	bge	a4,a3,11776 <_vfprintf_r+0x121c>
   11e9a:	0a10                	addi	a2,sp,272
   11e9c:	85ce                	mv	a1,s3
   11e9e:	8552                	mv	a0,s4
   11ea0:	27c060ef          	jal	ra,1811c <__sprint_r>
   11ea4:	a4051363          	bnez	a0,110ea <_vfprintf_r+0xb90>
   11ea8:	7792                	ld	a5,288(sp)
   11eaa:	11812683          	lw	a3,280(sp)
   11eae:	835a                	mv	t1,s6
   11eb0:	d29fe06f          	j	10bd8 <_vfprintf_r+0x67e>
   11eb4:	77ea                	ld	a5,184(sp)
   11eb6:	fdbe                	sd	a5,248(sp)
   11eb8:	67a6                	ld	a5,72(sp)
   11eba:	fffdc683          	lbu	a3,-1(s11)
   11ebe:	00f7c603          	lbu	a2,15(a5)
   11ec2:	87ee                	mv	a5,s11
   11ec4:	00d61e63          	bne	a2,a3,11ee0 <_vfprintf_r+0x1986>
   11ec8:	03000593          	li	a1,48
   11ecc:	feb78fa3          	sb	a1,-1(a5)
   11ed0:	77ee                	ld	a5,248(sp)
   11ed2:	fff78693          	addi	a3,a5,-1
   11ed6:	fdb6                	sd	a3,248(sp)
   11ed8:	fff7c683          	lbu	a3,-1(a5)
   11edc:	fed608e3          	beq	a2,a3,11ecc <_vfprintf_r+0x1972>
   11ee0:	0016861b          	addiw	a2,a3,1
   11ee4:	03900593          	li	a1,57
   11ee8:	0ff67613          	andi	a2,a2,255
   11eec:	00b68563          	beq	a3,a1,11ef6 <_vfprintf_r+0x199c>
   11ef0:	fec78fa3          	sb	a2,-1(a5)
   11ef4:	b32d                	j	11c1e <_vfprintf_r+0x16c4>
   11ef6:	6726                	ld	a4,72(sp)
   11ef8:	00a74603          	lbu	a2,10(a4)
   11efc:	fec78fa3          	sb	a2,-1(a5)
   11f00:	bb39                	j	11c1e <_vfprintf_r+0x16c4>
   11f02:	03000793          	li	a5,48
   11f06:	0ef10023          	sb	a5,224(sp)
   11f0a:	07800713          	li	a4,120
   11f0e:	be75                	j	11aca <_vfprintf_r+0x1570>
   11f10:	04700793          	li	a5,71
   11f14:	018d0933          	add	s2,s10,s8
   11f18:	ecbe                	sd	a5,88(sp)
   11f1a:	b15fe06f          	j	10a2e <_vfprintf_r+0x4d4>
   11f1e:	8da6                	mv	s11,s1
   11f20:	aacff06f          	j	111cc <_vfprintf_r+0xc72>
   11f24:	4c19                	li	s8,6
   11f26:	aaffe06f          	j	109d4 <_vfprintf_r+0x47a>
   11f2a:	c31c                	sw	a5,0(a4)
   11f2c:	8d22                	mv	s10,s0
   11f2e:	8d1fe06f          	j	107fe <_vfprintf_r+0x2a4>
   11f32:	000c1363          	bnez	s8,11f38 <_vfprintf_r+0x19de>
   11f36:	4c05                	li	s8,1
   11f38:	6bb2                	ld	s7,264(sp)
   11f3a:	1004e913          	ori	s2,s1,256
   11f3e:	6d92                	ld	s11,256(sp)
   11f40:	2901                	sext.w	s2,s2
   11f42:	d40bcde3          	bltz	s7,11c9c <_vfprintf_r+0x1742>
   11f46:	0f810893          	addi	a7,sp,248
   11f4a:	0ec10813          	addi	a6,sp,236
   11f4e:	11bc                	addi	a5,sp,232
   11f50:	8762                	mv	a4,s8
   11f52:	4689                	li	a3,2
   11f54:	85ee                	mv	a1,s11
   11f56:	865e                	mv	a2,s7
   11f58:	8552                	mv	a0,s4
   11f5a:	f01a                	sd	t1,32(sp)
   11f5c:	693010ef          	jal	ra,13dee <_ldtoa_r>
   11f60:	7302                	ld	t1,32(sp)
   11f62:	f526                	sd	s1,168(sp)
   11f64:	8d2a                	mv	s10,a0
   11f66:	84ca                	mv	s1,s2
   11f68:	ec02                	sd	zero,24(sp)
   11f6a:	e582                	sd	zero,200(sp)
   11f6c:	b36d                	j	11d16 <_vfprintf_r+0x17bc>
   11f6e:	ec02                	sd	zero,24(sp)
   11f70:	84be                	mv	s1,a5
   11f72:	bb05                	j	11ca2 <_vfprintf_r+0x1748>
   11f74:	06700c93          	li	s9,103
   11f78:	7786                	ld	a5,96(sp)
   11f7a:	0ff00713          	li	a4,255
   11f7e:	e482                	sd	zero,72(sp)
   11f80:	0007c783          	lbu	a5,0(a5)
   11f84:	ec82                	sd	zero,88(sp)
   11f86:	02e78863          	beq	a5,a4,11fb6 <_vfprintf_r+0x1a5c>
   11f8a:	0ff00693          	li	a3,255
   11f8e:	6646                	ld	a2,80(sp)
   11f90:	0007871b          	sext.w	a4,a5
   11f94:	02c7d163          	bge	a5,a2,11fb6 <_vfprintf_r+0x1a5c>
   11f98:	7586                	ld	a1,96(sp)
   11f9a:	40e6073b          	subw	a4,a2,a4
   11f9e:	e8ba                	sd	a4,80(sp)
   11fa0:	0015c783          	lbu	a5,1(a1)
   11fa4:	cf8d                	beqz	a5,11fde <_vfprintf_r+0x1a84>
   11fa6:	6766                	ld	a4,88(sp)
   11fa8:	2705                	addiw	a4,a4,1
   11faa:	ecba                	sd	a4,88(sp)
   11fac:	00158713          	addi	a4,a1,1
   11fb0:	f0ba                	sd	a4,96(sp)
   11fb2:	fcd79ee3          	bne	a5,a3,11f8e <_vfprintf_r+0x1a34>
   11fb6:	6766                	ld	a4,88(sp)
   11fb8:	67a6                	ld	a5,72(sp)
   11fba:	9fb9                	addw	a5,a5,a4
   11fbc:	670a                	ld	a4,128(sp)
   11fbe:	02e787bb          	mulw	a5,a5,a4
   11fc2:	017787bb          	addw	a5,a5,s7
   11fc6:	00078b9b          	sext.w	s7,a5
   11fca:	fffbc913          	not	s2,s7
   11fce:	43f95913          	srai	s2,s2,0x3f
   11fd2:	0127f7b3          	and	a5,a5,s2
   11fd6:	0007891b          	sext.w	s2,a5
   11fda:	b8bfe06f          	j	10b64 <_vfprintf_r+0x60a>
   11fde:	6726                	ld	a4,72(sp)
   11fe0:	7786                	ld	a5,96(sp)
   11fe2:	2705                	addiw	a4,a4,1
   11fe4:	0007c783          	lbu	a5,0(a5)
   11fe8:	e4ba                	sd	a4,72(sp)
   11fea:	b7e1                	j	11fb2 <_vfprintf_r+0x1a58>
   11fec:	85de                	mv	a1,s7
   11fee:	856e                	mv	a0,s11
   11ff0:	fc1a                	sd	t1,56(sp)
   11ff2:	5d1090ef          	jal	ra,1bdc2 <__trunctfdf2>
   11ff6:	11a8                	addi	a0,sp,232
   11ff8:	0b6040ef          	jal	ra,160ae <frexp>
   11ffc:	507090ef          	jal	ra,1bd02 <__extenddftf2>
   12000:	768a                	ld	a3,160(sp)
   12002:	4601                	li	a2,0
   12004:	5e1080ef          	jal	ra,1ade4 <__multf3>
   12008:	4601                	li	a2,0
   1200a:	4681                	li	a3,0
   1200c:	f82a                	sd	a0,48(sp)
   1200e:	f02e                	sd	a1,32(sp)
   12010:	3f1080ef          	jal	ra,1ac00 <__eqtf2>
   12014:	7f82                	ld	t6,32(sp)
   12016:	7f42                	ld	t5,48(sp)
   12018:	7362                	ld	t1,56(sp)
   1201a:	e119                	bnez	a0,12020 <_vfprintf_r+0x1ac6>
   1201c:	4785                	li	a5,1
   1201e:	d5be                	sw	a5,232(sp)
   12020:	6bf1                	lui	s7,0x1c
   12022:	120b8793          	addi	a5,s7,288 # 1c120 <__clzdi2+0x12e>
   12026:	e4be                	sd	a5,72(sp)
   12028:	b625                	j	11b50 <_vfprintf_r+0x15f6>
   1202a:	0f210713          	addi	a4,sp,242
   1202e:	e699                	bnez	a3,1203c <_vfprintf_r+0x1ae2>
   12030:	03000713          	li	a4,48
   12034:	0ee10923          	sb	a4,242(sp)
   12038:	0f310713          	addi	a4,sp,243
   1203c:	0c14                	addi	a3,sp,528
   1203e:	0307879b          	addiw	a5,a5,48
   12042:	40d706b3          	sub	a3,a4,a3
   12046:	00f70023          	sb	a5,0(a4)
   1204a:	1216879b          	addiw	a5,a3,289
   1204e:	fcbe                	sd	a5,120(sp)
   12050:	adbfe06f          	j	10b2a <_vfprintf_r+0x5d0>
   12054:	77a6                	ld	a5,104(sp)
   12056:	06600c93          	li	s9,102
   1205a:	00e78bbb          	addw	s7,a5,a4
   1205e:	018b8bbb          	addw	s7,s7,s8
   12062:	bba5                	j	11dda <_vfprintf_r+0x1880>
   12064:	772a                	ld	a4,168(sp)
   12066:	8b05                	andi	a4,a4,1
   12068:	e319                	bnez	a4,1206e <_vfprintf_r+0x1b14>
   1206a:	adbfe06f          	j	10b44 <_vfprintf_r+0x5ea>
   1206e:	ad1fe06f          	j	10b3e <_vfprintf_r+0x5e4>
   12072:	40eb87bb          	subw	a5,s7,a4
   12076:	2785                	addiw	a5,a5,1
   12078:	00078b9b          	sext.w	s7,a5
   1207c:	fffbc913          	not	s2,s7
   12080:	43f95913          	srai	s2,s2,0x3f
   12084:	0127f7b3          	and	a5,a5,s2
   12088:	0007891b          	sext.w	s2,a5
   1208c:	bee5                	j	11c84 <_vfprintf_r+0x172a>
   1208e:	e791                	bnez	a5,1209a <_vfprintf_r+0x1b40>
   12090:	4905                	li	s2,1
   12092:	06600c93          	li	s9,102
   12096:	4b85                	li	s7,1
   12098:	b6f5                	j	11c84 <_vfprintf_r+0x172a>
   1209a:	77a6                	ld	a5,104(sp)
   1209c:	06600c93          	li	s9,102
   120a0:	2785                	addiw	a5,a5,1
   120a2:	01878e3b          	addw	t3,a5,s8
   120a6:	000e0b9b          	sext.w	s7,t3
   120aa:	fffbc913          	not	s2,s7
   120ae:	43f95913          	srai	s2,s2,0x3f
   120b2:	012e7e33          	and	t3,t3,s2
   120b6:	000e091b          	sext.w	s2,t3
   120ba:	b6e9                	j	11c84 <_vfprintf_r+0x172a>
   120bc:	68f1                	lui	a7,0x1c
   120be:	871a                	mv	a4,t1
   120c0:	2c888d93          	addi	s11,a7,712 # 1c2c8 <zeroes.4521>
   120c4:	cf4ff06f          	j	115b8 <_vfprintf_r+0x105e>
   120c8:	66c2                	ld	a3,16(sp)
   120ca:	4298                	lw	a4,0(a3)
   120cc:	06a1                	addi	a3,a3,8
   120ce:	8e3a                	mv	t3,a4
   120d0:	00075363          	bgez	a4,120d6 <_vfprintf_r+0x1b7c>
   120d4:	5e7d                	li	t3,-1
   120d6:	00144e83          	lbu	t4,1(s0)
   120da:	000e0c1b          	sext.w	s8,t3
   120de:	e836                	sd	a3,16(sp)
   120e0:	843e                	mv	s0,a5
   120e2:	dc8fe06f          	j	106aa <_vfprintf_r+0x150>
   120e6:	0109d783          	lhu	a5,16(s3)
   120ea:	0407e793          	ori	a5,a5,64
   120ee:	00f99823          	sh	a5,16(s3)
   120f2:	f1cfe06f          	j	1080e <_vfprintf_r+0x2b4>
   120f6:	4789                	li	a5,2
   120f8:	fcbe                	sd	a5,120(sp)
   120fa:	a31fe06f          	j	10b2a <_vfprintf_r+0x5d0>

00000000000120fe <vfprintf>:
   120fe:	87aa                	mv	a5,a0
   12100:	7581b503          	ld	a0,1880(gp) # 1ef48 <_impure_ptr>
   12104:	86b2                	mv	a3,a2
   12106:	862e                	mv	a2,a1
   12108:	85be                	mv	a1,a5
   1210a:	c50fe06f          	j	1055a <_vfprintf_r>

000000000001210e <__sbprintf>:
   1210e:	0105d783          	lhu	a5,16(a1)
   12112:	0ac5ae03          	lw	t3,172(a1)
   12116:	0125d303          	lhu	t1,18(a1)
   1211a:	0305b883          	ld	a7,48(a1)
   1211e:	0405b803          	ld	a6,64(a1)
   12122:	b3010113          	addi	sp,sp,-1232
   12126:	9bf5                	andi	a5,a5,-3
   12128:	40000713          	li	a4,1024
   1212c:	4c813023          	sd	s0,1216(sp)
   12130:	00f11823          	sh	a5,16(sp)
   12134:	842e                	mv	s0,a1
   12136:	191c                	addi	a5,sp,176
   12138:	858a                	mv	a1,sp
   1213a:	4a913c23          	sd	s1,1208(sp)
   1213e:	4b213823          	sd	s2,1200(sp)
   12142:	4c113423          	sd	ra,1224(sp)
   12146:	892a                	mv	s2,a0
   12148:	d772                	sw	t3,172(sp)
   1214a:	00611923          	sh	t1,18(sp)
   1214e:	f846                	sd	a7,48(sp)
   12150:	e0c2                	sd	a6,64(sp)
   12152:	e03e                	sd	a5,0(sp)
   12154:	ec3e                	sd	a5,24(sp)
   12156:	c63a                	sw	a4,12(sp)
   12158:	d03a                	sw	a4,32(sp)
   1215a:	d402                	sw	zero,40(sp)
   1215c:	bfefe0ef          	jal	ra,1055a <_vfprintf_r>
   12160:	84aa                	mv	s1,a0
   12162:	02055963          	bgez	a0,12194 <__sbprintf+0x86>
   12166:	01015783          	lhu	a5,16(sp)
   1216a:	0407f793          	andi	a5,a5,64
   1216e:	c799                	beqz	a5,1217c <__sbprintf+0x6e>
   12170:	01045783          	lhu	a5,16(s0)
   12174:	0407e793          	ori	a5,a5,64
   12178:	00f41823          	sh	a5,16(s0)
   1217c:	4c813083          	ld	ra,1224(sp)
   12180:	4c013403          	ld	s0,1216(sp)
   12184:	4b013903          	ld	s2,1200(sp)
   12188:	8526                	mv	a0,s1
   1218a:	4b813483          	ld	s1,1208(sp)
   1218e:	4d010113          	addi	sp,sp,1232
   12192:	8082                	ret
   12194:	858a                	mv	a1,sp
   12196:	854a                	mv	a0,s2
   12198:	354000ef          	jal	ra,124ec <_fflush_r>
   1219c:	d569                	beqz	a0,12166 <__sbprintf+0x58>
   1219e:	54fd                	li	s1,-1
   121a0:	b7d9                	j	12166 <__sbprintf+0x58>

00000000000121a2 <__swsetup_r>:
   121a2:	7581b783          	ld	a5,1880(gp) # 1ef48 <_impure_ptr>
   121a6:	1101                	addi	sp,sp,-32
   121a8:	e822                	sd	s0,16(sp)
   121aa:	e426                	sd	s1,8(sp)
   121ac:	ec06                	sd	ra,24(sp)
   121ae:	84aa                	mv	s1,a0
   121b0:	842e                	mv	s0,a1
   121b2:	c399                	beqz	a5,121b8 <__swsetup_r+0x16>
   121b4:	4bb8                	lw	a4,80(a5)
   121b6:	cf49                	beqz	a4,12250 <__swsetup_r+0xae>
   121b8:	01041703          	lh	a4,16(s0)
   121bc:	03071793          	slli	a5,a4,0x30
   121c0:	00877693          	andi	a3,a4,8
   121c4:	93c1                	srli	a5,a5,0x30
   121c6:	c29d                	beqz	a3,121ec <__swsetup_r+0x4a>
   121c8:	6c14                	ld	a3,24(s0)
   121ca:	ce9d                	beqz	a3,12208 <__swsetup_r+0x66>
   121cc:	0017f613          	andi	a2,a5,1
   121d0:	ce39                	beqz	a2,1222e <__swsetup_r+0x8c>
   121d2:	5010                	lw	a2,32(s0)
   121d4:	00042623          	sw	zero,12(s0)
   121d8:	4501                	li	a0,0
   121da:	40c0063b          	negw	a2,a2
   121de:	d410                	sw	a2,40(s0)
   121e0:	ceb9                	beqz	a3,1223e <__swsetup_r+0x9c>
   121e2:	60e2                	ld	ra,24(sp)
   121e4:	6442                	ld	s0,16(sp)
   121e6:	64a2                	ld	s1,8(sp)
   121e8:	6105                	addi	sp,sp,32
   121ea:	8082                	ret
   121ec:	0107f693          	andi	a3,a5,16
   121f0:	cac1                	beqz	a3,12280 <__swsetup_r+0xde>
   121f2:	8b91                	andi	a5,a5,4
   121f4:	e3b5                	bnez	a5,12258 <__swsetup_r+0xb6>
   121f6:	6c14                	ld	a3,24(s0)
   121f8:	00876713          	ori	a4,a4,8
   121fc:	03071793          	slli	a5,a4,0x30
   12200:	00e41823          	sh	a4,16(s0)
   12204:	93c1                	srli	a5,a5,0x30
   12206:	f2f9                	bnez	a3,121cc <__swsetup_r+0x2a>
   12208:	2807f613          	andi	a2,a5,640
   1220c:	20000593          	li	a1,512
   12210:	fab60ee3          	beq	a2,a1,121cc <__swsetup_r+0x2a>
   12214:	85a2                	mv	a1,s0
   12216:	8526                	mv	a0,s1
   12218:	339020ef          	jal	ra,14d50 <__smakebuf_r>
   1221c:	01041703          	lh	a4,16(s0)
   12220:	6c14                	ld	a3,24(s0)
   12222:	03071793          	slli	a5,a4,0x30
   12226:	93c1                	srli	a5,a5,0x30
   12228:	0017f613          	andi	a2,a5,1
   1222c:	f25d                	bnez	a2,121d2 <__swsetup_r+0x30>
   1222e:	0027f613          	andi	a2,a5,2
   12232:	4581                	li	a1,0
   12234:	e211                	bnez	a2,12238 <__swsetup_r+0x96>
   12236:	500c                	lw	a1,32(s0)
   12238:	c44c                	sw	a1,12(s0)
   1223a:	4501                	li	a0,0
   1223c:	f2dd                	bnez	a3,121e2 <__swsetup_r+0x40>
   1223e:	0807f793          	andi	a5,a5,128
   12242:	d3c5                	beqz	a5,121e2 <__swsetup_r+0x40>
   12244:	04076713          	ori	a4,a4,64
   12248:	00e41823          	sh	a4,16(s0)
   1224c:	557d                	li	a0,-1
   1224e:	bf51                	j	121e2 <__swsetup_r+0x40>
   12250:	853e                	mv	a0,a5
   12252:	51c000ef          	jal	ra,1276e <__sinit>
   12256:	b78d                	j	121b8 <__swsetup_r+0x16>
   12258:	6c2c                	ld	a1,88(s0)
   1225a:	cd81                	beqz	a1,12272 <__swsetup_r+0xd0>
   1225c:	07440793          	addi	a5,s0,116
   12260:	00f58763          	beq	a1,a5,1226e <__swsetup_r+0xcc>
   12264:	8526                	mv	a0,s1
   12266:	634000ef          	jal	ra,1289a <_free_r>
   1226a:	01041703          	lh	a4,16(s0)
   1226e:	04043c23          	sd	zero,88(s0)
   12272:	6c14                	ld	a3,24(s0)
   12274:	fdb77713          	andi	a4,a4,-37
   12278:	00042423          	sw	zero,8(s0)
   1227c:	e014                	sd	a3,0(s0)
   1227e:	bfad                	j	121f8 <__swsetup_r+0x56>
   12280:	47a5                	li	a5,9
   12282:	c09c                	sw	a5,0(s1)
   12284:	04076713          	ori	a4,a4,64
   12288:	00e41823          	sh	a4,16(s0)
   1228c:	557d                	li	a0,-1
   1228e:	bf91                	j	121e2 <__swsetup_r+0x40>

0000000000012290 <__call_exitprocs>:
   12290:	715d                	addi	sp,sp,-80
   12292:	f052                	sd	s4,32(sp)
   12294:	7481ba03          	ld	s4,1864(gp) # 1ef38 <_global_impure_ptr>
   12298:	f84a                	sd	s2,48(sp)
   1229a:	e486                	sd	ra,72(sp)
   1229c:	1f8a3903          	ld	s2,504(s4)
   122a0:	e0a2                	sd	s0,64(sp)
   122a2:	fc26                	sd	s1,56(sp)
   122a4:	f44e                	sd	s3,40(sp)
   122a6:	ec56                	sd	s5,24(sp)
   122a8:	e85a                	sd	s6,16(sp)
   122aa:	e45e                	sd	s7,8(sp)
   122ac:	e062                	sd	s8,0(sp)
   122ae:	02090863          	beqz	s2,122de <__call_exitprocs+0x4e>
   122b2:	8b2a                	mv	s6,a0
   122b4:	8bae                	mv	s7,a1
   122b6:	4a85                	li	s5,1
   122b8:	59fd                	li	s3,-1
   122ba:	00892483          	lw	s1,8(s2)
   122be:	fff4841b          	addiw	s0,s1,-1
   122c2:	00044e63          	bltz	s0,122de <__call_exitprocs+0x4e>
   122c6:	048e                	slli	s1,s1,0x3
   122c8:	94ca                	add	s1,s1,s2
   122ca:	020b8663          	beqz	s7,122f6 <__call_exitprocs+0x66>
   122ce:	2084b783          	ld	a5,520(s1)
   122d2:	03778263          	beq	a5,s7,122f6 <__call_exitprocs+0x66>
   122d6:	347d                	addiw	s0,s0,-1
   122d8:	14e1                	addi	s1,s1,-8
   122da:	ff3418e3          	bne	s0,s3,122ca <__call_exitprocs+0x3a>
   122de:	60a6                	ld	ra,72(sp)
   122e0:	6406                	ld	s0,64(sp)
   122e2:	74e2                	ld	s1,56(sp)
   122e4:	7942                	ld	s2,48(sp)
   122e6:	79a2                	ld	s3,40(sp)
   122e8:	7a02                	ld	s4,32(sp)
   122ea:	6ae2                	ld	s5,24(sp)
   122ec:	6b42                	ld	s6,16(sp)
   122ee:	6ba2                	ld	s7,8(sp)
   122f0:	6c02                	ld	s8,0(sp)
   122f2:	6161                	addi	sp,sp,80
   122f4:	8082                	ret
   122f6:	00892783          	lw	a5,8(s2)
   122fa:	6498                	ld	a4,8(s1)
   122fc:	37fd                	addiw	a5,a5,-1
   122fe:	04878463          	beq	a5,s0,12346 <__call_exitprocs+0xb6>
   12302:	0004b423          	sd	zero,8(s1)
   12306:	db61                	beqz	a4,122d6 <__call_exitprocs+0x46>
   12308:	31092783          	lw	a5,784(s2)
   1230c:	008a96bb          	sllw	a3,s5,s0
   12310:	00892c03          	lw	s8,8(s2)
   12314:	8ff5                	and	a5,a5,a3
   12316:	2781                	sext.w	a5,a5
   12318:	ef89                	bnez	a5,12332 <__call_exitprocs+0xa2>
   1231a:	9702                	jalr	a4
   1231c:	00892703          	lw	a4,8(s2)
   12320:	1f8a3783          	ld	a5,504(s4)
   12324:	01871463          	bne	a4,s8,1232c <__call_exitprocs+0x9c>
   12328:	faf907e3          	beq	s2,a5,122d6 <__call_exitprocs+0x46>
   1232c:	dbcd                	beqz	a5,122de <__call_exitprocs+0x4e>
   1232e:	893e                	mv	s2,a5
   12330:	b769                	j	122ba <__call_exitprocs+0x2a>
   12332:	31492783          	lw	a5,788(s2)
   12336:	1084b583          	ld	a1,264(s1)
   1233a:	8ff5                	and	a5,a5,a3
   1233c:	2781                	sext.w	a5,a5
   1233e:	e799                	bnez	a5,1234c <__call_exitprocs+0xbc>
   12340:	855a                	mv	a0,s6
   12342:	9702                	jalr	a4
   12344:	bfe1                	j	1231c <__call_exitprocs+0x8c>
   12346:	00892423          	sw	s0,8(s2)
   1234a:	bf75                	j	12306 <__call_exitprocs+0x76>
   1234c:	852e                	mv	a0,a1
   1234e:	9702                	jalr	a4
   12350:	b7f1                	j	1231c <__call_exitprocs+0x8c>

0000000000012352 <__sflush_r>:
   12352:	01059783          	lh	a5,16(a1)
   12356:	7179                	addi	sp,sp,-48
   12358:	f022                	sd	s0,32(sp)
   1235a:	e44e                	sd	s3,8(sp)
   1235c:	f406                	sd	ra,40(sp)
   1235e:	ec26                	sd	s1,24(sp)
   12360:	e84a                	sd	s2,16(sp)
   12362:	0087f693          	andi	a3,a5,8
   12366:	842e                	mv	s0,a1
   12368:	89aa                	mv	s3,a0
   1236a:	eecd                	bnez	a3,12424 <__sflush_r+0xd2>
   1236c:	6705                	lui	a4,0x1
   1236e:	80070713          	addi	a4,a4,-2048 # 800 <register_fini-0xf8e8>
   12372:	4594                	lw	a3,8(a1)
   12374:	8fd9                	or	a5,a5,a4
   12376:	00f59823          	sh	a5,16(a1)
   1237a:	10d05363          	blez	a3,12480 <__sflush_r+0x12e>
   1237e:	6438                	ld	a4,72(s0)
   12380:	cb51                	beqz	a4,12414 <__sflush_r+0xc2>
   12382:	0009a483          	lw	s1,0(s3)
   12386:	03079693          	slli	a3,a5,0x30
   1238a:	0009a023          	sw	zero,0(s3)
   1238e:	03379613          	slli	a2,a5,0x33
   12392:	780c                	ld	a1,48(s0)
   12394:	92c1                	srli	a3,a3,0x30
   12396:	0e064963          	bltz	a2,12488 <__sflush_r+0x136>
   1239a:	4601                	li	a2,0
   1239c:	4685                	li	a3,1
   1239e:	854e                	mv	a0,s3
   123a0:	9702                	jalr	a4
   123a2:	57fd                	li	a5,-1
   123a4:	862a                	mv	a2,a0
   123a6:	10f50963          	beq	a0,a5,124b8 <__sflush_r+0x166>
   123aa:	01045683          	lhu	a3,16(s0)
   123ae:	6438                	ld	a4,72(s0)
   123b0:	780c                	ld	a1,48(s0)
   123b2:	8a91                	andi	a3,a3,4
   123b4:	c699                	beqz	a3,123c2 <__sflush_r+0x70>
   123b6:	4414                	lw	a3,8(s0)
   123b8:	6c3c                	ld	a5,88(s0)
   123ba:	8e15                	sub	a2,a2,a3
   123bc:	c399                	beqz	a5,123c2 <__sflush_r+0x70>
   123be:	583c                	lw	a5,112(s0)
   123c0:	8e1d                	sub	a2,a2,a5
   123c2:	4681                	li	a3,0
   123c4:	854e                	mv	a0,s3
   123c6:	9702                	jalr	a4
   123c8:	57fd                	li	a5,-1
   123ca:	0cf51163          	bne	a0,a5,1248c <__sflush_r+0x13a>
   123ce:	0009a703          	lw	a4,0(s3)
   123d2:	01041783          	lh	a5,16(s0)
   123d6:	0e070f63          	beqz	a4,124d4 <__sflush_r+0x182>
   123da:	46f5                	li	a3,29
   123dc:	00d70563          	beq	a4,a3,123e6 <__sflush_r+0x94>
   123e0:	46d9                	li	a3,22
   123e2:	0ed71f63          	bne	a4,a3,124e0 <__sflush_r+0x18e>
   123e6:	6c14                	ld	a3,24(s0)
   123e8:	777d                	lui	a4,0xfffff
   123ea:	7ff70713          	addi	a4,a4,2047 # fffffffffffff7ff <__BSS_END__+0xfffffffffffe080f>
   123ee:	8ff9                	and	a5,a5,a4
   123f0:	00f41823          	sh	a5,16(s0)
   123f4:	00042423          	sw	zero,8(s0)
   123f8:	e014                	sd	a3,0(s0)
   123fa:	6c2c                	ld	a1,88(s0)
   123fc:	0099a023          	sw	s1,0(s3)
   12400:	c991                	beqz	a1,12414 <__sflush_r+0xc2>
   12402:	07440793          	addi	a5,s0,116
   12406:	00f58563          	beq	a1,a5,12410 <__sflush_r+0xbe>
   1240a:	854e                	mv	a0,s3
   1240c:	48e000ef          	jal	ra,1289a <_free_r>
   12410:	04043c23          	sd	zero,88(s0)
   12414:	4501                	li	a0,0
   12416:	70a2                	ld	ra,40(sp)
   12418:	7402                	ld	s0,32(sp)
   1241a:	64e2                	ld	s1,24(sp)
   1241c:	6942                	ld	s2,16(sp)
   1241e:	69a2                	ld	s3,8(sp)
   12420:	6145                	addi	sp,sp,48
   12422:	8082                	ret
   12424:	0185b903          	ld	s2,24(a1)
   12428:	fe0906e3          	beqz	s2,12414 <__sflush_r+0xc2>
   1242c:	6184                	ld	s1,0(a1)
   1242e:	03079713          	slli	a4,a5,0x30
   12432:	9341                	srli	a4,a4,0x30
   12434:	8b0d                	andi	a4,a4,3
   12436:	0125b023          	sd	s2,0(a1)
   1243a:	412484bb          	subw	s1,s1,s2
   1243e:	4781                	li	a5,0
   12440:	e311                	bnez	a4,12444 <__sflush_r+0xf2>
   12442:	519c                	lw	a5,32(a1)
   12444:	c45c                	sw	a5,12(s0)
   12446:	00904663          	bgtz	s1,12452 <__sflush_r+0x100>
   1244a:	b7e9                	j	12414 <__sflush_r+0xc2>
   1244c:	992a                	add	s2,s2,a0
   1244e:	fc9053e3          	blez	s1,12414 <__sflush_r+0xc2>
   12452:	603c                	ld	a5,64(s0)
   12454:	780c                	ld	a1,48(s0)
   12456:	86a6                	mv	a3,s1
   12458:	864a                	mv	a2,s2
   1245a:	854e                	mv	a0,s3
   1245c:	9782                	jalr	a5
   1245e:	9c89                	subw	s1,s1,a0
   12460:	fea046e3          	bgtz	a0,1244c <__sflush_r+0xfa>
   12464:	01045783          	lhu	a5,16(s0)
   12468:	70a2                	ld	ra,40(sp)
   1246a:	64e2                	ld	s1,24(sp)
   1246c:	0407e793          	ori	a5,a5,64
   12470:	00f41823          	sh	a5,16(s0)
   12474:	7402                	ld	s0,32(sp)
   12476:	6942                	ld	s2,16(sp)
   12478:	69a2                	ld	s3,8(sp)
   1247a:	557d                	li	a0,-1
   1247c:	6145                	addi	sp,sp,48
   1247e:	8082                	ret
   12480:	59b8                	lw	a4,112(a1)
   12482:	eee04ee3          	bgtz	a4,1237e <__sflush_r+0x2c>
   12486:	b779                	j	12414 <__sflush_r+0xc2>
   12488:	6850                	ld	a2,144(s0)
   1248a:	b725                	j	123b2 <__sflush_r+0x60>
   1248c:	01045783          	lhu	a5,16(s0)
   12490:	777d                	lui	a4,0xfffff
   12492:	7ff70713          	addi	a4,a4,2047 # fffffffffffff7ff <__BSS_END__+0xfffffffffffe080f>
   12496:	8ff9                	and	a5,a5,a4
   12498:	6c14                	ld	a3,24(s0)
   1249a:	0107979b          	slliw	a5,a5,0x10
   1249e:	4107d79b          	sraiw	a5,a5,0x10
   124a2:	00f41823          	sh	a5,16(s0)
   124a6:	00042423          	sw	zero,8(s0)
   124aa:	e014                	sd	a3,0(s0)
   124ac:	03379713          	slli	a4,a5,0x33
   124b0:	f40755e3          	bgez	a4,123fa <__sflush_r+0xa8>
   124b4:	e848                	sd	a0,144(s0)
   124b6:	b791                	j	123fa <__sflush_r+0xa8>
   124b8:	0009a783          	lw	a5,0(s3)
   124bc:	ee0787e3          	beqz	a5,123aa <__sflush_r+0x58>
   124c0:	4775                	li	a4,29
   124c2:	00e78563          	beq	a5,a4,124cc <__sflush_r+0x17a>
   124c6:	4759                	li	a4,22
   124c8:	f8e79ee3          	bne	a5,a4,12464 <__sflush_r+0x112>
   124cc:	0099a023          	sw	s1,0(s3)
   124d0:	4501                	li	a0,0
   124d2:	b791                	j	12416 <__sflush_r+0xc4>
   124d4:	777d                	lui	a4,0xfffff
   124d6:	7ff70713          	addi	a4,a4,2047 # fffffffffffff7ff <__BSS_END__+0xfffffffffffe080f>
   124da:	6c14                	ld	a3,24(s0)
   124dc:	8ff9                	and	a5,a5,a4
   124de:	b7d1                	j	124a2 <__sflush_r+0x150>
   124e0:	0407e793          	ori	a5,a5,64
   124e4:	00f41823          	sh	a5,16(s0)
   124e8:	557d                	li	a0,-1
   124ea:	b735                	j	12416 <__sflush_r+0xc4>

00000000000124ec <_fflush_r>:
   124ec:	1101                	addi	sp,sp,-32
   124ee:	e822                	sd	s0,16(sp)
   124f0:	ec06                	sd	ra,24(sp)
   124f2:	842a                	mv	s0,a0
   124f4:	c119                	beqz	a0,124fa <_fflush_r+0xe>
   124f6:	493c                	lw	a5,80(a0)
   124f8:	cb89                	beqz	a5,1250a <_fflush_r+0x1e>
   124fa:	01059783          	lh	a5,16(a1)
   124fe:	ef89                	bnez	a5,12518 <_fflush_r+0x2c>
   12500:	60e2                	ld	ra,24(sp)
   12502:	6442                	ld	s0,16(sp)
   12504:	4501                	li	a0,0
   12506:	6105                	addi	sp,sp,32
   12508:	8082                	ret
   1250a:	e42e                	sd	a1,8(sp)
   1250c:	262000ef          	jal	ra,1276e <__sinit>
   12510:	65a2                	ld	a1,8(sp)
   12512:	01059783          	lh	a5,16(a1)
   12516:	d7ed                	beqz	a5,12500 <_fflush_r+0x14>
   12518:	8522                	mv	a0,s0
   1251a:	6442                	ld	s0,16(sp)
   1251c:	60e2                	ld	ra,24(sp)
   1251e:	6105                	addi	sp,sp,32
   12520:	bd0d                	j	12352 <__sflush_r>

0000000000012522 <fflush>:
   12522:	85aa                	mv	a1,a0
   12524:	c501                	beqz	a0,1252c <fflush+0xa>
   12526:	7581b503          	ld	a0,1880(gp) # 1ef48 <_impure_ptr>
   1252a:	b7c9                	j	124ec <_fflush_r>
   1252c:	7481b503          	ld	a0,1864(gp) # 1ef38 <_global_impure_ptr>
   12530:	65c9                	lui	a1,0x12
   12532:	4ec58593          	addi	a1,a1,1260 # 124ec <_fflush_r>
   12536:	ad0d                	j	12b68 <_fwalk_reent>

0000000000012538 <__fp_lock>:
   12538:	4501                	li	a0,0
   1253a:	8082                	ret

000000000001253c <_cleanup_r>:
   1253c:	65e5                	lui	a1,0x19
   1253e:	f2458593          	addi	a1,a1,-220 # 18f24 <_fclose_r>
   12542:	a51d                	j	12b68 <_fwalk_reent>

0000000000012544 <__sinit.part.0>:
   12544:	7139                	addi	sp,sp,-64
   12546:	67c9                	lui	a5,0x12
   12548:	fc06                	sd	ra,56(sp)
   1254a:	f822                	sd	s0,48(sp)
   1254c:	f426                	sd	s1,40(sp)
   1254e:	f04a                	sd	s2,32(sp)
   12550:	ec4e                	sd	s3,24(sp)
   12552:	e852                	sd	s4,16(sp)
   12554:	e456                	sd	s5,8(sp)
   12556:	e05a                	sd	s6,0(sp)
   12558:	6500                	ld	s0,8(a0)
   1255a:	53c78793          	addi	a5,a5,1340 # 1253c <_cleanup_r>
   1255e:	ed3c                	sd	a5,88(a0)
   12560:	53850713          	addi	a4,a0,1336
   12564:	478d                	li	a5,3
   12566:	52e53823          	sd	a4,1328(a0)
   1256a:	52f52423          	sw	a5,1320(a0)
   1256e:	52053023          	sd	zero,1312(a0)
   12572:	4791                	li	a5,4
   12574:	892a                	mv	s2,a0
   12576:	c81c                	sw	a5,16(s0)
   12578:	4621                	li	a2,8
   1257a:	4581                	li	a1,0
   1257c:	0a042623          	sw	zero,172(s0)
   12580:	00043023          	sd	zero,0(s0)
   12584:	00043423          	sd	zero,8(s0)
   12588:	00043c23          	sd	zero,24(s0)
   1258c:	02042023          	sw	zero,32(s0)
   12590:	02042423          	sw	zero,40(s0)
   12594:	0a440513          	addi	a0,s0,164
   12598:	ecbfd0ef          	jal	ra,10462 <memset>
   1259c:	6b59                	lui	s6,0x16
   1259e:	01093483          	ld	s1,16(s2)
   125a2:	6ad9                	lui	s5,0x16
   125a4:	6a59                	lui	s4,0x16
   125a6:	69d9                	lui	s3,0x16
   125a8:	1b6b0b13          	addi	s6,s6,438 # 161b6 <__sread>
   125ac:	1f2a8a93          	addi	s5,s5,498 # 161f2 <__swrite>
   125b0:	246a0a13          	addi	s4,s4,582 # 16246 <__sseek>
   125b4:	28898993          	addi	s3,s3,648 # 16288 <__sclose>
   125b8:	67c1                	lui	a5,0x10
   125ba:	03643c23          	sd	s6,56(s0)
   125be:	05543023          	sd	s5,64(s0)
   125c2:	05443423          	sd	s4,72(s0)
   125c6:	05343823          	sd	s3,80(s0)
   125ca:	f800                	sd	s0,48(s0)
   125cc:	07a5                	addi	a5,a5,9
   125ce:	c89c                	sw	a5,16(s1)
   125d0:	4621                	li	a2,8
   125d2:	4581                	li	a1,0
   125d4:	0a04a623          	sw	zero,172(s1)
   125d8:	0004b023          	sd	zero,0(s1)
   125dc:	0004b423          	sd	zero,8(s1)
   125e0:	0004bc23          	sd	zero,24(s1)
   125e4:	0204a023          	sw	zero,32(s1)
   125e8:	0204a423          	sw	zero,40(s1)
   125ec:	0a448513          	addi	a0,s1,164
   125f0:	e73fd0ef          	jal	ra,10462 <memset>
   125f4:	01893403          	ld	s0,24(s2)
   125f8:	000207b7          	lui	a5,0x20
   125fc:	0364bc23          	sd	s6,56(s1)
   12600:	0554b023          	sd	s5,64(s1)
   12604:	0544b423          	sd	s4,72(s1)
   12608:	0534b823          	sd	s3,80(s1)
   1260c:	f884                	sd	s1,48(s1)
   1260e:	07c9                	addi	a5,a5,18
   12610:	c81c                	sw	a5,16(s0)
   12612:	0a042623          	sw	zero,172(s0)
   12616:	00043023          	sd	zero,0(s0)
   1261a:	00043423          	sd	zero,8(s0)
   1261e:	00043c23          	sd	zero,24(s0)
   12622:	02042023          	sw	zero,32(s0)
   12626:	02042423          	sw	zero,40(s0)
   1262a:	0a440513          	addi	a0,s0,164
   1262e:	4621                	li	a2,8
   12630:	4581                	li	a1,0
   12632:	e31fd0ef          	jal	ra,10462 <memset>
   12636:	70e2                	ld	ra,56(sp)
   12638:	03643c23          	sd	s6,56(s0)
   1263c:	05543023          	sd	s5,64(s0)
   12640:	05443423          	sd	s4,72(s0)
   12644:	05343823          	sd	s3,80(s0)
   12648:	f800                	sd	s0,48(s0)
   1264a:	7442                	ld	s0,48(sp)
   1264c:	4785                	li	a5,1
   1264e:	04f92823          	sw	a5,80(s2)
   12652:	74a2                	ld	s1,40(sp)
   12654:	7902                	ld	s2,32(sp)
   12656:	69e2                	ld	s3,24(sp)
   12658:	6a42                	ld	s4,16(sp)
   1265a:	6aa2                	ld	s5,8(sp)
   1265c:	6b02                	ld	s6,0(sp)
   1265e:	6121                	addi	sp,sp,64
   12660:	8082                	ret

0000000000012662 <__fp_unlock>:
   12662:	4501                	li	a0,0
   12664:	8082                	ret

0000000000012666 <__sfmoreglue>:
   12666:	1101                	addi	sp,sp,-32
   12668:	e426                	sd	s1,8(sp)
   1266a:	0b000613          	li	a2,176
   1266e:	fff5849b          	addiw	s1,a1,-1
   12672:	02c484b3          	mul	s1,s1,a2
   12676:	e04a                	sd	s2,0(sp)
   12678:	892e                	mv	s2,a1
   1267a:	e822                	sd	s0,16(sp)
   1267c:	ec06                	sd	ra,24(sp)
   1267e:	0c848593          	addi	a1,s1,200
   12682:	788020ef          	jal	ra,14e0a <_malloc_r>
   12686:	842a                	mv	s0,a0
   12688:	cd01                	beqz	a0,126a0 <__sfmoreglue+0x3a>
   1268a:	0561                	addi	a0,a0,24
   1268c:	00043023          	sd	zero,0(s0)
   12690:	01242423          	sw	s2,8(s0)
   12694:	e808                	sd	a0,16(s0)
   12696:	0b048613          	addi	a2,s1,176
   1269a:	4581                	li	a1,0
   1269c:	dc7fd0ef          	jal	ra,10462 <memset>
   126a0:	60e2                	ld	ra,24(sp)
   126a2:	8522                	mv	a0,s0
   126a4:	6442                	ld	s0,16(sp)
   126a6:	64a2                	ld	s1,8(sp)
   126a8:	6902                	ld	s2,0(sp)
   126aa:	6105                	addi	sp,sp,32
   126ac:	8082                	ret

00000000000126ae <__sfp>:
   126ae:	7179                	addi	sp,sp,-48
   126b0:	ec26                	sd	s1,24(sp)
   126b2:	7481b483          	ld	s1,1864(gp) # 1ef38 <_global_impure_ptr>
   126b6:	e84a                	sd	s2,16(sp)
   126b8:	f406                	sd	ra,40(sp)
   126ba:	48bc                	lw	a5,80(s1)
   126bc:	f022                	sd	s0,32(sp)
   126be:	e44e                	sd	s3,8(sp)
   126c0:	892a                	mv	s2,a0
   126c2:	c3c9                	beqz	a5,12744 <__sfp+0x96>
   126c4:	52048493          	addi	s1,s1,1312
   126c8:	0b000993          	li	s3,176
   126cc:	449c                	lw	a5,8(s1)
   126ce:	6880                	ld	s0,16(s1)
   126d0:	06f05663          	blez	a5,1273c <__sfp+0x8e>
   126d4:	37fd                	addiw	a5,a5,-1
   126d6:	1782                	slli	a5,a5,0x20
   126d8:	9381                	srli	a5,a5,0x20
   126da:	0785                	addi	a5,a5,1
   126dc:	033787b3          	mul	a5,a5,s3
   126e0:	97a2                	add	a5,a5,s0
   126e2:	a029                	j	126ec <__sfp+0x3e>
   126e4:	0b040413          	addi	s0,s0,176
   126e8:	04878a63          	beq	a5,s0,1273c <__sfp+0x8e>
   126ec:	01041703          	lh	a4,16(s0)
   126f0:	fb75                	bnez	a4,126e4 <__sfp+0x36>
   126f2:	77c1                	lui	a5,0xffff0
   126f4:	0785                	addi	a5,a5,1
   126f6:	0a042623          	sw	zero,172(s0)
   126fa:	00043023          	sd	zero,0(s0)
   126fe:	00043423          	sd	zero,8(s0)
   12702:	c81c                	sw	a5,16(s0)
   12704:	00043c23          	sd	zero,24(s0)
   12708:	02042023          	sw	zero,32(s0)
   1270c:	02042423          	sw	zero,40(s0)
   12710:	4621                	li	a2,8
   12712:	4581                	li	a1,0
   12714:	0a440513          	addi	a0,s0,164
   12718:	d4bfd0ef          	jal	ra,10462 <memset>
   1271c:	04043c23          	sd	zero,88(s0)
   12720:	06042023          	sw	zero,96(s0)
   12724:	06043c23          	sd	zero,120(s0)
   12728:	08042023          	sw	zero,128(s0)
   1272c:	70a2                	ld	ra,40(sp)
   1272e:	8522                	mv	a0,s0
   12730:	7402                	ld	s0,32(sp)
   12732:	64e2                	ld	s1,24(sp)
   12734:	6942                	ld	s2,16(sp)
   12736:	69a2                	ld	s3,8(sp)
   12738:	6145                	addi	sp,sp,48
   1273a:	8082                	ret
   1273c:	6080                	ld	s0,0(s1)
   1273e:	c419                	beqz	s0,1274c <__sfp+0x9e>
   12740:	84a2                	mv	s1,s0
   12742:	b769                	j	126cc <__sfp+0x1e>
   12744:	8526                	mv	a0,s1
   12746:	dffff0ef          	jal	ra,12544 <__sinit.part.0>
   1274a:	bfad                	j	126c4 <__sfp+0x16>
   1274c:	4591                	li	a1,4
   1274e:	854a                	mv	a0,s2
   12750:	f17ff0ef          	jal	ra,12666 <__sfmoreglue>
   12754:	e088                	sd	a0,0(s1)
   12756:	842a                	mv	s0,a0
   12758:	f565                	bnez	a0,12740 <__sfp+0x92>
   1275a:	47b1                	li	a5,12
   1275c:	00f92023          	sw	a5,0(s2)
   12760:	b7f1                	j	1272c <__sfp+0x7e>

0000000000012762 <_cleanup>:
   12762:	7481b503          	ld	a0,1864(gp) # 1ef38 <_global_impure_ptr>
   12766:	65e5                	lui	a1,0x19
   12768:	f2458593          	addi	a1,a1,-220 # 18f24 <_fclose_r>
   1276c:	aef5                	j	12b68 <_fwalk_reent>

000000000001276e <__sinit>:
   1276e:	493c                	lw	a5,80(a0)
   12770:	c391                	beqz	a5,12774 <__sinit+0x6>
   12772:	8082                	ret
   12774:	bbc1                	j	12544 <__sinit.part.0>

0000000000012776 <__sfp_lock_acquire>:
   12776:	8082                	ret

0000000000012778 <__sfp_lock_release>:
   12778:	8082                	ret

000000000001277a <__sinit_lock_acquire>:
   1277a:	8082                	ret

000000000001277c <__sinit_lock_release>:
   1277c:	8082                	ret

000000000001277e <__fp_lock_all>:
   1277e:	7581b503          	ld	a0,1880(gp) # 1ef48 <_impure_ptr>
   12782:	65c9                	lui	a1,0x12
   12784:	53858593          	addi	a1,a1,1336 # 12538 <__fp_lock>
   12788:	aeb9                	j	12ae6 <_fwalk>

000000000001278a <__fp_unlock_all>:
   1278a:	7581b503          	ld	a0,1880(gp) # 1ef48 <_impure_ptr>
   1278e:	65c9                	lui	a1,0x12
   12790:	66258593          	addi	a1,a1,1634 # 12662 <__fp_unlock>
   12794:	ae89                	j	12ae6 <_fwalk>

0000000000012796 <__libc_fini_array>:
   12796:	1101                	addi	sp,sp,-32
   12798:	e822                	sd	s0,16(sp)
   1279a:	67f9                	lui	a5,0x1e
   1279c:	6479                	lui	s0,0x1e
   1279e:	e0040413          	addi	s0,s0,-512 # 1de00 <__do_global_dtors_aux_fini_array_entry>
   127a2:	e0878793          	addi	a5,a5,-504 # 1de08 <impure_data>
   127a6:	8f81                	sub	a5,a5,s0
   127a8:	e426                	sd	s1,8(sp)
   127aa:	ec06                	sd	ra,24(sp)
   127ac:	4037d493          	srai	s1,a5,0x3
   127b0:	c881                	beqz	s1,127c0 <__libc_fini_array+0x2a>
   127b2:	17e1                	addi	a5,a5,-8
   127b4:	943e                	add	s0,s0,a5
   127b6:	601c                	ld	a5,0(s0)
   127b8:	14fd                	addi	s1,s1,-1
   127ba:	1461                	addi	s0,s0,-8
   127bc:	9782                	jalr	a5
   127be:	fce5                	bnez	s1,127b6 <__libc_fini_array+0x20>
   127c0:	60e2                	ld	ra,24(sp)
   127c2:	6442                	ld	s0,16(sp)
   127c4:	64a2                	ld	s1,8(sp)
   127c6:	6105                	addi	sp,sp,32
   127c8:	8082                	ret

00000000000127ca <_malloc_trim_r>:
   127ca:	7179                	addi	sp,sp,-48
   127cc:	e44e                	sd	s3,8(sp)
   127ce:	69f9                	lui	s3,0x1e
   127d0:	f022                	sd	s0,32(sp)
   127d2:	ec26                	sd	s1,24(sp)
   127d4:	e84a                	sd	s2,16(sp)
   127d6:	e052                	sd	s4,0(sp)
   127d8:	f406                	sd	ra,40(sp)
   127da:	8a2e                	mv	s4,a1
   127dc:	892a                	mv	s2,a0
   127de:	6f898993          	addi	s3,s3,1784 # 1e6f8 <__malloc_av_>
   127e2:	51f020ef          	jal	ra,15500 <__malloc_lock>
   127e6:	0109b703          	ld	a4,16(s3)
   127ea:	6785                	lui	a5,0x1
   127ec:	fdf78413          	addi	s0,a5,-33 # fdf <register_fini-0xf109>
   127f0:	6704                	ld	s1,8(a4)
   127f2:	41440433          	sub	s0,s0,s4
   127f6:	98f1                	andi	s1,s1,-4
   127f8:	9426                	add	s0,s0,s1
   127fa:	8031                	srli	s0,s0,0xc
   127fc:	147d                	addi	s0,s0,-1
   127fe:	0432                	slli	s0,s0,0xc
   12800:	00f44b63          	blt	s0,a5,12816 <_malloc_trim_r+0x4c>
   12804:	4581                	li	a1,0
   12806:	854a                	mv	a0,s2
   12808:	06f030ef          	jal	ra,16076 <_sbrk_r>
   1280c:	0109b783          	ld	a5,16(s3)
   12810:	97a6                	add	a5,a5,s1
   12812:	00f50e63          	beq	a0,a5,1282e <_malloc_trim_r+0x64>
   12816:	854a                	mv	a0,s2
   12818:	4eb020ef          	jal	ra,15502 <__malloc_unlock>
   1281c:	70a2                	ld	ra,40(sp)
   1281e:	7402                	ld	s0,32(sp)
   12820:	64e2                	ld	s1,24(sp)
   12822:	6942                	ld	s2,16(sp)
   12824:	69a2                	ld	s3,8(sp)
   12826:	6a02                	ld	s4,0(sp)
   12828:	4501                	li	a0,0
   1282a:	6145                	addi	sp,sp,48
   1282c:	8082                	ret
   1282e:	408005b3          	neg	a1,s0
   12832:	854a                	mv	a0,s2
   12834:	043030ef          	jal	ra,16076 <_sbrk_r>
   12838:	57fd                	li	a5,-1
   1283a:	02f50b63          	beq	a0,a5,12870 <_malloc_trim_r+0xa6>
   1283e:	67fd                	lui	a5,0x1f
   12840:	fc078793          	addi	a5,a5,-64 # 1efc0 <__malloc_current_mallinfo>
   12844:	4398                	lw	a4,0(a5)
   12846:	0109b683          	ld	a3,16(s3)
   1284a:	8c81                	sub	s1,s1,s0
   1284c:	0014e493          	ori	s1,s1,1
   12850:	4087043b          	subw	s0,a4,s0
   12854:	854a                	mv	a0,s2
   12856:	e684                	sd	s1,8(a3)
   12858:	c380                	sw	s0,0(a5)
   1285a:	4a9020ef          	jal	ra,15502 <__malloc_unlock>
   1285e:	70a2                	ld	ra,40(sp)
   12860:	7402                	ld	s0,32(sp)
   12862:	64e2                	ld	s1,24(sp)
   12864:	6942                	ld	s2,16(sp)
   12866:	69a2                	ld	s3,8(sp)
   12868:	6a02                	ld	s4,0(sp)
   1286a:	4505                	li	a0,1
   1286c:	6145                	addi	sp,sp,48
   1286e:	8082                	ret
   12870:	4581                	li	a1,0
   12872:	854a                	mv	a0,s2
   12874:	003030ef          	jal	ra,16076 <_sbrk_r>
   12878:	0109b703          	ld	a4,16(s3)
   1287c:	46fd                	li	a3,31
   1287e:	40e507b3          	sub	a5,a0,a4
   12882:	f8f6dae3          	bge	a3,a5,12816 <_malloc_trim_r+0x4c>
   12886:	7601b683          	ld	a3,1888(gp) # 1ef50 <__malloc_sbrk_base>
   1288a:	0017e793          	ori	a5,a5,1
   1288e:	e71c                	sd	a5,8(a4)
   12890:	8d15                	sub	a0,a0,a3
   12892:	66fd                	lui	a3,0x1f
   12894:	fca6a023          	sw	a0,-64(a3) # 1efc0 <__malloc_current_mallinfo>
   12898:	bfbd                	j	12816 <_malloc_trim_r+0x4c>

000000000001289a <_free_r>:
   1289a:	c5ed                	beqz	a1,12984 <_free_r+0xea>
   1289c:	1101                	addi	sp,sp,-32
   1289e:	e822                	sd	s0,16(sp)
   128a0:	e426                	sd	s1,8(sp)
   128a2:	842e                	mv	s0,a1
   128a4:	84aa                	mv	s1,a0
   128a6:	ec06                	sd	ra,24(sp)
   128a8:	459020ef          	jal	ra,15500 <__malloc_lock>
   128ac:	ff843503          	ld	a0,-8(s0)
   128b0:	ff040713          	addi	a4,s0,-16
   128b4:	65f9                	lui	a1,0x1e
   128b6:	ffe57793          	andi	a5,a0,-2
   128ba:	00f70633          	add	a2,a4,a5
   128be:	6f858593          	addi	a1,a1,1784 # 1e6f8 <__malloc_av_>
   128c2:	6614                	ld	a3,8(a2)
   128c4:	0105b803          	ld	a6,16(a1)
   128c8:	9af1                	andi	a3,a3,-4
   128ca:	14c80063          	beq	a6,a2,12a0a <_free_r+0x170>
   128ce:	e614                	sd	a3,8(a2)
   128d0:	8905                	andi	a0,a0,1
   128d2:	00d60833          	add	a6,a2,a3
   128d6:	e141                	bnez	a0,12956 <_free_r+0xbc>
   128d8:	ff043303          	ld	t1,-16(s0)
   128dc:	00883803          	ld	a6,8(a6)
   128e0:	6579                	lui	a0,0x1e
   128e2:	40670733          	sub	a4,a4,t1
   128e6:	01073883          	ld	a7,16(a4)
   128ea:	70850513          	addi	a0,a0,1800 # 1e708 <__malloc_av_+0x10>
   128ee:	979a                	add	a5,a5,t1
   128f0:	00187813          	andi	a6,a6,1
   128f4:	0ea88863          	beq	a7,a0,129e4 <_free_r+0x14a>
   128f8:	01873303          	ld	t1,24(a4)
   128fc:	0068bc23          	sd	t1,24(a7)
   12900:	01133823          	sd	a7,16(t1)
   12904:	14080d63          	beqz	a6,12a5e <_free_r+0x1c4>
   12908:	0017e693          	ori	a3,a5,1
   1290c:	e714                	sd	a3,8(a4)
   1290e:	e21c                	sd	a5,0(a2)
   12910:	1ff00693          	li	a3,511
   12914:	08f6e263          	bltu	a3,a5,12998 <_free_r+0xfe>
   12918:	838d                	srli	a5,a5,0x3
   1291a:	0017869b          	addiw	a3,a5,1
   1291e:	0016969b          	slliw	a3,a3,0x1
   12922:	068e                	slli	a3,a3,0x3
   12924:	0085b803          	ld	a6,8(a1)
   12928:	96ae                	add	a3,a3,a1
   1292a:	6288                	ld	a0,0(a3)
   1292c:	4027d61b          	sraiw	a2,a5,0x2
   12930:	4785                	li	a5,1
   12932:	00c797b3          	sll	a5,a5,a2
   12936:	0107e7b3          	or	a5,a5,a6
   1293a:	ff068613          	addi	a2,a3,-16
   1293e:	ef10                	sd	a2,24(a4)
   12940:	eb08                	sd	a0,16(a4)
   12942:	e59c                	sd	a5,8(a1)
   12944:	e298                	sd	a4,0(a3)
   12946:	ed18                	sd	a4,24(a0)
   12948:	6442                	ld	s0,16(sp)
   1294a:	60e2                	ld	ra,24(sp)
   1294c:	8526                	mv	a0,s1
   1294e:	64a2                	ld	s1,8(sp)
   12950:	6105                	addi	sp,sp,32
   12952:	3b10206f          	j	15502 <__malloc_unlock>
   12956:	00883503          	ld	a0,8(a6)
   1295a:	8905                	andi	a0,a0,1
   1295c:	e50d                	bnez	a0,12986 <_free_r+0xec>
   1295e:	6579                	lui	a0,0x1e
   12960:	97b6                	add	a5,a5,a3
   12962:	70850513          	addi	a0,a0,1800 # 1e708 <__malloc_av_+0x10>
   12966:	6a14                	ld	a3,16(a2)
   12968:	0017e893          	ori	a7,a5,1
   1296c:	00f70833          	add	a6,a4,a5
   12970:	10a68163          	beq	a3,a0,12a72 <_free_r+0x1d8>
   12974:	6e10                	ld	a2,24(a2)
   12976:	ee90                	sd	a2,24(a3)
   12978:	ea14                	sd	a3,16(a2)
   1297a:	01173423          	sd	a7,8(a4)
   1297e:	00f83023          	sd	a5,0(a6)
   12982:	b779                	j	12910 <_free_r+0x76>
   12984:	8082                	ret
   12986:	0017e693          	ori	a3,a5,1
   1298a:	fed43c23          	sd	a3,-8(s0)
   1298e:	e21c                	sd	a5,0(a2)
   12990:	1ff00693          	li	a3,511
   12994:	f8f6f2e3          	bgeu	a3,a5,12918 <_free_r+0x7e>
   12998:	0097d693          	srli	a3,a5,0x9
   1299c:	4611                	li	a2,4
   1299e:	08d66f63          	bltu	a2,a3,12a3c <_free_r+0x1a2>
   129a2:	0067d693          	srli	a3,a5,0x6
   129a6:	0396851b          	addiw	a0,a3,57
   129aa:	0015151b          	slliw	a0,a0,0x1
   129ae:	0386861b          	addiw	a2,a3,56
   129b2:	050e                	slli	a0,a0,0x3
   129b4:	952e                	add	a0,a0,a1
   129b6:	6114                	ld	a3,0(a0)
   129b8:	1541                	addi	a0,a0,-16
   129ba:	0cd50563          	beq	a0,a3,12a84 <_free_r+0x1ea>
   129be:	6690                	ld	a2,8(a3)
   129c0:	9a71                	andi	a2,a2,-4
   129c2:	00c7f563          	bgeu	a5,a2,129cc <_free_r+0x132>
   129c6:	6a94                	ld	a3,16(a3)
   129c8:	fed51be3          	bne	a0,a3,129be <_free_r+0x124>
   129cc:	6e88                	ld	a0,24(a3)
   129ce:	ef08                	sd	a0,24(a4)
   129d0:	eb14                	sd	a3,16(a4)
   129d2:	6442                	ld	s0,16(sp)
   129d4:	e918                	sd	a4,16(a0)
   129d6:	60e2                	ld	ra,24(sp)
   129d8:	8526                	mv	a0,s1
   129da:	64a2                	ld	s1,8(sp)
   129dc:	ee98                	sd	a4,24(a3)
   129de:	6105                	addi	sp,sp,32
   129e0:	3230206f          	j	15502 <__malloc_unlock>
   129e4:	0e081c63          	bnez	a6,12adc <_free_r+0x242>
   129e8:	6e0c                	ld	a1,24(a2)
   129ea:	6a10                	ld	a2,16(a2)
   129ec:	97b6                	add	a5,a5,a3
   129ee:	6442                	ld	s0,16(sp)
   129f0:	ee0c                	sd	a1,24(a2)
   129f2:	e990                	sd	a2,16(a1)
   129f4:	0017e693          	ori	a3,a5,1
   129f8:	60e2                	ld	ra,24(sp)
   129fa:	e714                	sd	a3,8(a4)
   129fc:	8526                	mv	a0,s1
   129fe:	973e                	add	a4,a4,a5
   12a00:	64a2                	ld	s1,8(sp)
   12a02:	e31c                	sd	a5,0(a4)
   12a04:	6105                	addi	sp,sp,32
   12a06:	2fd0206f          	j	15502 <__malloc_unlock>
   12a0a:	8905                	andi	a0,a0,1
   12a0c:	97b6                	add	a5,a5,a3
   12a0e:	e909                	bnez	a0,12a20 <_free_r+0x186>
   12a10:	ff043503          	ld	a0,-16(s0)
   12a14:	8f09                	sub	a4,a4,a0
   12a16:	6f14                	ld	a3,24(a4)
   12a18:	6b10                	ld	a2,16(a4)
   12a1a:	97aa                	add	a5,a5,a0
   12a1c:	ee14                	sd	a3,24(a2)
   12a1e:	ea90                	sd	a2,16(a3)
   12a20:	0017e613          	ori	a2,a5,1
   12a24:	7681b683          	ld	a3,1896(gp) # 1ef58 <__malloc_trim_threshold>
   12a28:	e710                	sd	a2,8(a4)
   12a2a:	e998                	sd	a4,16(a1)
   12a2c:	f0d7eee3          	bltu	a5,a3,12948 <_free_r+0xae>
   12a30:	7881b583          	ld	a1,1928(gp) # 1ef78 <__malloc_top_pad>
   12a34:	8526                	mv	a0,s1
   12a36:	d95ff0ef          	jal	ra,127ca <_malloc_trim_r>
   12a3a:	b739                	j	12948 <_free_r+0xae>
   12a3c:	4651                	li	a2,20
   12a3e:	02d67263          	bgeu	a2,a3,12a62 <_free_r+0x1c8>
   12a42:	05400613          	li	a2,84
   12a46:	04d66a63          	bltu	a2,a3,12a9a <_free_r+0x200>
   12a4a:	00c7d693          	srli	a3,a5,0xc
   12a4e:	06f6851b          	addiw	a0,a3,111
   12a52:	0015151b          	slliw	a0,a0,0x1
   12a56:	06e6861b          	addiw	a2,a3,110
   12a5a:	050e                	slli	a0,a0,0x3
   12a5c:	bfa1                	j	129b4 <_free_r+0x11a>
   12a5e:	97b6                	add	a5,a5,a3
   12a60:	b719                	j	12966 <_free_r+0xcc>
   12a62:	05c6851b          	addiw	a0,a3,92
   12a66:	0015151b          	slliw	a0,a0,0x1
   12a6a:	05b6861b          	addiw	a2,a3,91
   12a6e:	050e                	slli	a0,a0,0x3
   12a70:	b791                	j	129b4 <_free_r+0x11a>
   12a72:	f598                	sd	a4,40(a1)
   12a74:	f198                	sd	a4,32(a1)
   12a76:	ef08                	sd	a0,24(a4)
   12a78:	eb08                	sd	a0,16(a4)
   12a7a:	01173423          	sd	a7,8(a4)
   12a7e:	00f83023          	sd	a5,0(a6)
   12a82:	b5d9                	j	12948 <_free_r+0xae>
   12a84:	0085b803          	ld	a6,8(a1)
   12a88:	4026561b          	sraiw	a2,a2,0x2
   12a8c:	4785                	li	a5,1
   12a8e:	00c79633          	sll	a2,a5,a2
   12a92:	01066633          	or	a2,a2,a6
   12a96:	e590                	sd	a2,8(a1)
   12a98:	bf1d                	j	129ce <_free_r+0x134>
   12a9a:	15400613          	li	a2,340
   12a9e:	00d66c63          	bltu	a2,a3,12ab6 <_free_r+0x21c>
   12aa2:	00f7d693          	srli	a3,a5,0xf
   12aa6:	0786851b          	addiw	a0,a3,120
   12aaa:	0015151b          	slliw	a0,a0,0x1
   12aae:	0776861b          	addiw	a2,a3,119
   12ab2:	050e                	slli	a0,a0,0x3
   12ab4:	b701                	j	129b4 <_free_r+0x11a>
   12ab6:	55400613          	li	a2,1364
   12aba:	00d66c63          	bltu	a2,a3,12ad2 <_free_r+0x238>
   12abe:	0127d693          	srli	a3,a5,0x12
   12ac2:	07d6851b          	addiw	a0,a3,125
   12ac6:	0015151b          	slliw	a0,a0,0x1
   12aca:	07c6861b          	addiw	a2,a3,124
   12ace:	050e                	slli	a0,a0,0x3
   12ad0:	b5d5                	j	129b4 <_free_r+0x11a>
   12ad2:	7f000513          	li	a0,2032
   12ad6:	07e00613          	li	a2,126
   12ada:	bde9                	j	129b4 <_free_r+0x11a>
   12adc:	0017e693          	ori	a3,a5,1
   12ae0:	e714                	sd	a3,8(a4)
   12ae2:	e21c                	sd	a5,0(a2)
   12ae4:	b595                	j	12948 <_free_r+0xae>

0000000000012ae6 <_fwalk>:
   12ae6:	715d                	addi	sp,sp,-80
   12ae8:	f84a                	sd	s2,48(sp)
   12aea:	f44e                	sd	s3,40(sp)
   12aec:	f052                	sd	s4,32(sp)
   12aee:	ec56                	sd	s5,24(sp)
   12af0:	e85a                	sd	s6,16(sp)
   12af2:	e45e                	sd	s7,8(sp)
   12af4:	e486                	sd	ra,72(sp)
   12af6:	e0a2                	sd	s0,64(sp)
   12af8:	fc26                	sd	s1,56(sp)
   12afa:	8a2e                	mv	s4,a1
   12afc:	52050913          	addi	s2,a0,1312
   12b00:	4b01                	li	s6,0
   12b02:	0b000a93          	li	s5,176
   12b06:	4b85                	li	s7,1
   12b08:	59fd                	li	s3,-1
   12b0a:	00892783          	lw	a5,8(s2)
   12b0e:	01093403          	ld	s0,16(s2)
   12b12:	02f05b63          	blez	a5,12b48 <_fwalk+0x62>
   12b16:	fff7849b          	addiw	s1,a5,-1
   12b1a:	1482                	slli	s1,s1,0x20
   12b1c:	9081                	srli	s1,s1,0x20
   12b1e:	0485                	addi	s1,s1,1
   12b20:	035484b3          	mul	s1,s1,s5
   12b24:	94a2                	add	s1,s1,s0
   12b26:	01045783          	lhu	a5,16(s0)
   12b2a:	00fbfb63          	bgeu	s7,a5,12b40 <_fwalk+0x5a>
   12b2e:	01241783          	lh	a5,18(s0)
   12b32:	8522                	mv	a0,s0
   12b34:	01378663          	beq	a5,s3,12b40 <_fwalk+0x5a>
   12b38:	9a02                	jalr	s4
   12b3a:	01656b33          	or	s6,a0,s6
   12b3e:	2b01                	sext.w	s6,s6
   12b40:	0b040413          	addi	s0,s0,176
   12b44:	fe8491e3          	bne	s1,s0,12b26 <_fwalk+0x40>
   12b48:	00093903          	ld	s2,0(s2)
   12b4c:	fa091fe3          	bnez	s2,12b0a <_fwalk+0x24>
   12b50:	60a6                	ld	ra,72(sp)
   12b52:	6406                	ld	s0,64(sp)
   12b54:	74e2                	ld	s1,56(sp)
   12b56:	7942                	ld	s2,48(sp)
   12b58:	79a2                	ld	s3,40(sp)
   12b5a:	7a02                	ld	s4,32(sp)
   12b5c:	6ae2                	ld	s5,24(sp)
   12b5e:	6ba2                	ld	s7,8(sp)
   12b60:	855a                	mv	a0,s6
   12b62:	6b42                	ld	s6,16(sp)
   12b64:	6161                	addi	sp,sp,80
   12b66:	8082                	ret

0000000000012b68 <_fwalk_reent>:
   12b68:	715d                	addi	sp,sp,-80
   12b6a:	f84a                	sd	s2,48(sp)
   12b6c:	f44e                	sd	s3,40(sp)
   12b6e:	f052                	sd	s4,32(sp)
   12b70:	ec56                	sd	s5,24(sp)
   12b72:	e85a                	sd	s6,16(sp)
   12b74:	e45e                	sd	s7,8(sp)
   12b76:	e062                	sd	s8,0(sp)
   12b78:	e486                	sd	ra,72(sp)
   12b7a:	e0a2                	sd	s0,64(sp)
   12b7c:	fc26                	sd	s1,56(sp)
   12b7e:	8c2a                	mv	s8,a0
   12b80:	8a2e                	mv	s4,a1
   12b82:	52050913          	addi	s2,a0,1312
   12b86:	4b01                	li	s6,0
   12b88:	0b000a93          	li	s5,176
   12b8c:	4b85                	li	s7,1
   12b8e:	59fd                	li	s3,-1
   12b90:	00892783          	lw	a5,8(s2)
   12b94:	01093403          	ld	s0,16(s2)
   12b98:	02f05c63          	blez	a5,12bd0 <_fwalk_reent+0x68>
   12b9c:	fff7849b          	addiw	s1,a5,-1
   12ba0:	1482                	slli	s1,s1,0x20
   12ba2:	9081                	srli	s1,s1,0x20
   12ba4:	0485                	addi	s1,s1,1
   12ba6:	035484b3          	mul	s1,s1,s5
   12baa:	94a2                	add	s1,s1,s0
   12bac:	01045783          	lhu	a5,16(s0)
   12bb0:	00fbfc63          	bgeu	s7,a5,12bc8 <_fwalk_reent+0x60>
   12bb4:	01241783          	lh	a5,18(s0)
   12bb8:	85a2                	mv	a1,s0
   12bba:	8562                	mv	a0,s8
   12bbc:	01378663          	beq	a5,s3,12bc8 <_fwalk_reent+0x60>
   12bc0:	9a02                	jalr	s4
   12bc2:	01656b33          	or	s6,a0,s6
   12bc6:	2b01                	sext.w	s6,s6
   12bc8:	0b040413          	addi	s0,s0,176
   12bcc:	fe8490e3          	bne	s1,s0,12bac <_fwalk_reent+0x44>
   12bd0:	00093903          	ld	s2,0(s2)
   12bd4:	fa091ee3          	bnez	s2,12b90 <_fwalk_reent+0x28>
   12bd8:	60a6                	ld	ra,72(sp)
   12bda:	6406                	ld	s0,64(sp)
   12bdc:	74e2                	ld	s1,56(sp)
   12bde:	7942                	ld	s2,48(sp)
   12be0:	79a2                	ld	s3,40(sp)
   12be2:	7a02                	ld	s4,32(sp)
   12be4:	6ae2                	ld	s5,24(sp)
   12be6:	6ba2                	ld	s7,8(sp)
   12be8:	6c02                	ld	s8,0(sp)
   12bea:	855a                	mv	a0,s6
   12bec:	6b42                	ld	s6,16(sp)
   12bee:	6161                	addi	sp,sp,80
   12bf0:	8082                	ret

0000000000012bf2 <eshdn1>:
   12bf2:	00450693          	addi	a3,a0,4
   12bf6:	4781                	li	a5,0
   12bf8:	0569                	addi	a0,a0,26
   12bfa:	7861                	lui	a6,0xffff8
   12bfc:	a811                	j	12c10 <eshdn1+0x1e>
   12bfe:	0017979b          	slliw	a5,a5,0x1
   12c02:	00e69023          	sh	a4,0(a3)
   12c06:	17c2                	slli	a5,a5,0x30
   12c08:	0689                	addi	a3,a3,2
   12c0a:	93c1                	srli	a5,a5,0x30
   12c0c:	02d50863          	beq	a0,a3,12c3c <eshdn1+0x4a>
   12c10:	0006d703          	lhu	a4,0(a3)
   12c14:	00177613          	andi	a2,a4,1
   12c18:	c219                	beqz	a2,12c1e <eshdn1+0x2c>
   12c1a:	0017e793          	ori	a5,a5,1
   12c1e:	8305                	srli	a4,a4,0x1
   12c20:	0027f613          	andi	a2,a5,2
   12c24:	010765b3          	or	a1,a4,a6
   12c28:	da79                	beqz	a2,12bfe <eshdn1+0xc>
   12c2a:	0017979b          	slliw	a5,a5,0x1
   12c2e:	00b69023          	sh	a1,0(a3)
   12c32:	17c2                	slli	a5,a5,0x30
   12c34:	0689                	addi	a3,a3,2
   12c36:	93c1                	srli	a5,a5,0x30
   12c38:	fcd51ce3          	bne	a0,a3,12c10 <eshdn1+0x1e>
   12c3c:	8082                	ret

0000000000012c3e <eshup1>:
   12c3e:	01850693          	addi	a3,a0,24
   12c42:	4701                	li	a4,0
   12c44:	0509                	addi	a0,a0,2
   12c46:	a811                	j	12c5a <eshup1+0x1c>
   12c48:	0017171b          	slliw	a4,a4,0x1
   12c4c:	00f69023          	sh	a5,0(a3)
   12c50:	1742                	slli	a4,a4,0x30
   12c52:	16f9                	addi	a3,a3,-2
   12c54:	9341                	srli	a4,a4,0x30
   12c56:	04d50063          	beq	a0,a3,12c96 <eshup1+0x58>
   12c5a:	0006d783          	lhu	a5,0(a3)
   12c5e:	0107961b          	slliw	a2,a5,0x10
   12c62:	4106561b          	sraiw	a2,a2,0x10
   12c66:	02061593          	slli	a1,a2,0x20
   12c6a:	0017979b          	slliw	a5,a5,0x1
   12c6e:	0005d463          	bgez	a1,12c76 <eshup1+0x38>
   12c72:	00176713          	ori	a4,a4,1
   12c76:	17c2                	slli	a5,a5,0x30
   12c78:	93c1                	srli	a5,a5,0x30
   12c7a:	00277613          	andi	a2,a4,2
   12c7e:	0017e593          	ori	a1,a5,1
   12c82:	d279                	beqz	a2,12c48 <eshup1+0xa>
   12c84:	0017171b          	slliw	a4,a4,0x1
   12c88:	00b69023          	sh	a1,0(a3)
   12c8c:	1742                	slli	a4,a4,0x30
   12c8e:	16f9                	addi	a3,a3,-2
   12c90:	9341                	srli	a4,a4,0x30
   12c92:	fcd514e3          	bne	a0,a3,12c5a <eshup1+0x1c>
   12c96:	8082                	ret

0000000000012c98 <m16m>:
   12c98:	1101                	addi	sp,sp,-32
   12c9a:	6e41                	lui	t3,0x10
   12c9c:	00011b23          	sh	zero,22(sp)
   12ca0:	00011c23          	sh	zero,24(sp)
   12ca4:	05e1                	addi	a1,a1,24
   12ca6:	083c                	addi	a5,sp,24
   12ca8:	00410813          	addi	a6,sp,4
   12cac:	1e7d                	addi	t3,t3,-1
   12cae:	0005d703          	lhu	a4,0(a1)
   12cb2:	17f9                	addi	a5,a5,-2
   12cb4:	15f9                	addi	a1,a1,-2
   12cb6:	e315                	bnez	a4,12cda <m16m+0x42>
   12cb8:	fe079f23          	sh	zero,-2(a5)
   12cbc:	ff0799e3          	bne	a5,a6,12cae <m16m+0x16>
   12cc0:	0611                	addi	a2,a2,4
   12cc2:	01a10693          	addi	a3,sp,26
   12cc6:	0007d703          	lhu	a4,0(a5)
   12cca:	0789                	addi	a5,a5,2
   12ccc:	0609                	addi	a2,a2,2
   12cce:	fee61f23          	sh	a4,-2(a2)
   12cd2:	fed79ae3          	bne	a5,a3,12cc6 <m16m+0x2e>
   12cd6:	6105                	addi	sp,sp,32
   12cd8:	8082                	ret
   12cda:	02a70733          	mul	a4,a4,a0
   12cde:	0027d883          	lhu	a7,2(a5)
   12ce2:	0007d303          	lhu	t1,0(a5)
   12ce6:	01c776b3          	and	a3,a4,t3
   12cea:	96c6                	add	a3,a3,a7
   12cec:	8341                	srli	a4,a4,0x10
   12cee:	0106d893          	srli	a7,a3,0x10
   12cf2:	971a                	add	a4,a4,t1
   12cf4:	9746                	add	a4,a4,a7
   12cf6:	01075893          	srli	a7,a4,0x10
   12cfa:	00d79123          	sh	a3,2(a5)
   12cfe:	00e79023          	sh	a4,0(a5)
   12d02:	ff179f23          	sh	a7,-2(a5)
   12d06:	fb0794e3          	bne	a5,a6,12cae <m16m+0x16>
   12d0a:	bf5d                	j	12cc0 <m16m+0x28>

0000000000012d0c <eisnan.part.0>:
   12d0c:	01250713          	addi	a4,a0,18
   12d10:	00055783          	lhu	a5,0(a0)
   12d14:	0509                	addi	a0,a0,2
   12d16:	e789                	bnez	a5,12d20 <eisnan.part.0+0x14>
   12d18:	fee51ce3          	bne	a0,a4,12d10 <eisnan.part.0+0x4>
   12d1c:	4501                	li	a0,0
   12d1e:	8082                	ret
   12d20:	4505                	li	a0,1
   12d22:	8082                	ret

0000000000012d24 <eneg>:
   12d24:	1101                	addi	sp,sp,-32
   12d26:	e426                	sd	s1,8(sp)
   12d28:	01255483          	lhu	s1,18(a0)
   12d2c:	e822                	sd	s0,16(sp)
   12d2e:	ec06                	sd	ra,24(sp)
   12d30:	fff4c793          	not	a5,s1
   12d34:	03179713          	slli	a4,a5,0x31
   12d38:	842a                	mv	s0,a0
   12d3a:	e701                	bnez	a4,12d42 <eneg+0x1e>
   12d3c:	fd1ff0ef          	jal	ra,12d0c <eisnan.part.0>
   12d40:	e509                	bnez	a0,12d4a <eneg+0x26>
   12d42:	77e1                	lui	a5,0xffff8
   12d44:	8cbd                	xor	s1,s1,a5
   12d46:	00941923          	sh	s1,18(s0)
   12d4a:	60e2                	ld	ra,24(sp)
   12d4c:	6442                	ld	s0,16(sp)
   12d4e:	64a2                	ld	s1,8(sp)
   12d50:	6105                	addi	sp,sp,32
   12d52:	8082                	ret

0000000000012d54 <eisneg>:
   12d54:	1141                	addi	sp,sp,-16
   12d56:	e022                	sd	s0,0(sp)
   12d58:	01255403          	lhu	s0,18(a0)
   12d5c:	e406                	sd	ra,8(sp)
   12d5e:	fff44793          	not	a5,s0
   12d62:	03179713          	slli	a4,a5,0x31
   12d66:	e711                	bnez	a4,12d72 <eisneg+0x1e>
   12d68:	fa5ff0ef          	jal	ra,12d0c <eisnan.part.0>
   12d6c:	87aa                	mv	a5,a0
   12d6e:	4501                	li	a0,0
   12d70:	e399                	bnez	a5,12d76 <eisneg+0x22>
   12d72:	00f45513          	srli	a0,s0,0xf
   12d76:	60a2                	ld	ra,8(sp)
   12d78:	6402                	ld	s0,0(sp)
   12d7a:	0141                	addi	sp,sp,16
   12d7c:	8082                	ret

0000000000012d7e <emovi>:
   12d7e:	01255783          	lhu	a5,18(a0)
   12d82:	7139                	addi	sp,sp,-64
   12d84:	f822                	sd	s0,48(sp)
   12d86:	00f7d79b          	srliw	a5,a5,0xf
   12d8a:	f426                	sd	s1,40(sp)
   12d8c:	fc06                	sd	ra,56(sp)
   12d8e:	f04a                	sd	s2,32(sp)
   12d90:	ec4e                	sd	s3,24(sp)
   12d92:	40f007bb          	negw	a5,a5
   12d96:	00f59023          	sh	a5,0(a1)
   12d9a:	01255783          	lhu	a5,18(a0)
   12d9e:	6721                	lui	a4,0x8
   12da0:	177d                	addi	a4,a4,-1
   12da2:	8ff9                	and	a5,a5,a4
   12da4:	00f59123          	sh	a5,2(a1)
   12da8:	84aa                	mv	s1,a0
   12daa:	01050413          	addi	s0,a0,16
   12dae:	02e78863          	beq	a5,a4,12dde <emovi+0x60>
   12db2:	00658793          	addi	a5,a1,6
   12db6:	00059223          	sh	zero,4(a1)
   12dba:	1579                	addi	a0,a0,-2
   12dbc:	00045703          	lhu	a4,0(s0)
   12dc0:	1479                	addi	s0,s0,-2
   12dc2:	0789                	addi	a5,a5,2
   12dc4:	fee79f23          	sh	a4,-2(a5) # ffffffffffff7ffe <__BSS_END__+0xfffffffffffd900e>
   12dc8:	fe851ae3          	bne	a0,s0,12dbc <emovi+0x3e>
   12dcc:	00059c23          	sh	zero,24(a1)
   12dd0:	70e2                	ld	ra,56(sp)
   12dd2:	7442                	ld	s0,48(sp)
   12dd4:	74a2                	ld	s1,40(sp)
   12dd6:	7902                	ld	s2,32(sp)
   12dd8:	69e2                	ld	s3,24(sp)
   12dda:	6121                	addi	sp,sp,64
   12ddc:	8082                	ret
   12dde:	0007869b          	sext.w	a3,a5
   12de2:	01255783          	lhu	a5,18(a0)
   12de6:	00458913          	addi	s2,a1,4
   12dea:	8ff5                	and	a5,a5,a3
   12dec:	02d79663          	bne	a5,a3,12e18 <emovi+0x9a>
   12df0:	e42e                	sd	a1,8(sp)
   12df2:	f1bff0ef          	jal	ra,12d0c <eisnan.part.0>
   12df6:	65a2                	ld	a1,8(sp)
   12df8:	c105                	beqz	a0,12e18 <emovi+0x9a>
   12dfa:	00658793          	addi	a5,a1,6
   12dfe:	00059223          	sh	zero,4(a1)
   12e02:	ffc48513          	addi	a0,s1,-4
   12e06:	00045703          	lhu	a4,0(s0)
   12e0a:	1479                	addi	s0,s0,-2
   12e0c:	0789                	addi	a5,a5,2
   12e0e:	fee79f23          	sh	a4,-2(a5)
   12e12:	fe851ae3          	bne	a0,s0,12e06 <emovi+0x88>
   12e16:	bf6d                	j	12dd0 <emovi+0x52>
   12e18:	01a58993          	addi	s3,a1,26
   12e1c:	0909                	addi	s2,s2,2
   12e1e:	fe091f23          	sh	zero,-2(s2)
   12e22:	ff299de3          	bne	s3,s2,12e1c <emovi+0x9e>
   12e26:	70e2                	ld	ra,56(sp)
   12e28:	7442                	ld	s0,48(sp)
   12e2a:	74a2                	ld	s1,40(sp)
   12e2c:	7902                	ld	s2,32(sp)
   12e2e:	69e2                	ld	s3,24(sp)
   12e30:	6121                	addi	sp,sp,64
   12e32:	8082                	ret

0000000000012e34 <ecmp>:
   12e34:	01255783          	lhu	a5,18(a0)
   12e38:	711d                	addi	sp,sp,-96
   12e3a:	e8a2                	sd	s0,80(sp)
   12e3c:	fff7c793          	not	a5,a5
   12e40:	e4a6                	sd	s1,72(sp)
   12e42:	ec86                	sd	ra,88(sp)
   12e44:	03179713          	slli	a4,a5,0x31
   12e48:	84aa                	mv	s1,a0
   12e4a:	842e                	mv	s0,a1
   12e4c:	e701                	bnez	a4,12e54 <ecmp+0x20>
   12e4e:	ebfff0ef          	jal	ra,12d0c <eisnan.part.0>
   12e52:	ed39                	bnez	a0,12eb0 <ecmp+0x7c>
   12e54:	01245783          	lhu	a5,18(s0)
   12e58:	fff7c793          	not	a5,a5
   12e5c:	03179713          	slli	a4,a5,0x31
   12e60:	c721                	beqz	a4,12ea8 <ecmp+0x74>
   12e62:	858a                	mv	a1,sp
   12e64:	8526                	mv	a0,s1
   12e66:	f19ff0ef          	jal	ra,12d7e <emovi>
   12e6a:	100c                	addi	a1,sp,32
   12e6c:	8522                	mv	a0,s0
   12e6e:	f11ff0ef          	jal	ra,12d7e <emovi>
   12e72:	00015583          	lhu	a1,0(sp)
   12e76:	02015783          	lhu	a5,32(sp)
   12e7a:	02b78d63          	beq	a5,a1,12eb4 <ecmp+0x80>
   12e7e:	00210793          	addi	a5,sp,2
   12e82:	02210713          	addi	a4,sp,34
   12e86:	0830                	addi	a2,sp,24
   12e88:	0007d683          	lhu	a3,0(a5)
   12e8c:	0789                	addi	a5,a5,2
   12e8e:	e2ad                	bnez	a3,12ef0 <ecmp+0xbc>
   12e90:	00075683          	lhu	a3,0(a4) # 8000 <register_fini-0x80e8>
   12e94:	0709                	addi	a4,a4,2
   12e96:	eea9                	bnez	a3,12ef0 <ecmp+0xbc>
   12e98:	fec798e3          	bne	a5,a2,12e88 <ecmp+0x54>
   12e9c:	4501                	li	a0,0
   12e9e:	60e6                	ld	ra,88(sp)
   12ea0:	6446                	ld	s0,80(sp)
   12ea2:	64a6                	ld	s1,72(sp)
   12ea4:	6125                	addi	sp,sp,96
   12ea6:	8082                	ret
   12ea8:	8522                	mv	a0,s0
   12eaa:	e63ff0ef          	jal	ra,12d0c <eisnan.part.0>
   12eae:	d955                	beqz	a0,12e62 <ecmp+0x2e>
   12eb0:	5579                	li	a0,-2
   12eb2:	b7f5                	j	12e9e <ecmp+0x6a>
   12eb4:	4505                	li	a0,1
   12eb6:	e1a9                	bnez	a1,12ef8 <ecmp+0xc4>
   12eb8:	00215603          	lhu	a2,2(sp)
   12ebc:	02215683          	lhu	a3,34(sp)
   12ec0:	00210713          	addi	a4,sp,2
   12ec4:	02210793          	addi	a5,sp,34
   12ec8:	182c                	addi	a1,sp,56
   12eca:	0789                	addi	a5,a5,2
   12ecc:	0709                	addi	a4,a4,2
   12ece:	00d61c63          	bne	a2,a3,12ee6 <ecmp+0xb2>
   12ed2:	fcb785e3          	beq	a5,a1,12e9c <ecmp+0x68>
   12ed6:	00075603          	lhu	a2,0(a4)
   12eda:	0007d683          	lhu	a3,0(a5)
   12ede:	0709                	addi	a4,a4,2
   12ee0:	0789                	addi	a5,a5,2
   12ee2:	fed608e3          	beq	a2,a3,12ed2 <ecmp+0x9e>
   12ee6:	fac6ece3          	bltu	a3,a2,12e9e <ecmp+0x6a>
   12eea:	40a0053b          	negw	a0,a0
   12eee:	bf45                	j	12e9e <ecmp+0x6a>
   12ef0:	4505                	li	a0,1
   12ef2:	d5d5                	beqz	a1,12e9e <ecmp+0x6a>
   12ef4:	557d                	li	a0,-1
   12ef6:	b765                	j	12e9e <ecmp+0x6a>
   12ef8:	557d                	li	a0,-1
   12efa:	bf7d                	j	12eb8 <ecmp+0x84>

0000000000012efc <eisinf.part.0>:
   12efc:	1141                	addi	sp,sp,-16
   12efe:	e406                	sd	ra,8(sp)
   12f00:	e0dff0ef          	jal	ra,12d0c <eisnan.part.0>
   12f04:	60a2                	ld	ra,8(sp)
   12f06:	00153513          	seqz	a0,a0
   12f0a:	0141                	addi	sp,sp,16
   12f0c:	8082                	ret

0000000000012f0e <eshift.part.0>:
   12f0e:	7179                	addi	sp,sp,-48
   12f10:	f022                	sd	s0,32(sp)
   12f12:	ec26                	sd	s1,24(sp)
   12f14:	f406                	sd	ra,40(sp)
   12f16:	e84a                	sd	s2,16(sp)
   12f18:	e44e                	sd	s3,8(sp)
   12f1a:	84ae                	mv	s1,a1
   12f1c:	842a                	mv	s0,a0
   12f1e:	0605cb63          	bltz	a1,12f94 <eshift.part.0+0x86>
   12f22:	47bd                	li	a5,15
   12f24:	862e                	mv	a2,a1
   12f26:	0511                	addi	a0,a0,4
   12f28:	01840693          	addi	a3,s0,24
   12f2c:	45bd                	li	a1,15
   12f2e:	0297d063          	bge	a5,s1,12f4e <eshift.part.0+0x40>
   12f32:	87aa                	mv	a5,a0
   12f34:	0027d703          	lhu	a4,2(a5)
   12f38:	0789                	addi	a5,a5,2
   12f3a:	fee79f23          	sh	a4,-2(a5)
   12f3e:	fed79be3          	bne	a5,a3,12f34 <eshift.part.0+0x26>
   12f42:	00041c23          	sh	zero,24(s0)
   12f46:	3641                	addiw	a2,a2,-16
   12f48:	fec5c5e3          	blt	a1,a2,12f32 <eshift.part.0+0x24>
   12f4c:	88bd                	andi	s1,s1,15
   12f4e:	479d                	li	a5,7
   12f50:	0297d463          	bge	a5,s1,12f78 <eshift.part.0+0x6a>
   12f54:	01840713          	addi	a4,s0,24
   12f58:	00240593          	addi	a1,s0,2
   12f5c:	4781                	li	a5,0
   12f5e:	00075683          	lhu	a3,0(a4)
   12f62:	1779                	addi	a4,a4,-2
   12f64:	00869613          	slli	a2,a3,0x8
   12f68:	8fd1                	or	a5,a5,a2
   12f6a:	00f71123          	sh	a5,2(a4)
   12f6e:	0086d793          	srli	a5,a3,0x8
   12f72:	feb716e3          	bne	a4,a1,12f5e <eshift.part.0+0x50>
   12f76:	34e1                	addiw	s1,s1,-8
   12f78:	c491                	beqz	s1,12f84 <eshift.part.0+0x76>
   12f7a:	34fd                	addiw	s1,s1,-1
   12f7c:	8522                	mv	a0,s0
   12f7e:	cc1ff0ef          	jal	ra,12c3e <eshup1>
   12f82:	fce5                	bnez	s1,12f7a <eshift.part.0+0x6c>
   12f84:	4501                	li	a0,0
   12f86:	70a2                	ld	ra,40(sp)
   12f88:	7402                	ld	s0,32(sp)
   12f8a:	64e2                	ld	s1,24(sp)
   12f8c:	6942                	ld	s2,16(sp)
   12f8e:	69a2                	ld	s3,8(sp)
   12f90:	6145                	addi	sp,sp,48
   12f92:	8082                	ret
   12f94:	57c5                	li	a5,-15
   12f96:	40b0093b          	negw	s2,a1
   12f9a:	0ef5d463          	bge	a1,a5,13082 <eshift.part.0+0x174>
   12f9e:	01850593          	addi	a1,a0,24
   12fa2:	4981                	li	s3,0
   12fa4:	00450693          	addi	a3,a0,4
   12fa8:	463d                	li	a2,15
   12faa:	01845703          	lhu	a4,24(s0)
   12fae:	87ae                	mv	a5,a1
   12fb0:	00e9e9b3          	or	s3,s3,a4
   12fb4:	ffe7d703          	lhu	a4,-2(a5)
   12fb8:	17f9                	addi	a5,a5,-2
   12fba:	00e79123          	sh	a4,2(a5)
   12fbe:	fed79be3          	bne	a5,a3,12fb4 <eshift.part.0+0xa6>
   12fc2:	00041223          	sh	zero,4(s0)
   12fc6:	3941                	addiw	s2,s2,-16
   12fc8:	ff2641e3          	blt	a2,s2,12faa <eshift.part.0+0x9c>
   12fcc:	57c1                	li	a5,-16
   12fce:	5745                	li	a4,-15
   12fd0:	9f85                	subw	a5,a5,s1
   12fd2:	4901                	li	s2,0
   12fd4:	08e4c063          	blt	s1,a4,13054 <eshift.part.0+0x146>
   12fd8:	00f9093b          	addw	s2,s2,a5
   12fdc:	479d                	li	a5,7
   12fde:	0327df63          	bge	a5,s2,1301c <eshift.part.0+0x10e>
   12fe2:	0109999b          	slliw	s3,s3,0x10
   12fe6:	4109d99b          	sraiw	s3,s3,0x10
   12fea:	01844783          	lbu	a5,24(s0)
   12fee:	01a40593          	addi	a1,s0,26
   12ff2:	00f9e9b3          	or	s3,s3,a5
   12ff6:	19c2                	slli	s3,s3,0x30
   12ff8:	0309d993          	srli	s3,s3,0x30
   12ffc:	4781                	li	a5,0
   12ffe:	0006d603          	lhu	a2,0(a3)
   13002:	0689                	addi	a3,a3,2
   13004:	0086571b          	srliw	a4,a2,0x8
   13008:	8f5d                	or	a4,a4,a5
   1300a:	0086179b          	slliw	a5,a2,0x8
   1300e:	17c2                	slli	a5,a5,0x30
   13010:	fee69f23          	sh	a4,-2(a3)
   13014:	93c1                	srli	a5,a5,0x30
   13016:	feb694e3          	bne	a3,a1,12ffe <eshift.part.0+0xf0>
   1301a:	3961                	addiw	s2,s2,-8
   1301c:	04090b63          	beqz	s2,13072 <eshift.part.0+0x164>
   13020:	01845783          	lhu	a5,24(s0)
   13024:	397d                	addiw	s2,s2,-1
   13026:	8522                	mv	a0,s0
   13028:	8b85                	andi	a5,a5,1
   1302a:	0137e9b3          	or	s3,a5,s3
   1302e:	bc5ff0ef          	jal	ra,12bf2 <eshdn1>
   13032:	fe0917e3          	bnez	s2,13020 <eshift.part.0+0x112>
   13036:	0109979b          	slliw	a5,s3,0x10
   1303a:	4107d79b          	sraiw	a5,a5,0x10
   1303e:	e78d                	bnez	a5,13068 <eshift.part.0+0x15a>
   13040:	03099513          	slli	a0,s3,0x30
   13044:	9141                	srli	a0,a0,0x30
   13046:	70a2                	ld	ra,40(sp)
   13048:	7402                	ld	s0,32(sp)
   1304a:	64e2                	ld	s1,24(sp)
   1304c:	6942                	ld	s2,16(sp)
   1304e:	69a2                	ld	s3,8(sp)
   13050:	6145                	addi	sp,sp,48
   13052:	8082                	ret
   13054:	ff07f913          	andi	s2,a5,-16
   13058:	4120093b          	negw	s2,s2
   1305c:	00f9093b          	addw	s2,s2,a5
   13060:	479d                	li	a5,7
   13062:	fb27dde3          	bge	a5,s2,1301c <eshift.part.0+0x10e>
   13066:	bfb5                	j	12fe2 <eshift.part.0+0xd4>
   13068:	4985                	li	s3,1
   1306a:	03099513          	slli	a0,s3,0x30
   1306e:	9141                	srli	a0,a0,0x30
   13070:	bfd9                	j	13046 <eshift.part.0+0x138>
   13072:	854e                	mv	a0,s3
   13074:	00099563          	bnez	s3,1307e <eshift.part.0+0x170>
   13078:	1542                	slli	a0,a0,0x30
   1307a:	9141                	srli	a0,a0,0x30
   1307c:	b729                	j	12f86 <eshift.part.0+0x78>
   1307e:	4505                	li	a0,1
   13080:	bfe5                	j	13078 <eshift.part.0+0x16a>
   13082:	57e5                	li	a5,-7
   13084:	4981                	li	s3,0
   13086:	f8f5dde3          	bge	a1,a5,13020 <eshift.part.0+0x112>
   1308a:	00440693          	addi	a3,s0,4
   1308e:	bfb1                	j	12fea <eshift.part.0+0xdc>

0000000000013090 <enormlz>:
   13090:	00455783          	lhu	a5,4(a0)
   13094:	1101                	addi	sp,sp,-32
   13096:	e426                	sd	s1,8(sp)
   13098:	ec06                	sd	ra,24(sp)
   1309a:	e822                	sd	s0,16(sp)
   1309c:	e04a                	sd	s2,0(sp)
   1309e:	84aa                	mv	s1,a0
   130a0:	ebc5                	bnez	a5,13150 <enormlz+0xc0>
   130a2:	00655703          	lhu	a4,6(a0)
   130a6:	4401                	li	s0,0
   130a8:	0107179b          	slliw	a5,a4,0x10
   130ac:	4107d79b          	sraiw	a5,a5,0x10
   130b0:	02079693          	slli	a3,a5,0x20
   130b4:	0806c763          	bltz	a3,13142 <enormlz+0xb2>
   130b8:	01a50693          	addi	a3,a0,26
   130bc:	0a000613          	li	a2,160
   130c0:	e31d                	bnez	a4,130e6 <enormlz+0x56>
   130c2:	00648793          	addi	a5,s1,6
   130c6:	a019                	j	130cc <enormlz+0x3c>
   130c8:	0007d703          	lhu	a4,0(a5)
   130cc:	0789                	addi	a5,a5,2
   130ce:	fee79e23          	sh	a4,-4(a5)
   130d2:	fef69be3          	bne	a3,a5,130c8 <enormlz+0x38>
   130d6:	00049c23          	sh	zero,24(s1)
   130da:	2441                	addiw	s0,s0,16
   130dc:	06c40363          	beq	s0,a2,13142 <enormlz+0xb2>
   130e0:	0064d703          	lhu	a4,6(s1)
   130e4:	df79                	beqz	a4,130c2 <enormlz+0x32>
   130e6:	f0077793          	andi	a5,a4,-256
   130ea:	eb8d                	bnez	a5,1311c <enormlz+0x8c>
   130ec:	01848513          	addi	a0,s1,24
   130f0:	00248593          	addi	a1,s1,2
   130f4:	4781                	li	a5,0
   130f6:	872a                	mv	a4,a0
   130f8:	00075683          	lhu	a3,0(a4)
   130fc:	1779                	addi	a4,a4,-2
   130fe:	00869613          	slli	a2,a3,0x8
   13102:	8fd1                	or	a5,a5,a2
   13104:	00f71123          	sh	a5,2(a4)
   13108:	0086d793          	srli	a5,a3,0x8
   1310c:	fee596e3          	bne	a1,a4,130f8 <enormlz+0x68>
   13110:	0064d703          	lhu	a4,6(s1)
   13114:	2421                	addiw	s0,s0,8
   13116:	f0077793          	andi	a5,a4,-256
   1311a:	dfe9                	beqz	a5,130f4 <enormlz+0x64>
   1311c:	0a000913          	li	s2,160
   13120:	a801                	j	13130 <enormlz+0xa0>
   13122:	2405                	addiw	s0,s0,1
   13124:	b1bff0ef          	jal	ra,12c3e <eshup1>
   13128:	00894d63          	blt	s2,s0,13142 <enormlz+0xb2>
   1312c:	0064d703          	lhu	a4,6(s1)
   13130:	0107171b          	slliw	a4,a4,0x10
   13134:	4107571b          	sraiw	a4,a4,0x10
   13138:	02071793          	slli	a5,a4,0x20
   1313c:	8526                	mv	a0,s1
   1313e:	fe07d2e3          	bgez	a5,13122 <enormlz+0x92>
   13142:	60e2                	ld	ra,24(sp)
   13144:	8522                	mv	a0,s0
   13146:	6442                	ld	s0,16(sp)
   13148:	64a2                	ld	s1,8(sp)
   1314a:	6902                	ld	s2,0(sp)
   1314c:	6105                	addi	sp,sp,32
   1314e:	8082                	ret
   13150:	f007f713          	andi	a4,a5,-256
   13154:	4401                	li	s0,0
   13156:	e705                	bnez	a4,1317e <enormlz+0xee>
   13158:	f6f00913          	li	s2,-145
   1315c:	a801                	j	1316c <enormlz+0xdc>
   1315e:	347d                	addiw	s0,s0,-1
   13160:	a93ff0ef          	jal	ra,12bf2 <eshdn1>
   13164:	fd240fe3          	beq	s0,s2,13142 <enormlz+0xb2>
   13168:	0044d783          	lhu	a5,4(s1)
   1316c:	8526                	mv	a0,s1
   1316e:	fbe5                	bnez	a5,1315e <enormlz+0xce>
   13170:	60e2                	ld	ra,24(sp)
   13172:	8522                	mv	a0,s0
   13174:	6442                	ld	s0,16(sp)
   13176:	64a2                	ld	s1,8(sp)
   13178:	6902                	ld	s2,0(sp)
   1317a:	6105                	addi	sp,sp,32
   1317c:	8082                	ret
   1317e:	00450693          	addi	a3,a0,4
   13182:	01a50593          	addi	a1,a0,26
   13186:	4701                	li	a4,0
   13188:	a019                	j	1318e <enormlz+0xfe>
   1318a:	0006d783          	lhu	a5,0(a3)
   1318e:	0087d61b          	srliw	a2,a5,0x8
   13192:	8f51                	or	a4,a4,a2
   13194:	0087979b          	slliw	a5,a5,0x8
   13198:	00e69023          	sh	a4,0(a3)
   1319c:	03079713          	slli	a4,a5,0x30
   131a0:	0689                	addi	a3,a3,2
   131a2:	9341                	srli	a4,a4,0x30
   131a4:	feb693e3          	bne	a3,a1,1318a <enormlz+0xfa>
   131a8:	0044d783          	lhu	a5,4(s1)
   131ac:	5461                	li	s0,-8
   131ae:	b76d                	j	13158 <enormlz+0xc8>

00000000000131b0 <emdnorm>:
   131b0:	7139                	addi	sp,sp,-64
   131b2:	f822                	sd	s0,48(sp)
   131b4:	f426                	sd	s1,40(sp)
   131b6:	f04a                	sd	s2,32(sp)
   131b8:	ec4e                	sd	s3,24(sp)
   131ba:	e852                	sd	s4,16(sp)
   131bc:	e456                	sd	s5,8(sp)
   131be:	8936                	mv	s2,a3
   131c0:	84be                	mv	s1,a5
   131c2:	fc06                	sd	ra,56(sp)
   131c4:	842a                	mv	s0,a0
   131c6:	89ae                	mv	s3,a1
   131c8:	8a32                	mv	s4,a2
   131ca:	8aba                	mv	s5,a4
   131cc:	ec5ff0ef          	jal	ra,13090 <enormlz>
   131d0:	09000793          	li	a5,144
   131d4:	40a90933          	sub	s2,s2,a0
   131d8:	12a7db63          	bge	a5,a0,1330e <emdnorm+0x15e>
   131dc:	67a1                	lui	a5,0x8
   131de:	17f9                	addi	a5,a5,-2
   131e0:	1927dd63          	bge	a5,s2,1337a <emdnorm+0x1ca>
   131e4:	160a8b63          	beqz	s5,1335a <emdnorm+0x1aa>
   131e8:	40c8                	lw	a0,4(s1)
   131ea:	409c                	lw	a5,0(s1)
   131ec:	04a78e63          	beq	a5,a0,13248 <emdnorm+0x98>
   131f0:	01a48713          	addi	a4,s1,26
   131f4:	03448793          	addi	a5,s1,52
   131f8:	0709                	addi	a4,a4,2
   131fa:	fe071f23          	sh	zero,-2(a4)
   131fe:	fef71de3          	bne	a4,a5,131f8 <emdnorm+0x48>
   13202:	03800793          	li	a5,56
   13206:	28f50263          	beq	a0,a5,1348a <emdnorm+0x2da>
   1320a:	12a7d163          	bge	a5,a0,1332c <emdnorm+0x17c>
   1320e:	04000793          	li	a5,64
   13212:	24f50c63          	beq	a0,a5,1346a <emdnorm+0x2ba>
   13216:	07100793          	li	a5,113
   1321a:	28f51163          	bne	a0,a5,1349c <emdnorm+0x2ec>
   1321e:	47a9                	li	a5,10
   13220:	40008737          	lui	a4,0x40008
   13224:	177d                	addi	a4,a4,-1
   13226:	1782                	slli	a5,a5,0x20
   13228:	07a9                	addi	a5,a5,10
   1322a:	c8d8                	sw	a4,20(s1)
   1322c:	7761                	lui	a4,0xffff8
   1322e:	00e49c23          	sh	a4,24(s1)
   13232:	e49c                	sd	a5,8(s1)
   13234:	6721                	lui	a4,0x8
   13236:	47a9                	li	a5,10
   13238:	07a1                	addi	a5,a5,8
   1323a:	0786                	slli	a5,a5,0x1
   1323c:	97a6                	add	a5,a5,s1
   1323e:	00e79523          	sh	a4,10(a5) # 800a <register_fini-0x80de>
   13242:	c088                	sw	a0,0(s1)
   13244:	17205163          	blez	s2,133a6 <emdnorm+0x1f6>
   13248:	4494                	lw	a3,8(s1)
   1324a:	0144d603          	lhu	a2,20(s1)
   1324e:	08f00793          	li	a5,143
   13252:	00169713          	slli	a4,a3,0x1
   13256:	00e40833          	add	a6,s0,a4
   1325a:	00085883          	lhu	a7,0(a6) # ffffffffffff8000 <__BSS_END__+0xfffffffffffd9010>
   1325e:	00c8f5b3          	and	a1,a7,a2
   13262:	02a7ce63          	blt	a5,a0,1329e <emdnorm+0xee>
   13266:	47ad                	li	a5,11
   13268:	02d7cb63          	blt	a5,a3,1329e <emdnorm+0xee>
   1326c:	9f95                	subw	a5,a5,a3
   1326e:	1782                	slli	a5,a5,0x20
   13270:	9381                	srli	a5,a5,0x20
   13272:	97b6                	add	a5,a5,a3
   13274:	00179693          	slli	a3,a5,0x1
   13278:	0709                	addi	a4,a4,2
   1327a:	00440793          	addi	a5,s0,4
   1327e:	9722                	add	a4,a4,s0
   13280:	97b6                	add	a5,a5,a3
   13282:	00075683          	lhu	a3,0(a4) # 8000 <register_fini-0x80e8>
   13286:	c299                	beqz	a3,1328c <emdnorm+0xdc>
   13288:	0015e593          	ori	a1,a1,1
   1328c:	00071023          	sh	zero,0(a4)
   13290:	0709                	addi	a4,a4,2
   13292:	fee798e3          	bne	a5,a4,13282 <emdnorm+0xd2>
   13296:	00085883          	lhu	a7,0(a6)
   1329a:	0144d603          	lhu	a2,20(s1)
   1329e:	fff64613          	not	a2,a2
   132a2:	01167633          	and	a2,a2,a7
   132a6:	00c81023          	sh	a2,0(a6)
   132aa:	0164d783          	lhu	a5,22(s1)
   132ae:	00b7f733          	and	a4,a5,a1
   132b2:	cb05                	beqz	a4,132e2 <emdnorm+0x132>
   132b4:	12b78f63          	beq	a5,a1,133f2 <emdnorm+0x242>
   132b8:	03248613          	addi	a2,s1,50
   132bc:	01840693          	addi	a3,s0,24
   132c0:	04f1                	addi	s1,s1,28
   132c2:	4701                	li	a4,0
   132c4:	00065783          	lhu	a5,0(a2)
   132c8:	0006d583          	lhu	a1,0(a3)
   132cc:	16f9                	addi	a3,a3,-2
   132ce:	1679                	addi	a2,a2,-2
   132d0:	97ae                	add	a5,a5,a1
   132d2:	97ba                	add	a5,a5,a4
   132d4:	0107d713          	srli	a4,a5,0x10
   132d8:	00f69123          	sh	a5,2(a3)
   132dc:	8b05                	andi	a4,a4,1
   132de:	fe9613e3          	bne	a2,s1,132c4 <emdnorm+0x114>
   132e2:	13205663          	blez	s2,1340e <emdnorm+0x25e>
   132e6:	00445783          	lhu	a5,4(s0)
   132ea:	e7ed                	bnez	a5,133d4 <emdnorm+0x224>
   132ec:	67a1                	lui	a5,0x8
   132ee:	00041c23          	sh	zero,24(s0)
   132f2:	17f9                	addi	a5,a5,-2
   132f4:	0727c563          	blt	a5,s2,1335e <emdnorm+0x1ae>
   132f8:	01241123          	sh	s2,2(s0)
   132fc:	70e2                	ld	ra,56(sp)
   132fe:	7442                	ld	s0,48(sp)
   13300:	74a2                	ld	s1,40(sp)
   13302:	7902                	ld	s2,32(sp)
   13304:	69e2                	ld	s3,24(sp)
   13306:	6a42                	ld	s4,16(sp)
   13308:	6aa2                	ld	s5,8(sp)
   1330a:	6121                	addi	sp,sp,64
   1330c:	8082                	ret
   1330e:	0a095a63          	bgez	s2,133c2 <emdnorm+0x212>
   13312:	f7000793          	li	a5,-144
   13316:	06f95b63          	bge	s2,a5,1338c <emdnorm+0x1dc>
   1331a:	00240793          	addi	a5,s0,2
   1331e:	0469                	addi	s0,s0,26
   13320:	0789                	addi	a5,a5,2
   13322:	fe079f23          	sh	zero,-2(a5) # 7ffe <register_fini-0x80ea>
   13326:	fe879de3          	bne	a5,s0,13320 <emdnorm+0x170>
   1332a:	bfc9                	j	132fc <emdnorm+0x14c>
   1332c:	47e1                	li	a5,24
   1332e:	10f50f63          	beq	a0,a5,1344c <emdnorm+0x29c>
   13332:	03500793          	li	a5,53
   13336:	16f51363          	bne	a0,a5,1349c <emdnorm+0x2ec>
   1333a:	040006b7          	lui	a3,0x4000
   1333e:	6705                	lui	a4,0x1
   13340:	7ff68693          	addi	a3,a3,2047 # 40007ff <__BSS_END__+0x3fe180f>
   13344:	4799                	li	a5,6
   13346:	80070713          	addi	a4,a4,-2048 # 800 <register_fini-0xf8e8>
   1334a:	c8d4                	sw	a3,20(s1)
   1334c:	1782                	slli	a5,a5,0x20
   1334e:	0799                	addi	a5,a5,6
   13350:	e49c                	sd	a5,8(s1)
   13352:	00e49c23          	sh	a4,24(s1)
   13356:	4799                	li	a5,6
   13358:	b5c5                	j	13238 <emdnorm+0x88>
   1335a:	00041c23          	sh	zero,24(s0)
   1335e:	77e1                	lui	a5,0xffff8
   13360:	fff7c793          	not	a5,a5
   13364:	00f41123          	sh	a5,2(s0)
   13368:	00440793          	addi	a5,s0,4
   1336c:	0461                	addi	s0,s0,24
   1336e:	00079023          	sh	zero,0(a5) # ffffffffffff8000 <__BSS_END__+0xfffffffffffd9010>
   13372:	0789                	addi	a5,a5,2
   13374:	fef41de3          	bne	s0,a5,1336e <emdnorm+0x1be>
   13378:	b751                	j	132fc <emdnorm+0x14c>
   1337a:	00240793          	addi	a5,s0,2
   1337e:	0469                	addi	s0,s0,26
   13380:	0789                	addi	a5,a5,2
   13382:	fe079f23          	sh	zero,-2(a5)
   13386:	fe879de3          	bne	a5,s0,13380 <emdnorm+0x1d0>
   1338a:	bf8d                	j	132fc <emdnorm+0x14c>
   1338c:	0009059b          	sext.w	a1,s2
   13390:	8522                	mv	a0,s0
   13392:	b7dff0ef          	jal	ra,12f0e <eshift.part.0>
   13396:	c111                	beqz	a0,1339a <emdnorm+0x1ea>
   13398:	4985                	li	s3,1
   1339a:	0a0a8463          	beqz	s5,13442 <emdnorm+0x292>
   1339e:	40c8                	lw	a0,4(s1)
   133a0:	409c                	lw	a5,0(s1)
   133a2:	e4a797e3          	bne	a5,a0,131f0 <emdnorm+0x40>
   133a6:	09000793          	li	a5,144
   133aa:	08f50163          	beq	a0,a5,1342c <emdnorm+0x27c>
   133ae:	01845783          	lhu	a5,24(s0)
   133b2:	8522                	mv	a0,s0
   133b4:	8b85                	andi	a5,a5,1
   133b6:	0137e9b3          	or	s3,a5,s3
   133ba:	839ff0ef          	jal	ra,12bf2 <eshdn1>
   133be:	40c8                	lw	a0,4(s1)
   133c0:	b561                	j	13248 <emdnorm+0x98>
   133c2:	f20a85e3          	beqz	s5,132ec <emdnorm+0x13c>
   133c6:	40c8                	lw	a0,4(s1)
   133c8:	409c                	lw	a5,0(s1)
   133ca:	e2a793e3          	bne	a5,a0,131f0 <emdnorm+0x40>
   133ce:	e7204de3          	bgtz	s2,13248 <emdnorm+0x98>
   133d2:	bfd1                	j	133a6 <emdnorm+0x1f6>
   133d4:	8522                	mv	a0,s0
   133d6:	81dff0ef          	jal	ra,12bf2 <eshdn1>
   133da:	67a1                	lui	a5,0x8
   133dc:	0905                	addi	s2,s2,1
   133de:	00041c23          	sh	zero,24(s0)
   133e2:	17f9                	addi	a5,a5,-2
   133e4:	f727cde3          	blt	a5,s2,1335e <emdnorm+0x1ae>
   133e8:	f00958e3          	bgez	s2,132f8 <emdnorm+0x148>
   133ec:	00041123          	sh	zero,2(s0)
   133f0:	b731                	j	132fc <emdnorm+0x14c>
   133f2:	08099963          	bnez	s3,13484 <emdnorm+0x2d4>
   133f6:	44dc                	lw	a5,12(s1)
   133f8:	0184d703          	lhu	a4,24(s1)
   133fc:	0786                	slli	a5,a5,0x1
   133fe:	97a2                	add	a5,a5,s0
   13400:	0007d783          	lhu	a5,0(a5) # 8000 <register_fini-0x80e8>
   13404:	8ff9                	and	a5,a5,a4
   13406:	ea0799e3          	bnez	a5,132b8 <emdnorm+0x108>
   1340a:	ed204ee3          	bgtz	s2,132e6 <emdnorm+0x136>
   1340e:	09000793          	li	a5,144
   13412:	00f50563          	beq	a0,a5,1341c <emdnorm+0x26c>
   13416:	8522                	mv	a0,s0
   13418:	827ff0ef          	jal	ra,12c3e <eshup1>
   1341c:	00445783          	lhu	a5,4(s0)
   13420:	fbd5                	bnez	a5,133d4 <emdnorm+0x224>
   13422:	00041c23          	sh	zero,24(s0)
   13426:	fc0943e3          	bltz	s2,133ec <emdnorm+0x23c>
   1342a:	b5f9                	j	132f8 <emdnorm+0x148>
   1342c:	0084a803          	lw	a6,8(s1)
   13430:	0144d603          	lhu	a2,20(s1)
   13434:	0806                	slli	a6,a6,0x1
   13436:	9822                	add	a6,a6,s0
   13438:	00085883          	lhu	a7,0(a6)
   1343c:	011675b3          	and	a1,a2,a7
   13440:	bdb9                	j	1329e <emdnorm+0xee>
   13442:	00041c23          	sh	zero,24(s0)
   13446:	00041123          	sh	zero,2(s0)
   1344a:	bd4d                	j	132fc <emdnorm+0x14c>
   1344c:	4791                	li	a5,4
   1344e:	00800737          	lui	a4,0x800
   13452:	0ff70713          	addi	a4,a4,255 # 8000ff <__BSS_END__+0x7e110f>
   13456:	1782                	slli	a5,a5,0x20
   13458:	0791                	addi	a5,a5,4
   1345a:	c8d8                	sw	a4,20(s1)
   1345c:	10000713          	li	a4,256
   13460:	e49c                	sd	a5,8(s1)
   13462:	00e49c23          	sh	a4,24(s1)
   13466:	4791                	li	a5,4
   13468:	bbc1                	j	13238 <emdnorm+0x88>
   1346a:	478d                	li	a5,3
   1346c:	80010737          	lui	a4,0x80010
   13470:	177d                	addi	a4,a4,-1
   13472:	1786                	slli	a5,a5,0x21
   13474:	079d                	addi	a5,a5,7
   13476:	c8d8                	sw	a4,20(s1)
   13478:	4705                	li	a4,1
   1347a:	e49c                	sd	a5,8(s1)
   1347c:	00e49c23          	sh	a4,24(s1)
   13480:	4799                	li	a5,6
   13482:	bb5d                	j	13238 <emdnorm+0x88>
   13484:	e20a0ae3          	beqz	s4,132b8 <emdnorm+0x108>
   13488:	bda9                	j	132e2 <emdnorm+0x132>
   1348a:	00800737          	lui	a4,0x800
   1348e:	0ff70713          	addi	a4,a4,255 # 8000ff <__BSS_END__+0x7e110f>
   13492:	c8d8                	sw	a4,20(s1)
   13494:	4799                	li	a5,6
   13496:	10000713          	li	a4,256
   1349a:	bd4d                	j	1334c <emdnorm+0x19c>
   1349c:	47ad                	li	a5,11
   1349e:	80010737          	lui	a4,0x80010
   134a2:	177d                	addi	a4,a4,-1
   134a4:	1782                	slli	a5,a5,0x20
   134a6:	07b1                	addi	a5,a5,12
   134a8:	c8d8                	sw	a4,20(s1)
   134aa:	4705                	li	a4,1
   134ac:	e49c                	sd	a5,8(s1)
   134ae:	00e49c23          	sh	a4,24(s1)
   134b2:	47ad                	li	a5,11
   134b4:	b351                	j	13238 <emdnorm+0x88>

00000000000134b6 <eiremain>:
   134b6:	711d                	addi	sp,sp,-96
   134b8:	e4a6                	sd	s1,72(sp)
   134ba:	fc4e                	sd	s3,56(sp)
   134bc:	84ae                	mv	s1,a1
   134be:	00255983          	lhu	s3,2(a0)
   134c2:	ec86                	sd	ra,88(sp)
   134c4:	e8a2                	sd	s0,80(sp)
   134c6:	e0ca                	sd	s2,64(sp)
   134c8:	f852                	sd	s4,48(sp)
   134ca:	8932                	mv	s2,a2
   134cc:	f456                	sd	s5,40(sp)
   134ce:	f05a                	sd	s6,32(sp)
   134d0:	ec5e                	sd	s7,24(sp)
   134d2:	e862                	sd	s8,16(sp)
   134d4:	e466                	sd	s9,8(sp)
   134d6:	e06a                	sd	s10,0(sp)
   134d8:	8a2a                	mv	s4,a0
   134da:	bb7ff0ef          	jal	ra,13090 <enormlz>
   134de:	0024d403          	lhu	s0,2(s1)
   134e2:	87aa                	mv	a5,a0
   134e4:	8526                	mv	a0,s1
   134e6:	40f989b3          	sub	s3,s3,a5
   134ea:	03490a93          	addi	s5,s2,52
   134ee:	ba3ff0ef          	jal	ra,13090 <enormlz>
   134f2:	8c09                	sub	s0,s0,a0
   134f4:	04e90713          	addi	a4,s2,78
   134f8:	87d6                	mv	a5,s5
   134fa:	0789                	addi	a5,a5,2
   134fc:	fe079f23          	sh	zero,-2(a5)
   13500:	fee79de3          	bne	a5,a4,134fa <eiremain+0x44>
   13504:	07344b63          	blt	s0,s3,1357a <eiremain+0xc4>
   13508:	004a0b93          	addi	s7,s4,4
   1350c:	00448b13          	addi	s6,s1,4
   13510:	19fd                	addi	s3,s3,-1
   13512:	01aa0c93          	addi	s9,s4,26
   13516:	00248c13          	addi	s8,s1,2
   1351a:	875a                	mv	a4,s6
   1351c:	87de                	mv	a5,s7
   1351e:	0007d603          	lhu	a2,0(a5)
   13522:	00075683          	lhu	a3,0(a4) # ffffffff80010000 <__BSS_END__+0xffffffff7fff1010>
   13526:	0789                	addi	a5,a5,2
   13528:	0709                	addi	a4,a4,2
   1352a:	06d61c63          	bne	a2,a3,135a2 <eiremain+0xec>
   1352e:	fefc98e3          	bne	s9,a5,1351e <eiremain+0x68>
   13532:	018a0613          	addi	a2,s4,24
   13536:	01848713          	addi	a4,s1,24
   1353a:	4681                	li	a3,0
   1353c:	00075783          	lhu	a5,0(a4)
   13540:	00065583          	lhu	a1,0(a2)
   13544:	1779                	addi	a4,a4,-2
   13546:	8f95                	sub	a5,a5,a3
   13548:	8f8d                	sub	a5,a5,a1
   1354a:	0107d693          	srli	a3,a5,0x10
   1354e:	00f71123          	sh	a5,2(a4)
   13552:	8a85                	andi	a3,a3,1
   13554:	1679                	addi	a2,a2,-2
   13556:	feec13e3          	bne	s8,a4,1353c <eiremain+0x86>
   1355a:	4d05                	li	s10,1
   1355c:	8556                	mv	a0,s5
   1355e:	ee0ff0ef          	jal	ra,12c3e <eshup1>
   13562:	04c95783          	lhu	a5,76(s2)
   13566:	147d                	addi	s0,s0,-1
   13568:	8526                	mv	a0,s1
   1356a:	00fd6d33          	or	s10,s10,a5
   1356e:	05a91623          	sh	s10,76(s2)
   13572:	eccff0ef          	jal	ra,12c3e <eshup1>
   13576:	fb3412e3          	bne	s0,s3,1351a <eiremain+0x64>
   1357a:	86a2                	mv	a3,s0
   1357c:	6446                	ld	s0,80(sp)
   1357e:	60e6                	ld	ra,88(sp)
   13580:	79e2                	ld	s3,56(sp)
   13582:	7a42                	ld	s4,48(sp)
   13584:	7aa2                	ld	s5,40(sp)
   13586:	7b02                	ld	s6,32(sp)
   13588:	6be2                	ld	s7,24(sp)
   1358a:	6c42                	ld	s8,16(sp)
   1358c:	6ca2                	ld	s9,8(sp)
   1358e:	6d02                	ld	s10,0(sp)
   13590:	87ca                	mv	a5,s2
   13592:	8526                	mv	a0,s1
   13594:	6906                	ld	s2,64(sp)
   13596:	64a6                	ld	s1,72(sp)
   13598:	4701                	li	a4,0
   1359a:	4601                	li	a2,0
   1359c:	4581                	li	a1,0
   1359e:	6125                	addi	sp,sp,96
   135a0:	b901                	j	131b0 <emdnorm>
   135a2:	4d01                	li	s10,0
   135a4:	fac6ece3          	bltu	a3,a2,1355c <eiremain+0xa6>
   135a8:	b769                	j	13532 <eiremain+0x7c>

00000000000135aa <emovo.isra.0>:
   135aa:	00055703          	lhu	a4,0(a0)
   135ae:	00255783          	lhu	a5,2(a0)
   135b2:	c319                	beqz	a4,135b8 <emovo.isra.0+0xe>
   135b4:	6721                	lui	a4,0x8
   135b6:	8fd9                	or	a5,a5,a4
   135b8:	00f59923          	sh	a5,18(a1)
   135bc:	00255703          	lhu	a4,2(a0)
   135c0:	67a1                	lui	a5,0x8
   135c2:	17fd                	addi	a5,a5,-1
   135c4:	00f70f63          	beq	a4,a5,135e2 <emovo.isra.0+0x38>
   135c8:	00650793          	addi	a5,a0,6
   135cc:	05c1                	addi	a1,a1,16
   135ce:	0561                	addi	a0,a0,24
   135d0:	0007d703          	lhu	a4,0(a5) # 8000 <register_fini-0x80e8>
   135d4:	0789                	addi	a5,a5,2
   135d6:	15f9                	addi	a1,a1,-2
   135d8:	00e59123          	sh	a4,2(a1)
   135dc:	fea79ae3          	bne	a5,a0,135d0 <emovo.isra.0+0x26>
   135e0:	8082                	ret
   135e2:	00650793          	addi	a5,a0,6
   135e6:	0569                	addi	a0,a0,26
   135e8:	0007d703          	lhu	a4,0(a5)
   135ec:	0789                	addi	a5,a5,2
   135ee:	e31d                	bnez	a4,13614 <emovo.isra.0+0x6a>
   135f0:	fea79ce3          	bne	a5,a0,135e8 <emovo.isra.0+0x3e>
   135f4:	01258713          	addi	a4,a1,18
   135f8:	87ae                	mv	a5,a1
   135fa:	0789                	addi	a5,a5,2
   135fc:	fe079f23          	sh	zero,-2(a5)
   13600:	fef71de3          	bne	a4,a5,135fa <emovo.isra.0+0x50>
   13604:	0125d783          	lhu	a5,18(a1)
   13608:	6721                	lui	a4,0x8
   1360a:	177d                	addi	a4,a4,-1
   1360c:	8fd9                	or	a5,a5,a4
   1360e:	00f59923          	sh	a5,18(a1)
   13612:	8082                	ret
   13614:	01058713          	addi	a4,a1,16
   13618:	87ae                	mv	a5,a1
   1361a:	0789                	addi	a5,a5,2
   1361c:	fe079f23          	sh	zero,-2(a5)
   13620:	fef71de3          	bne	a4,a5,1361a <emovo.isra.0+0x70>
   13624:	7fffc7b7          	lui	a5,0x7fffc
   13628:	c99c                	sw	a5,16(a1)
   1362a:	8082                	ret

000000000001362c <emul>:
   1362c:	7131                	addi	sp,sp,-192
   1362e:	e15a                	sd	s6,128(sp)
   13630:	01255b03          	lhu	s6,18(a0)
   13634:	67a1                	lui	a5,0x8
   13636:	17fd                	addi	a5,a5,-1
   13638:	e952                	sd	s4,144(sp)
   1363a:	0167fa33          	and	s4,a5,s6
   1363e:	1a42                	slli	s4,s4,0x30
   13640:	f922                	sd	s0,176(sp)
   13642:	f526                	sd	s1,168(sp)
   13644:	f14a                	sd	s2,160(sp)
   13646:	ed4e                	sd	s3,152(sp)
   13648:	fd06                	sd	ra,184(sp)
   1364a:	e556                	sd	s5,136(sp)
   1364c:	fcde                	sd	s7,120(sp)
   1364e:	f8e2                	sd	s8,112(sp)
   13650:	f4e6                	sd	s9,104(sp)
   13652:	030a5a13          	srli	s4,s4,0x30
   13656:	84aa                	mv	s1,a0
   13658:	892e                	mv	s2,a1
   1365a:	8432                	mv	s0,a2
   1365c:	89b6                	mv	s3,a3
   1365e:	0cfa1163          	bne	s4,a5,13720 <emul+0xf4>
   13662:	eaaff0ef          	jal	ra,12d0c <eisnan.part.0>
   13666:	1e051963          	bnez	a0,13858 <emul+0x22c>
   1366a:	01295a83          	lhu	s5,18(s2)
   1366e:	015a77b3          	and	a5,s4,s5
   13672:	1f478e63          	beq	a5,s4,1386e <emul+0x242>
   13676:	8526                	mv	a0,s1
   13678:	885ff0ef          	jal	ra,12efc <eisinf.part.0>
   1367c:	22050d63          	beqz	a0,138b6 <emul+0x28a>
   13680:	65f1                	lui	a1,0x1c
   13682:	34858593          	addi	a1,a1,840 # 1c348 <ezero>
   13686:	854a                	mv	a0,s2
   13688:	facff0ef          	jal	ra,12e34 <ecmp>
   1368c:	28050a63          	beqz	a0,13920 <emul+0x2f4>
   13690:	01295a83          	lhu	s5,18(s2)
   13694:	67a1                	lui	a5,0x8
   13696:	17fd                	addi	a5,a5,-1
   13698:	0157fab3          	and	s5,a5,s5
   1369c:	1ac2                	slli	s5,s5,0x30
   1369e:	030ada93          	srli	s5,s5,0x30
   136a2:	20fa9863          	bne	s5,a5,138b2 <emul+0x286>
   136a6:	854a                	mv	a0,s2
   136a8:	855ff0ef          	jal	ra,12efc <eisinf.part.0>
   136ac:	24051c63          	bnez	a0,13904 <emul+0x2d8>
   136b0:	0124d783          	lhu	a5,18(s1)
   136b4:	00faf7b3          	and	a5,s5,a5
   136b8:	07579c63          	bne	a5,s5,13730 <emul+0x104>
   136bc:	8526                	mv	a0,s1
   136be:	83fff0ef          	jal	ra,12efc <eisinf.part.0>
   136c2:	e509                	bnez	a0,136cc <emul+0xa0>
   136c4:	854a                	mv	a0,s2
   136c6:	837ff0ef          	jal	ra,12efc <eisinf.part.0>
   136ca:	c13d                	beqz	a0,13730 <emul+0x104>
   136cc:	8526                	mv	a0,s1
   136ce:	e86ff0ef          	jal	ra,12d54 <eisneg>
   136d2:	84aa                	mv	s1,a0
   136d4:	854a                	mv	a0,s2
   136d6:	e7eff0ef          	jal	ra,12d54 <eisneg>
   136da:	40a48533          	sub	a0,s1,a0
   136de:	00a03533          	snez	a0,a0
   136e2:	053e                	slli	a0,a0,0xf
   136e4:	00a41923          	sh	a0,18(s0)
   136e8:	01240713          	addi	a4,s0,18
   136ec:	87a2                	mv	a5,s0
   136ee:	0789                	addi	a5,a5,2
   136f0:	fe079f23          	sh	zero,-2(a5) # 7ffe <register_fini-0x80ea>
   136f4:	fef71de3          	bne	a4,a5,136ee <emul+0xc2>
   136f8:	01245783          	lhu	a5,18(s0)
   136fc:	6721                	lui	a4,0x8
   136fe:	177d                	addi	a4,a4,-1
   13700:	8fd9                	or	a5,a5,a4
   13702:	00f41923          	sh	a5,18(s0)
   13706:	70ea                	ld	ra,184(sp)
   13708:	744a                	ld	s0,176(sp)
   1370a:	74aa                	ld	s1,168(sp)
   1370c:	790a                	ld	s2,160(sp)
   1370e:	69ea                	ld	s3,152(sp)
   13710:	6a4a                	ld	s4,144(sp)
   13712:	6aaa                	ld	s5,136(sp)
   13714:	6b0a                	ld	s6,128(sp)
   13716:	7be6                	ld	s7,120(sp)
   13718:	7c46                	ld	s8,112(sp)
   1371a:	7ca6                	ld	s9,104(sp)
   1371c:	6129                	addi	sp,sp,192
   1371e:	8082                	ret
   13720:	0125da83          	lhu	s5,18(a1)
   13724:	0157f733          	and	a4,a5,s5
   13728:	1742                	slli	a4,a4,0x30
   1372a:	9341                	srli	a4,a4,0x30
   1372c:	02f70f63          	beq	a4,a5,1376a <emul+0x13e>
   13730:	8526                	mv	a0,s1
   13732:	858a                	mv	a1,sp
   13734:	e4aff0ef          	jal	ra,12d7e <emovi>
   13738:	854a                	mv	a0,s2
   1373a:	100c                	addi	a1,sp,32
   1373c:	e42ff0ef          	jal	ra,12d7e <emovi>
   13740:	00215483          	lhu	s1,2(sp)
   13744:	02215903          	lhu	s2,34(sp)
   13748:	e0a1                	bnez	s1,13788 <emul+0x15c>
   1374a:	005c                	addi	a5,sp,4
   1374c:	0834                	addi	a3,sp,24
   1374e:	18f68b63          	beq	a3,a5,138e4 <emul+0x2b8>
   13752:	0007d703          	lhu	a4,0(a5)
   13756:	0789                	addi	a5,a5,2
   13758:	db7d                	beqz	a4,1374e <emul+0x122>
   1375a:	850a                	mv	a0,sp
   1375c:	935ff0ef          	jal	ra,13090 <enormlz>
   13760:	02215703          	lhu	a4,34(sp)
   13764:	40a004b3          	neg	s1,a0
   13768:	a00d                	j	1378a <emul+0x15e>
   1376a:	852e                	mv	a0,a1
   1376c:	da0ff0ef          	jal	ra,12d0c <eisnan.part.0>
   13770:	d115                	beqz	a0,13694 <emul+0x68>
   13772:	01490713          	addi	a4,s2,20
   13776:	00095783          	lhu	a5,0(s2)
   1377a:	0909                	addi	s2,s2,2
   1377c:	0409                	addi	s0,s0,2
   1377e:	fef41f23          	sh	a5,-2(s0)
   13782:	fee91ae3          	bne	s2,a4,13776 <emul+0x14a>
   13786:	b741                	j	13706 <emul+0xda>
   13788:	874a                	mv	a4,s2
   1378a:	8aca                	mv	s5,s2
   1378c:	105c                	addi	a5,sp,36
   1378e:	1834                	addi	a3,sp,56
   13790:	ef11                	bnez	a4,137ac <emul+0x180>
   13792:	16f68163          	beq	a3,a5,138f4 <emul+0x2c8>
   13796:	0007d703          	lhu	a4,0(a5)
   1379a:	0789                	addi	a5,a5,2
   1379c:	db7d                	beqz	a4,13792 <emul+0x166>
   1379e:	1008                	addi	a0,sp,32
   137a0:	8f1ff0ef          	jal	ra,13090 <enormlz>
   137a4:	02215703          	lhu	a4,34(sp)
   137a8:	40a90ab3          	sub	s5,s2,a0
   137ac:	02015783          	lhu	a5,32(sp)
   137b0:	03898c13          	addi	s8,s3,56
   137b4:	02e99b23          	sh	a4,54(s3)
   137b8:	02f99a23          	sh	a5,52(s3)
   137bc:	04e98713          	addi	a4,s3,78
   137c0:	87e2                	mv	a5,s8
   137c2:	00079023          	sh	zero,0(a5)
   137c6:	0789                	addi	a5,a5,2
   137c8:	fef71de3          	bne	a4,a5,137c2 <emul+0x196>
   137cc:	04c98a13          	addi	s4,s3,76
   137d0:	4b81                	li	s7,0
   137d2:	01810913          	addi	s2,sp,24
   137d6:	00410c93          	addi	s9,sp,4
   137da:	04210b13          	addi	s6,sp,66
   137de:	00095503          	lhu	a0,0(s2)
   137e2:	1979                	addi	s2,s2,-2
   137e4:	e145                	bnez	a0,13884 <emul+0x258>
   137e6:	04c9d703          	lhu	a4,76(s3)
   137ea:	87d2                	mv	a5,s4
   137ec:	00ebebb3          	or	s7,s7,a4
   137f0:	ffe7d703          	lhu	a4,-2(a5)
   137f4:	17f9                	addi	a5,a5,-2
   137f6:	00e79123          	sh	a4,2(a5)
   137fa:	ff879be3          	bne	a5,s8,137f0 <emul+0x1c4>
   137fe:	02099c23          	sh	zero,56(s3)
   13802:	fd991ee3          	bne	s2,s9,137de <emul+0x1b2>
   13806:	03498713          	addi	a4,s3,52
   1380a:	101c                	addi	a5,sp,32
   1380c:	03a10593          	addi	a1,sp,58
   13810:	00075603          	lhu	a2,0(a4) # 8000 <register_fini-0x80e8>
   13814:	0789                	addi	a5,a5,2
   13816:	0709                	addi	a4,a4,2
   13818:	fec79f23          	sh	a2,-2(a5)
   1381c:	fef59ae3          	bne	a1,a5,13810 <emul+0x1e4>
   13820:	76f1                	lui	a3,0xffffc
   13822:	94d6                	add	s1,s1,s5
   13824:	0689                	addi	a3,a3,2
   13826:	85de                	mv	a1,s7
   13828:	1008                	addi	a0,sp,32
   1382a:	87ce                	mv	a5,s3
   1382c:	04000713          	li	a4,64
   13830:	96a6                	add	a3,a3,s1
   13832:	4601                	li	a2,0
   13834:	97dff0ef          	jal	ra,131b0 <emdnorm>
   13838:	02015703          	lhu	a4,32(sp)
   1383c:	00015783          	lhu	a5,0(sp)
   13840:	85a2                	mv	a1,s0
   13842:	1008                	addi	a0,sp,32
   13844:	8f99                	sub	a5,a5,a4
   13846:	00f037b3          	snez	a5,a5
   1384a:	40f007bb          	negw	a5,a5
   1384e:	02f11023          	sh	a5,32(sp)
   13852:	d59ff0ef          	jal	ra,135aa <emovo.isra.0>
   13856:	bd45                	j	13706 <emul+0xda>
   13858:	01448713          	addi	a4,s1,20
   1385c:	0004d783          	lhu	a5,0(s1)
   13860:	0489                	addi	s1,s1,2
   13862:	0409                	addi	s0,s0,2
   13864:	fef41f23          	sh	a5,-2(s0)
   13868:	fee49ae3          	bne	s1,a4,1385c <emul+0x230>
   1386c:	bd69                	j	13706 <emul+0xda>
   1386e:	854a                	mv	a0,s2
   13870:	c9cff0ef          	jal	ra,12d0c <eisnan.part.0>
   13874:	ee051fe3          	bnez	a0,13772 <emul+0x146>
   13878:	8526                	mv	a0,s1
   1387a:	e82ff0ef          	jal	ra,12efc <eisinf.part.0>
   1387e:	e0050be3          	beqz	a0,13694 <emul+0x68>
   13882:	bbfd                	j	13680 <emul+0x54>
   13884:	0090                	addi	a2,sp,64
   13886:	100c                	addi	a1,sp,32
   13888:	c10ff0ef          	jal	ra,12c98 <m16m>
   1388c:	85d2                	mv	a1,s4
   1388e:	4601                	li	a2,0
   13890:	08b8                	addi	a4,sp,88
   13892:	0005d803          	lhu	a6,0(a1)
   13896:	00075783          	lhu	a5,0(a4)
   1389a:	15f9                	addi	a1,a1,-2
   1389c:	1779                	addi	a4,a4,-2
   1389e:	97c2                	add	a5,a5,a6
   138a0:	97b2                	add	a5,a5,a2
   138a2:	0107d613          	srli	a2,a5,0x10
   138a6:	00f59123          	sh	a5,2(a1)
   138aa:	8a05                	andi	a2,a2,1
   138ac:	ff6713e3          	bne	a4,s6,13892 <emul+0x266>
   138b0:	bf1d                	j	137e6 <emul+0x1ba>
   138b2:	0124db03          	lhu	s6,18(s1)
   138b6:	67a1                	lui	a5,0x8
   138b8:	17fd                	addi	a5,a5,-1
   138ba:	0167fb33          	and	s6,a5,s6
   138be:	1b42                	slli	s6,s6,0x30
   138c0:	030b5b13          	srli	s6,s6,0x30
   138c4:	e6fb16e3          	bne	s6,a5,13730 <emul+0x104>
   138c8:	8526                	mv	a0,s1
   138ca:	e32ff0ef          	jal	ra,12efc <eisinf.part.0>
   138ce:	de051fe3          	bnez	a0,136cc <emul+0xa0>
   138d2:	01295783          	lhu	a5,18(s2)
   138d6:	fff7c793          	not	a5,a5
   138da:	03179713          	slli	a4,a5,0x31
   138de:	e40719e3          	bnez	a4,13730 <emul+0x104>
   138e2:	b3cd                	j	136c4 <emul+0x98>
   138e4:	01440793          	addi	a5,s0,20
   138e8:	0409                	addi	s0,s0,2
   138ea:	fe041f23          	sh	zero,-2(s0)
   138ee:	fef41de3          	bne	s0,a5,138e8 <emul+0x2bc>
   138f2:	bd11                	j	13706 <emul+0xda>
   138f4:	01440793          	addi	a5,s0,20
   138f8:	0409                	addi	s0,s0,2
   138fa:	fe041f23          	sh	zero,-2(s0)
   138fe:	fef41de3          	bne	s0,a5,138f8 <emul+0x2cc>
   13902:	b511                	j	13706 <emul+0xda>
   13904:	65f1                	lui	a1,0x1c
   13906:	34858593          	addi	a1,a1,840 # 1c348 <ezero>
   1390a:	8526                	mv	a0,s1
   1390c:	d28ff0ef          	jal	ra,12e34 <ecmp>
   13910:	c901                	beqz	a0,13920 <emul+0x2f4>
   13912:	0124d783          	lhu	a5,18(s1)
   13916:	00faf7b3          	and	a5,s5,a5
   1391a:	fb5787e3          	beq	a5,s5,138c8 <emul+0x29c>
   1391e:	bf55                	j	138d2 <emul+0x2a6>
   13920:	01040713          	addi	a4,s0,16
   13924:	87a2                	mv	a5,s0
   13926:	0789                	addi	a5,a5,2
   13928:	fe079f23          	sh	zero,-2(a5) # 7ffe <register_fini-0x80ea>
   1392c:	fee79de3          	bne	a5,a4,13926 <emul+0x2fa>
   13930:	7fffc7b7          	lui	a5,0x7fffc
   13934:	c81c                	sw	a5,16(s0)
   13936:	bbc1                	j	13706 <emul+0xda>

0000000000013938 <ediv>:
   13938:	01255783          	lhu	a5,18(a0)
   1393c:	7115                	addi	sp,sp,-224
   1393e:	e9a2                	sd	s0,208(sp)
   13940:	fff7c793          	not	a5,a5
   13944:	e5a6                	sd	s1,200(sp)
   13946:	e1ca                	sd	s2,192(sp)
   13948:	fd4e                	sd	s3,184(sp)
   1394a:	ed86                	sd	ra,216(sp)
   1394c:	f952                	sd	s4,176(sp)
   1394e:	f556                	sd	s5,168(sp)
   13950:	f15a                	sd	s6,160(sp)
   13952:	ed5e                	sd	s7,152(sp)
   13954:	e962                	sd	s8,144(sp)
   13956:	e566                	sd	s9,136(sp)
   13958:	e16a                	sd	s10,128(sp)
   1395a:	fcee                	sd	s11,120(sp)
   1395c:	03179713          	slli	a4,a5,0x31
   13960:	892a                	mv	s2,a0
   13962:	89ae                	mv	s3,a1
   13964:	8432                	mv	s0,a2
   13966:	84b6                	mv	s1,a3
   13968:	e709                	bnez	a4,13972 <ediv+0x3a>
   1396a:	ba2ff0ef          	jal	ra,12d0c <eisnan.part.0>
   1396e:	2a051163          	bnez	a0,13c10 <ediv+0x2d8>
   13972:	0129d783          	lhu	a5,18(s3)
   13976:	fff7c793          	not	a5,a5
   1397a:	03179713          	slli	a4,a5,0x31
   1397e:	c725                	beqz	a4,139e6 <ediv+0xae>
   13980:	6a71                	lui	s4,0x1c
   13982:	348a0593          	addi	a1,s4,840 # 1c348 <ezero>
   13986:	854a                	mv	a0,s2
   13988:	cacff0ef          	jal	ra,12e34 <ecmp>
   1398c:	cd55                	beqz	a0,13a48 <ediv+0x110>
   1398e:	01295a03          	lhu	s4,18(s2)
   13992:	0129d703          	lhu	a4,18(s3)
   13996:	67a1                	lui	a5,0x8
   13998:	17fd                	addi	a5,a5,-1
   1399a:	0147fa33          	and	s4,a5,s4
   1399e:	00e7fab3          	and	s5,a5,a4
   139a2:	06fa1163          	bne	s4,a5,13a04 <ediv+0xcc>
   139a6:	854a                	mv	a0,s2
   139a8:	d54ff0ef          	jal	ra,12efc <eisinf.part.0>
   139ac:	c161                	beqz	a0,13a6c <ediv+0x134>
   139ae:	014a9663          	bne	s5,s4,139ba <ediv+0x82>
   139b2:	854e                	mv	a0,s3
   139b4:	d48ff0ef          	jal	ra,12efc <eisinf.part.0>
   139b8:	ed51                	bnez	a0,13a54 <ediv+0x11c>
   139ba:	01440793          	addi	a5,s0,20
   139be:	0409                	addi	s0,s0,2
   139c0:	fe041f23          	sh	zero,-2(s0)
   139c4:	fef41de3          	bne	s0,a5,139be <ediv+0x86>
   139c8:	60ee                	ld	ra,216(sp)
   139ca:	644e                	ld	s0,208(sp)
   139cc:	64ae                	ld	s1,200(sp)
   139ce:	690e                	ld	s2,192(sp)
   139d0:	79ea                	ld	s3,184(sp)
   139d2:	7a4a                	ld	s4,176(sp)
   139d4:	7aaa                	ld	s5,168(sp)
   139d6:	7b0a                	ld	s6,160(sp)
   139d8:	6bea                	ld	s7,152(sp)
   139da:	6c4a                	ld	s8,144(sp)
   139dc:	6caa                	ld	s9,136(sp)
   139de:	6d0a                	ld	s10,128(sp)
   139e0:	7de6                	ld	s11,120(sp)
   139e2:	612d                	addi	sp,sp,224
   139e4:	8082                	ret
   139e6:	854e                	mv	a0,s3
   139e8:	b24ff0ef          	jal	ra,12d0c <eisnan.part.0>
   139ec:	d951                	beqz	a0,13980 <ediv+0x48>
   139ee:	01498713          	addi	a4,s3,20
   139f2:	0009d783          	lhu	a5,0(s3)
   139f6:	0989                	addi	s3,s3,2
   139f8:	0409                	addi	s0,s0,2
   139fa:	fef41f23          	sh	a5,-2(s0)
   139fe:	fee99ae3          	bne	s3,a4,139f2 <ediv+0xba>
   13a02:	b7d9                	j	139c8 <ediv+0x90>
   13a04:	06fa8663          	beq	s5,a5,13a70 <ediv+0x138>
   13a08:	854a                	mv	a0,s2
   13a0a:	080c                	addi	a1,sp,16
   13a0c:	b72ff0ef          	jal	ra,12d7e <emovi>
   13a10:	180c                	addi	a1,sp,48
   13a12:	854e                	mv	a0,s3
   13a14:	b6aff0ef          	jal	ra,12d7e <emovi>
   13a18:	03215b83          	lhu	s7,50(sp)
   13a1c:	01215903          	lhu	s2,18(sp)
   13a20:	080b9a63          	bnez	s7,13ab4 <ediv+0x17c>
   13a24:	185c                	addi	a5,sp,52
   13a26:	04810d93          	addi	s11,sp,72
   13a2a:	28fd8363          	beq	s11,a5,13cb0 <ediv+0x378>
   13a2e:	0007d703          	lhu	a4,0(a5) # 8000 <register_fini-0x80e8>
   13a32:	0789                	addi	a5,a5,2
   13a34:	db7d                	beqz	a4,13a2a <ediv+0xf2>
   13a36:	1808                	addi	a0,sp,48
   13a38:	e58ff0ef          	jal	ra,13090 <enormlz>
   13a3c:	40a007b3          	neg	a5,a0
   13a40:	01215603          	lhu	a2,18(sp)
   13a44:	e43e                	sd	a5,8(sp)
   13a46:	a88d                	j	13ab8 <ediv+0x180>
   13a48:	348a0593          	addi	a1,s4,840
   13a4c:	854e                	mv	a0,s3
   13a4e:	be6ff0ef          	jal	ra,12e34 <ecmp>
   13a52:	fd15                	bnez	a0,1398e <ediv+0x56>
   13a54:	01040713          	addi	a4,s0,16
   13a58:	87a2                	mv	a5,s0
   13a5a:	0789                	addi	a5,a5,2
   13a5c:	fe079f23          	sh	zero,-2(a5)
   13a60:	fee79de3          	bne	a5,a4,13a5a <ediv+0x122>
   13a64:	7fffc7b7          	lui	a5,0x7fffc
   13a68:	c81c                	sw	a5,16(s0)
   13a6a:	bfb9                	j	139c8 <ediv+0x90>
   13a6c:	f94a9ee3          	bne	s5,s4,13a08 <ediv+0xd0>
   13a70:	854e                	mv	a0,s3
   13a72:	c8aff0ef          	jal	ra,12efc <eisinf.part.0>
   13a76:	d949                	beqz	a0,13a08 <ediv+0xd0>
   13a78:	854a                	mv	a0,s2
   13a7a:	adaff0ef          	jal	ra,12d54 <eisneg>
   13a7e:	84aa                	mv	s1,a0
   13a80:	854e                	mv	a0,s3
   13a82:	ad2ff0ef          	jal	ra,12d54 <eisneg>
   13a86:	40a487b3          	sub	a5,s1,a0
   13a8a:	00f037b3          	snez	a5,a5
   13a8e:	07be                	slli	a5,a5,0xf
   13a90:	00f41923          	sh	a5,18(s0)
   13a94:	01240713          	addi	a4,s0,18
   13a98:	87a2                	mv	a5,s0
   13a9a:	0789                	addi	a5,a5,2
   13a9c:	fe079f23          	sh	zero,-2(a5) # 7fffbffe <__BSS_END__+0x7ffdd00e>
   13aa0:	fee79de3          	bne	a5,a4,13a9a <ediv+0x162>
   13aa4:	01245783          	lhu	a5,18(s0)
   13aa8:	6721                	lui	a4,0x8
   13aaa:	177d                	addi	a4,a4,-1
   13aac:	8fd9                	or	a5,a5,a4
   13aae:	00f41923          	sh	a5,18(s0)
   13ab2:	bf19                	j	139c8 <ediv+0x90>
   13ab4:	e45e                	sd	s7,8(sp)
   13ab6:	864a                	mv	a2,s2
   13ab8:	e04a                	sd	s2,0(sp)
   13aba:	085c                	addi	a5,sp,20
   13abc:	1034                	addi	a3,sp,40
   13abe:	ee09                	bnez	a2,13ad8 <ediv+0x1a0>
   13ac0:	20f68063          	beq	a3,a5,13cc0 <ediv+0x388>
   13ac4:	0007d703          	lhu	a4,0(a5)
   13ac8:	0789                	addi	a5,a5,2
   13aca:	db7d                	beqz	a4,13ac0 <ediv+0x188>
   13acc:	0808                	addi	a0,sp,16
   13ace:	dc2ff0ef          	jal	ra,13090 <enormlz>
   13ad2:	40a907b3          	sub	a5,s2,a0
   13ad6:	e03e                	sd	a5,0(sp)
   13ad8:	5742                	lw	a4,48(sp)
   13ada:	03848d13          	addi	s10,s1,56
   13ade:	87ea                	mv	a5,s10
   13ae0:	d8d8                	sw	a4,52(s1)
   13ae2:	04e48913          	addi	s2,s1,78
   13ae6:	0789                	addi	a5,a5,2
   13ae8:	fe079f23          	sh	zero,-2(a5)
   13aec:	fef91de3          	bne	s2,a5,13ae6 <ediv+0x1ae>
   13af0:	1808                	addi	a0,sp,48
   13af2:	900ff0ef          	jal	ra,12bf2 <eshdn1>
   13af6:	01615c03          	lhu	s8,22(sp)
   13afa:	6a41                	lui	s4,0x10
   13afc:	04810d93          	addi	s11,sp,72
   13b00:	010c1a93          	slli	s5,s8,0x10
   13b04:	418a8ab3          	sub	s5,s5,s8
   13b08:	03210b13          	addi	s6,sp,50
   13b0c:	1a7d                	addi	s4,s4,-1
   13b0e:	06a10c93          	addi	s9,sp,106
   13b12:	05210993          	addi	s3,sp,82
   13b16:	03415783          	lhu	a5,52(sp)
   13b1a:	03615703          	lhu	a4,54(sp)
   13b1e:	8bd2                	mv	s7,s4
   13b20:	07c2                	slli	a5,a5,0x10
   13b22:	97ba                	add	a5,a5,a4
   13b24:	00fae863          	bltu	s5,a5,13b34 <ediv+0x1fc>
   13b28:	0387d7b3          	divu	a5,a5,s8
   13b2c:	03079b93          	slli	s7,a5,0x30
   13b30:	030bdb93          	srli	s7,s7,0x30
   13b34:	0890                	addi	a2,sp,80
   13b36:	080c                	addi	a1,sp,16
   13b38:	855e                	mv	a0,s7
   13b3a:	95eff0ef          	jal	ra,12c98 <m16m>
   13b3e:	1858                	addi	a4,sp,52
   13b40:	08dc                	addi	a5,sp,84
   13b42:	0007d583          	lhu	a1,0(a5)
   13b46:	00075603          	lhu	a2,0(a4) # 8000 <register_fini-0x80e8>
   13b4a:	0789                	addi	a5,a5,2
   13b4c:	0709                	addi	a4,a4,2
   13b4e:	0cc59c63          	bne	a1,a2,13c26 <ediv+0x2ee>
   13b52:	ff9798e3          	bne	a5,s9,13b42 <ediv+0x20a>
   13b56:	4781                	li	a5,0
   13b58:	10ac                	addi	a1,sp,104
   13b5a:	866e                	mv	a2,s11
   13b5c:	00065703          	lhu	a4,0(a2)
   13b60:	0005d803          	lhu	a6,0(a1)
   13b64:	1679                	addi	a2,a2,-2
   13b66:	8f1d                	sub	a4,a4,a5
   13b68:	41070733          	sub	a4,a4,a6
   13b6c:	01075793          	srli	a5,a4,0x10
   13b70:	00e61123          	sh	a4,2(a2)
   13b74:	8b85                	andi	a5,a5,1
   13b76:	15f9                	addi	a1,a1,-2
   13b78:	ff6612e3          	bne	a2,s6,13b5c <ediv+0x224>
   13b7c:	017d1023          	sh	s7,0(s10)
   13b80:	185c                	addi	a5,sp,52
   13b82:	0027d703          	lhu	a4,2(a5)
   13b86:	0789                	addi	a5,a5,2
   13b88:	fee79f23          	sh	a4,-2(a5)
   13b8c:	ffb79be3          	bne	a5,s11,13b82 <ediv+0x24a>
   13b90:	04011423          	sh	zero,72(sp)
   13b94:	0d09                	addi	s10,s10,2
   13b96:	f9a910e3          	bne	s2,s10,13b16 <ediv+0x1de>
   13b9a:	4581                	li	a1,0
   13b9c:	185c                	addi	a5,sp,52
   13b9e:	04a10693          	addi	a3,sp,74
   13ba2:	0007d703          	lhu	a4,0(a5)
   13ba6:	0789                	addi	a5,a5,2
   13ba8:	8dd9                	or	a1,a1,a4
   13baa:	fed79ce3          	bne	a5,a3,13ba2 <ediv+0x26a>
   13bae:	0105979b          	slliw	a5,a1,0x10
   13bb2:	4107d79b          	sraiw	a5,a5,0x10
   13bb6:	c391                	beqz	a5,13bba <ediv+0x282>
   13bb8:	4585                	li	a1,1
   13bba:	15c2                	slli	a1,a1,0x30
   13bbc:	91c1                	srli	a1,a1,0x30
   13bbe:	03448713          	addi	a4,s1,52
   13bc2:	181c                	addi	a5,sp,48
   13bc4:	00075603          	lhu	a2,0(a4)
   13bc8:	0789                	addi	a5,a5,2
   13bca:	0709                	addi	a4,a4,2
   13bcc:	fec79f23          	sh	a2,-2(a5)
   13bd0:	fef69ae3          	bne	a3,a5,13bc4 <ediv+0x28c>
   13bd4:	67a2                	ld	a5,8(sp)
   13bd6:	6702                	ld	a4,0(sp)
   13bd8:	6691                	lui	a3,0x4
   13bda:	16fd                	addi	a3,a3,-1
   13bdc:	40e78bb3          	sub	s7,a5,a4
   13be0:	1808                	addi	a0,sp,48
   13be2:	87a6                	mv	a5,s1
   13be4:	04000713          	li	a4,64
   13be8:	96de                	add	a3,a3,s7
   13bea:	4601                	li	a2,0
   13bec:	dc4ff0ef          	jal	ra,131b0 <emdnorm>
   13bf0:	03015703          	lhu	a4,48(sp)
   13bf4:	01015783          	lhu	a5,16(sp)
   13bf8:	85a2                	mv	a1,s0
   13bfa:	1808                	addi	a0,sp,48
   13bfc:	8f99                	sub	a5,a5,a4
   13bfe:	00f037b3          	snez	a5,a5
   13c02:	40f007bb          	negw	a5,a5
   13c06:	02f11823          	sh	a5,48(sp)
   13c0a:	9a1ff0ef          	jal	ra,135aa <emovo.isra.0>
   13c0e:	bb6d                	j	139c8 <ediv+0x90>
   13c10:	01490713          	addi	a4,s2,20
   13c14:	00095783          	lhu	a5,0(s2)
   13c18:	0909                	addi	s2,s2,2
   13c1a:	0409                	addi	s0,s0,2
   13c1c:	fef41f23          	sh	a5,-2(s0)
   13c20:	fee91ae3          	bne	s2,a4,13c14 <ediv+0x2dc>
   13c24:	b355                	j	139c8 <ediv+0x90>
   13c26:	f2b678e3          	bgeu	a2,a1,13b56 <ediv+0x21e>
   13c2a:	fffb879b          	addiw	a5,s7,-1
   13c2e:	03079893          	slli	a7,a5,0x30
   13c32:	0308d893          	srli	a7,a7,0x30
   13c36:	4781                	li	a5,0
   13c38:	102c                	addi	a1,sp,40
   13c3a:	10b0                	addi	a2,sp,104
   13c3c:	00065703          	lhu	a4,0(a2)
   13c40:	0005d803          	lhu	a6,0(a1)
   13c44:	1679                	addi	a2,a2,-2
   13c46:	8f1d                	sub	a4,a4,a5
   13c48:	41070733          	sub	a4,a4,a6
   13c4c:	01075793          	srli	a5,a4,0x10
   13c50:	00e61123          	sh	a4,2(a2)
   13c54:	8b85                	andi	a5,a5,1
   13c56:	15f9                	addi	a1,a1,-2
   13c58:	ff3612e3          	bne	a2,s3,13c3c <ediv+0x304>
   13c5c:	1858                	addi	a4,sp,52
   13c5e:	08dc                	addi	a5,sp,84
   13c60:	0007d583          	lhu	a1,0(a5)
   13c64:	00075603          	lhu	a2,0(a4)
   13c68:	0789                	addi	a5,a5,2
   13c6a:	0709                	addi	a4,a4,2
   13c6c:	00c59663          	bne	a1,a2,13c78 <ediv+0x340>
   13c70:	ff9798e3          	bne	a5,s9,13c60 <ediv+0x328>
   13c74:	8bc6                	mv	s7,a7
   13c76:	b5c5                	j	13b56 <ediv+0x21e>
   13c78:	feb67ee3          	bgeu	a2,a1,13c74 <ediv+0x33c>
   13c7c:	ffeb879b          	addiw	a5,s7,-2
   13c80:	03079b93          	slli	s7,a5,0x30
   13c84:	030bdb93          	srli	s7,s7,0x30
   13c88:	4601                	li	a2,0
   13c8a:	102c                	addi	a1,sp,40
   13c8c:	10b8                	addi	a4,sp,104
   13c8e:	00075783          	lhu	a5,0(a4)
   13c92:	0005d803          	lhu	a6,0(a1)
   13c96:	1779                	addi	a4,a4,-2
   13c98:	8f91                	sub	a5,a5,a2
   13c9a:	410787b3          	sub	a5,a5,a6
   13c9e:	0107d613          	srli	a2,a5,0x10
   13ca2:	00f71123          	sh	a5,2(a4)
   13ca6:	8a05                	andi	a2,a2,1
   13ca8:	15f9                	addi	a1,a1,-2
   13caa:	ff3712e3          	bne	a4,s3,13c8e <ediv+0x356>
   13cae:	b565                	j	13b56 <ediv+0x21e>
   13cb0:	01440793          	addi	a5,s0,20
   13cb4:	0409                	addi	s0,s0,2
   13cb6:	fe041f23          	sh	zero,-2(s0)
   13cba:	fe879de3          	bne	a5,s0,13cb4 <ediv+0x37c>
   13cbe:	b329                	j	139c8 <ediv+0x90>
   13cc0:	01015703          	lhu	a4,16(sp)
   13cc4:	03015783          	lhu	a5,48(sp)
   13cc8:	00f70363          	beq	a4,a5,13cce <ediv+0x396>
   13ccc:	6621                	lui	a2,0x8
   13cce:	00c41923          	sh	a2,18(s0)
   13cd2:	01240713          	addi	a4,s0,18
   13cd6:	87a2                	mv	a5,s0
   13cd8:	0789                	addi	a5,a5,2
   13cda:	fe079f23          	sh	zero,-2(a5)
   13cde:	fef71de3          	bne	a4,a5,13cd8 <ediv+0x3a0>
   13ce2:	01245783          	lhu	a5,18(s0)
   13ce6:	6721                	lui	a4,0x8
   13ce8:	177d                	addi	a4,a4,-1
   13cea:	8fd9                	or	a5,a5,a4
   13cec:	00f41923          	sh	a5,18(s0)
   13cf0:	b9e1                	j	139c8 <ediv+0x90>

0000000000013cf2 <e113toe.isra.0>:
   13cf2:	7179                	addi	sp,sp,-48
   13cf4:	f022                	sd	s0,32(sp)
   13cf6:	f406                	sd	ra,40(sp)
   13cf8:	842e                	mv	s0,a1
   13cfa:	878a                	mv	a5,sp
   13cfc:	01a10713          	addi	a4,sp,26
   13d00:	0789                	addi	a5,a5,2
   13d02:	fe079f23          	sh	zero,-2(a5)
   13d06:	fee79de3          	bne	a5,a4,13d00 <e113toe.isra.0+0xe>
   13d0a:	00e55783          	lhu	a5,14(a0)
   13d0e:	0107971b          	slliw	a4,a5,0x10
   13d12:	4107571b          	sraiw	a4,a4,0x10
   13d16:	02071693          	slli	a3,a4,0x20
   13d1a:	0406cc63          	bltz	a3,13d72 <e113toe.isra.0+0x80>
   13d1e:	6721                	lui	a4,0x8
   13d20:	177d                	addi	a4,a4,-1
   13d22:	00e7f6b3          	and	a3,a5,a4
   13d26:	00011023          	sh	zero,0(sp)
   13d2a:	8636                	mv	a2,a3
   13d2c:	04e68d63          	beq	a3,a4,13d86 <e113toe.isra.0+0x94>
   13d30:	00e50793          	addi	a5,a0,14
   13d34:	00d11123          	sh	a3,2(sp)
   13d38:	00610713          	addi	a4,sp,6
   13d3c:	ffe7d683          	lhu	a3,-2(a5)
   13d40:	17f9                	addi	a5,a5,-2
   13d42:	0709                	addi	a4,a4,2
   13d44:	fed71f23          	sh	a3,-2(a4) # 7ffe <register_fini-0x80ea>
   13d48:	fef51ae3          	bne	a0,a5,13d3c <e113toe.isra.0+0x4a>
   13d4c:	ea19                	bnez	a2,13d62 <e113toe.isra.0+0x70>
   13d4e:	00011223          	sh	zero,4(sp)
   13d52:	85a2                	mv	a1,s0
   13d54:	850a                	mv	a0,sp
   13d56:	855ff0ef          	jal	ra,135aa <emovo.isra.0>
   13d5a:	70a2                	ld	ra,40(sp)
   13d5c:	7402                	ld	s0,32(sp)
   13d5e:	6145                	addi	sp,sp,48
   13d60:	8082                	ret
   13d62:	4785                	li	a5,1
   13d64:	55fd                	li	a1,-1
   13d66:	850a                	mv	a0,sp
   13d68:	00f11223          	sh	a5,4(sp)
   13d6c:	9a2ff0ef          	jal	ra,12f0e <eshift.part.0>
   13d70:	b7cd                	j	13d52 <e113toe.isra.0+0x60>
   13d72:	577d                	li	a4,-1
   13d74:	00e11023          	sh	a4,0(sp)
   13d78:	6721                	lui	a4,0x8
   13d7a:	177d                	addi	a4,a4,-1
   13d7c:	00e7f6b3          	and	a3,a5,a4
   13d80:	8636                	mv	a2,a3
   13d82:	fae697e3          	bne	a3,a4,13d30 <e113toe.isra.0+0x3e>
   13d86:	87aa                	mv	a5,a0
   13d88:	00e50693          	addi	a3,a0,14
   13d8c:	0007d703          	lhu	a4,0(a5)
   13d90:	0789                	addi	a5,a5,2
   13d92:	e331                	bnez	a4,13dd6 <e113toe.isra.0+0xe4>
   13d94:	fed79ce3          	bne	a5,a3,13d8c <e113toe.isra.0+0x9a>
   13d98:	01440713          	addi	a4,s0,20
   13d9c:	87a2                	mv	a5,s0
   13d9e:	0789                	addi	a5,a5,2
   13da0:	fe079f23          	sh	zero,-2(a5)
   13da4:	fef71de3          	bne	a4,a5,13d9e <e113toe.isra.0+0xac>
   13da8:	01240713          	addi	a4,s0,18
   13dac:	87a2                	mv	a5,s0
   13dae:	0789                	addi	a5,a5,2
   13db0:	fe079f23          	sh	zero,-2(a5)
   13db4:	fef71de3          	bne	a4,a5,13dae <e113toe.isra.0+0xbc>
   13db8:	01245783          	lhu	a5,18(s0)
   13dbc:	6721                	lui	a4,0x8
   13dbe:	177d                	addi	a4,a4,-1
   13dc0:	8fd9                	or	a5,a5,a4
   13dc2:	00f41923          	sh	a5,18(s0)
   13dc6:	00e51783          	lh	a5,14(a0)
   13dca:	f807d8e3          	bgez	a5,13d5a <e113toe.isra.0+0x68>
   13dce:	8522                	mv	a0,s0
   13dd0:	f55fe0ef          	jal	ra,12d24 <eneg>
   13dd4:	b759                	j	13d5a <e113toe.isra.0+0x68>
   13dd6:	01040713          	addi	a4,s0,16
   13dda:	87a2                	mv	a5,s0
   13ddc:	0789                	addi	a5,a5,2
   13dde:	fe079f23          	sh	zero,-2(a5)
   13de2:	fef71de3          	bne	a4,a5,13ddc <e113toe.isra.0+0xea>
   13de6:	7fffc7b7          	lui	a5,0x7fffc
   13dea:	c81c                	sw	a5,16(s0)
   13dec:	b7bd                	j	13d5a <e113toe.isra.0+0x68>

0000000000013dee <_ldtoa_r>:
   13dee:	09100313          	li	t1,145
   13df2:	1302                	slli	t1,t1,0x20
   13df4:	06053e03          	ld	t3,96(a0)
   13df8:	d9010113          	addi	sp,sp,-624
   13dfc:	137d                	addi	t1,t1,-1
   13dfe:	26813023          	sd	s0,608(sp)
   13e02:	25313423          	sd	s3,584(sp)
   13e06:	26113423          	sd	ra,616(sp)
   13e0a:	24913c23          	sd	s1,600(sp)
   13e0e:	25213823          	sd	s2,592(sp)
   13e12:	25413023          	sd	s4,576(sp)
   13e16:	23513c23          	sd	s5,568(sp)
   13e1a:	23613823          	sd	s6,560(sp)
   13e1e:	23713423          	sd	s7,552(sp)
   13e22:	23813023          	sd	s8,544(sp)
   13e26:	21913c23          	sd	s9,536(sp)
   13e2a:	21a13823          	sd	s10,528(sp)
   13e2e:	21b13423          	sd	s11,520(sp)
   13e32:	f0ae                	sd	a1,96(sp)
   13e34:	f4b2                	sd	a2,104(sp)
   13e36:	fb1a                	sd	t1,432(sp)
   13e38:	e436                	sd	a3,8(sp)
   13e3a:	ec3a                	sd	a4,24(sp)
   13e3c:	f03e                	sd	a5,32(sp)
   13e3e:	fc46                	sd	a7,56(sp)
   13e40:	89aa                	mv	s3,a0
   13e42:	8442                	mv	s0,a6
   13e44:	000e0f63          	beqz	t3,13e62 <_ldtoa_r+0x74>
   13e48:	5538                	lw	a4,104(a0)
   13e4a:	4785                	li	a5,1
   13e4c:	85f2                	mv	a1,t3
   13e4e:	00e797bb          	sllw	a5,a5,a4
   13e52:	00ee2423          	sw	a4,8(t3) # 10008 <register_fini-0xe0>
   13e56:	00fe2623          	sw	a5,12(t3)
   13e5a:	70e010ef          	jal	ra,15568 <_Bfree>
   13e5e:	0609b023          	sd	zero,96(s3)
   13e62:	090c                	addi	a1,sp,144
   13e64:	1088                	addi	a0,sp,96
   13e66:	e8dff0ef          	jal	ra,13cf2 <e113toe.isra.0>
   13e6a:	0908                	addi	a0,sp,144
   13e6c:	ee9fe0ef          	jal	ra,12d54 <eisneg>
   13e70:	6722                	ld	a4,8(sp)
   13e72:	00a03533          	snez	a0,a0
   13e76:	c008                	sw	a0,0(s0)
   13e78:	478d                	li	a5,3
   13e7a:	72f70d63          	beq	a4,a5,145b4 <_ldtoa_r+0x7c6>
   13e7e:	47d1                	li	a5,20
   13e80:	e83e                	sd	a5,16(sp)
   13e82:	2c0710e3          	bnez	a4,14942 <_ldtoa_r+0xb54>
   13e86:	0a215783          	lhu	a5,162(sp)
   13e8a:	1b412703          	lw	a4,436(sp)
   13e8e:	fff7c793          	not	a5,a5
   13e92:	f83a                	sd	a4,48(sp)
   13e94:	03179713          	slli	a4,a5,0x31
   13e98:	e711                	bnez	a4,13ea4 <_ldtoa_r+0xb6>
   13e9a:	0908                	addi	a0,sp,144
   13e9c:	e71fe0ef          	jal	ra,12d0c <eisnan.part.0>
   13ea0:	12051de3          	bnez	a0,147da <_ldtoa_r+0x9ec>
   13ea4:	09000793          	li	a5,144
   13ea8:	1af12a23          	sw	a5,436(sp)
   13eac:	1918                	addi	a4,sp,176
   13eae:	091c                	addi	a5,sp,144
   13eb0:	1150                	addi	a2,sp,164
   13eb2:	0007d683          	lhu	a3,0(a5) # 7fffc000 <__BSS_END__+0x7ffdd010>
   13eb6:	0789                	addi	a5,a5,2
   13eb8:	0709                	addi	a4,a4,2
   13eba:	fed71f23          	sh	a3,-2(a4) # 7ffe <register_fini-0x80ea>
   13ebe:	fec79ae3          	bne	a5,a2,13eb2 <_ldtoa_r+0xc4>
   13ec2:	0c215603          	lhu	a2,194(sp)
   13ec6:	f402                	sd	zero,40(sp)
   13ec8:	0106179b          	slliw	a5,a2,0x10
   13ecc:	4107d79b          	sraiw	a5,a5,0x10
   13ed0:	02079713          	slli	a4,a5,0x20
   13ed4:	00075963          	bgez	a4,13ee6 <_ldtoa_r+0xf8>
   13ed8:	1646                	slli	a2,a2,0x31
   13eda:	67c1                	lui	a5,0x10
   13edc:	9245                	srli	a2,a2,0x31
   13ede:	17fd                	addi	a5,a5,-1
   13ee0:	0cc11123          	sh	a2,194(sp)
   13ee4:	f43e                	sd	a5,40(sp)
   13ee6:	6a71                	lui	s4,0x1c
   13ee8:	348a0b93          	addi	s7,s4,840 # 1c348 <ezero>
   13eec:	018b8b13          	addi	s6,s7,24
   13ef0:	4681                	li	a3,0
   13ef2:	099c                	addi	a5,sp,208
   13ef4:	875a                	mv	a4,s6
   13ef6:	0e410d93          	addi	s11,sp,228
   13efa:	a019                	j	13f00 <_ldtoa_r+0x112>
   13efc:	00075683          	lhu	a3,0(a4)
   13f00:	0789                	addi	a5,a5,2
   13f02:	fed79f23          	sh	a3,-2(a5) # fffe <register_fini-0xea>
   13f06:	0709                	addi	a4,a4,2
   13f08:	ffb79ae3          	bne	a5,s11,13efc <_ldtoa_r+0x10e>
   13f0c:	0e060b63          	beqz	a2,14002 <_ldtoa_r+0x214>
   13f10:	67a1                	lui	a5,0x8
   13f12:	17fd                	addi	a5,a5,-1
   13f14:	24f609e3          	beq	a2,a5,14966 <_ldtoa_r+0xb78>
   13f18:	0c011783          	lh	a5,192(sp)
   13f1c:	2807d1e3          	bgez	a5,1499e <_ldtoa_r+0xbb0>
   13f20:	190c                	addi	a1,sp,176
   13f22:	855a                	mv	a0,s6
   13f24:	f11fe0ef          	jal	ra,12e34 <ecmp>
   13f28:	0e050763          	beqz	a0,14016 <_ldtoa_r+0x228>
   13f2c:	6e054463          	bltz	a0,14614 <_ldtoa_r+0x826>
   13f30:	0c215783          	lhu	a5,194(sp)
   13f34:	2e0797e3          	bnez	a5,14a22 <_ldtoa_r+0xc34>
   13f38:	0c011783          	lh	a5,192(sp)
   13f3c:	4481                	li	s1,0
   13f3e:	1b010913          	addi	s2,sp,432
   13f42:	0007cf63          	bltz	a5,13f60 <_ldtoa_r+0x172>
   13f46:	120b8413          	addi	s0,s7,288
   13f4a:	1910                	addi	a2,sp,176
   13f4c:	86ca                	mv	a3,s2
   13f4e:	85b2                	mv	a1,a2
   13f50:	8522                	mv	a0,s0
   13f52:	edaff0ef          	jal	ra,1362c <emul>
   13f56:	0c011783          	lh	a5,192(sp)
   13f5a:	34fd                	addiw	s1,s1,-1
   13f5c:	fe07d7e3          	bgez	a5,13f4a <_ldtoa_r+0x15c>
   13f60:	0a00                	addi	s0,sp,272
   13f62:	12810a93          	addi	s5,sp,296
   13f66:	8722                	mv	a4,s0
   13f68:	191c                	addi	a5,sp,176
   13f6a:	01d0                	addi	a2,sp,196
   13f6c:	0007d683          	lhu	a3,0(a5) # 8000 <register_fini-0x80e8>
   13f70:	0789                	addi	a5,a5,2
   13f72:	0709                	addi	a4,a4,2
   13f74:	fed71f23          	sh	a3,-2(a4)
   13f78:	fec79ae3          	bne	a5,a2,13f6c <_ldtoa_r+0x17e>
   13f7c:	4681                	li	a3,0
   13f7e:	099c                	addi	a5,sp,208
   13f80:	875a                	mv	a4,s6
   13f82:	a019                	j	13f88 <_ldtoa_r+0x19a>
   13f84:	00075683          	lhu	a3,0(a4)
   13f88:	0789                	addi	a5,a5,2
   13f8a:	fed79f23          	sh	a3,-2(a5)
   13f8e:	0709                	addi	a4,a4,2
   13f90:	ffb79ae3          	bne	a5,s11,13f84 <_ldtoa_r+0x196>
   13f94:	030b8c93          	addi	s9,s7,48
   13f98:	138b8d93          	addi	s11,s7,312
   13f9c:	7d7d                	lui	s10,0xfffff
   13f9e:	120b8b93          	addi	s7,s7,288
   13fa2:	a019                	j	13fa8 <_ldtoa_r+0x1ba>
   13fa4:	0dd1                	addi	s11,s11,20
   13fa6:	0cd1                	addi	s9,s9,20
   13fa8:	85a2                	mv	a1,s0
   13faa:	855a                	mv	a0,s6
   13fac:	e89fe0ef          	jal	ra,12e34 <ecmp>
   13fb0:	87aa                	mv	a5,a0
   13fb2:	85a2                	mv	a1,s0
   13fb4:	856e                	mv	a0,s11
   13fb6:	02f05d63          	blez	a5,13ff0 <_ldtoa_r+0x202>
   13fba:	e7bfe0ef          	jal	ra,12e34 <ecmp>
   13fbe:	87aa                	mv	a5,a0
   13fc0:	86ca                	mv	a3,s2
   13fc2:	8622                	mv	a2,s0
   13fc4:	85a2                	mv	a1,s0
   13fc6:	8566                	mv	a0,s9
   13fc8:	0007cc63          	bltz	a5,13fe0 <_ldtoa_r+0x1f2>
   13fcc:	e60ff0ef          	jal	ra,1362c <emul>
   13fd0:	0990                	addi	a2,sp,208
   13fd2:	86ca                	mv	a3,s2
   13fd4:	85b2                	mv	a1,a2
   13fd6:	8566                	mv	a0,s9
   13fd8:	e54ff0ef          	jal	ra,1362c <emul>
   13fdc:	009d04bb          	addw	s1,s10,s1
   13fe0:	01fd579b          	srliw	a5,s10,0x1f
   13fe4:	01a78d3b          	addw	s10,a5,s10
   13fe8:	401d5d1b          	sraiw	s10,s10,0x1
   13fec:	fb7c9ce3          	bne	s9,s7,13fa4 <_ldtoa_r+0x1b6>
   13ff0:	0990                	addi	a2,sp,208
   13ff2:	86ca                	mv	a3,s2
   13ff4:	85da                	mv	a1,s6
   13ff6:	8532                	mv	a0,a2
   13ff8:	941ff0ef          	jal	ra,13938 <ediv>
   13ffc:	17010c93          	addi	s9,sp,368
   14000:	a01d                	j	14026 <_ldtoa_r+0x238>
   14002:	191c                	addi	a5,sp,176
   14004:	0c210693          	addi	a3,sp,194
   14008:	0007d703          	lhu	a4,0(a5)
   1400c:	0789                	addi	a5,a5,2
   1400e:	f00719e3          	bnez	a4,13f20 <_ldtoa_r+0x132>
   14012:	fef69be3          	bne	a3,a5,14008 <_ldtoa_r+0x21a>
   14016:	4481                	li	s1,0
   14018:	17010c93          	addi	s9,sp,368
   1401c:	1b010913          	addi	s2,sp,432
   14020:	0a00                	addi	s0,sp,272
   14022:	12810a93          	addi	s5,sp,296
   14026:	85a2                	mv	a1,s0
   14028:	0988                	addi	a0,sp,208
   1402a:	d55fe0ef          	jal	ra,12d7e <emovi>
   1402e:	0998                	addi	a4,sp,208
   14030:	87a2                	mv	a5,s0
   14032:	0007d683          	lhu	a3,0(a5)
   14036:	0789                	addi	a5,a5,2
   14038:	0709                	addi	a4,a4,2
   1403a:	fed71f23          	sh	a3,-2(a4)
   1403e:	ff579ae3          	bne	a5,s5,14032 <_ldtoa_r+0x244>
   14042:	85a2                	mv	a1,s0
   14044:	1908                	addi	a0,sp,176
   14046:	0e011423          	sh	zero,232(sp)
   1404a:	d35fe0ef          	jal	ra,12d7e <emovi>
   1404e:	191c                	addi	a5,sp,176
   14050:	00045703          	lhu	a4,0(s0)
   14054:	0409                	addi	s0,s0,2
   14056:	0789                	addi	a5,a5,2
   14058:	fee79f23          	sh	a4,-2(a5)
   1405c:	ff541ae3          	bne	s0,s5,14050 <_ldtoa_r+0x262>
   14060:	864a                	mv	a2,s2
   14062:	190c                	addi	a1,sp,176
   14064:	0988                	addi	a0,sp,208
   14066:	0c011423          	sh	zero,200(sp)
   1406a:	c4cff0ef          	jal	ra,134b6 <eiremain>
   1406e:	1fc15b03          	lhu	s6,508(sp)
   14072:	160b1663          	bnez	s6,141de <_ldtoa_r+0x3f0>
   14076:	0c810d13          	addi	s10,sp,200
   1407a:	0b210413          	addi	s0,sp,178
   1407e:	0f210b93          	addi	s7,sp,242
   14082:	348a0593          	addi	a1,s4,840
   14086:	1908                	addi	a0,sp,176
   14088:	dadfe0ef          	jal	ra,12e34 <ecmp>
   1408c:	14050963          	beqz	a0,141de <_ldtoa_r+0x3f0>
   14090:	4701                	li	a4,0
   14092:	86ea                	mv	a3,s10
   14094:	a811                	j	140a8 <_ldtoa_r+0x2ba>
   14096:	0017171b          	slliw	a4,a4,0x1
   1409a:	00f69023          	sh	a5,0(a3) # 4000 <register_fini-0xc0e8>
   1409e:	1742                	slli	a4,a4,0x30
   140a0:	16f9                	addi	a3,a3,-2
   140a2:	9341                	srli	a4,a4,0x30
   140a4:	04868063          	beq	a3,s0,140e4 <_ldtoa_r+0x2f6>
   140a8:	0006d783          	lhu	a5,0(a3)
   140ac:	0107961b          	slliw	a2,a5,0x10
   140b0:	4106561b          	sraiw	a2,a2,0x10
   140b4:	02061593          	slli	a1,a2,0x20
   140b8:	0017979b          	slliw	a5,a5,0x1
   140bc:	0005d463          	bgez	a1,140c4 <_ldtoa_r+0x2d6>
   140c0:	00176713          	ori	a4,a4,1
   140c4:	17c2                	slli	a5,a5,0x30
   140c6:	93c1                	srli	a5,a5,0x30
   140c8:	00277613          	andi	a2,a4,2
   140cc:	0017e593          	ori	a1,a5,1
   140d0:	d279                	beqz	a2,14096 <_ldtoa_r+0x2a8>
   140d2:	0017171b          	slliw	a4,a4,0x1
   140d6:	00b69023          	sh	a1,0(a3)
   140da:	1742                	slli	a4,a4,0x30
   140dc:	16f9                	addi	a3,a3,-2
   140de:	9341                	srli	a4,a4,0x30
   140e0:	fc8694e3          	bne	a3,s0,140a8 <_ldtoa_r+0x2ba>
   140e4:	1998                	addi	a4,sp,240
   140e6:	191c                	addi	a5,sp,176
   140e8:	0007d683          	lhu	a3,0(a5)
   140ec:	0789                	addi	a5,a5,2
   140ee:	0709                	addi	a4,a4,2
   140f0:	fed71f23          	sh	a3,-2(a4)
   140f4:	ffa79ae3          	bne	a5,s10,140e8 <_ldtoa_r+0x2fa>
   140f8:	10011423          	sh	zero,264(sp)
   140fc:	4701                	li	a4,0
   140fe:	0234                	addi	a3,sp,264
   14100:	a811                	j	14114 <_ldtoa_r+0x326>
   14102:	0017171b          	slliw	a4,a4,0x1
   14106:	00f69023          	sh	a5,0(a3)
   1410a:	1742                	slli	a4,a4,0x30
   1410c:	16f9                	addi	a3,a3,-2
   1410e:	9341                	srli	a4,a4,0x30
   14110:	05768063          	beq	a3,s7,14150 <_ldtoa_r+0x362>
   14114:	0006d783          	lhu	a5,0(a3)
   14118:	0107961b          	slliw	a2,a5,0x10
   1411c:	4106561b          	sraiw	a2,a2,0x10
   14120:	02061593          	slli	a1,a2,0x20
   14124:	0017979b          	slliw	a5,a5,0x1
   14128:	0005d463          	bgez	a1,14130 <_ldtoa_r+0x342>
   1412c:	00176713          	ori	a4,a4,1
   14130:	17c2                	slli	a5,a5,0x30
   14132:	93c1                	srli	a5,a5,0x30
   14134:	00277613          	andi	a2,a4,2
   14138:	0017e593          	ori	a1,a5,1
   1413c:	d279                	beqz	a2,14102 <_ldtoa_r+0x314>
   1413e:	0017171b          	slliw	a4,a4,0x1
   14142:	00b69023          	sh	a1,0(a3)
   14146:	1742                	slli	a4,a4,0x30
   14148:	16f9                	addi	a3,a3,-2
   1414a:	9341                	srli	a4,a4,0x30
   1414c:	fd7694e3          	bne	a3,s7,14114 <_ldtoa_r+0x326>
   14150:	4701                	li	a4,0
   14152:	0234                	addi	a3,sp,264
   14154:	a811                	j	14168 <_ldtoa_r+0x37a>
   14156:	0017171b          	slliw	a4,a4,0x1
   1415a:	00f69023          	sh	a5,0(a3)
   1415e:	1742                	slli	a4,a4,0x30
   14160:	16f9                	addi	a3,a3,-2
   14162:	9341                	srli	a4,a4,0x30
   14164:	05768063          	beq	a3,s7,141a4 <_ldtoa_r+0x3b6>
   14168:	0006d783          	lhu	a5,0(a3)
   1416c:	0107961b          	slliw	a2,a5,0x10
   14170:	4106561b          	sraiw	a2,a2,0x10
   14174:	02061593          	slli	a1,a2,0x20
   14178:	0017979b          	slliw	a5,a5,0x1
   1417c:	0005d463          	bgez	a1,14184 <_ldtoa_r+0x396>
   14180:	00176713          	ori	a4,a4,1
   14184:	17c2                	slli	a5,a5,0x30
   14186:	93c1                	srli	a5,a5,0x30
   14188:	00277613          	andi	a2,a4,2
   1418c:	0017e593          	ori	a1,a5,1
   14190:	d279                	beqz	a2,14156 <_ldtoa_r+0x368>
   14192:	0017171b          	slliw	a4,a4,0x1
   14196:	00b69023          	sh	a1,0(a3)
   1419a:	1742                	slli	a4,a4,0x30
   1419c:	16f9                	addi	a3,a3,-2
   1419e:	9341                	srli	a4,a4,0x30
   141a0:	fd7694e3          	bne	a3,s7,14168 <_ldtoa_r+0x37a>
   141a4:	4601                	li	a2,0
   141a6:	86ea                	mv	a3,s10
   141a8:	0238                	addi	a4,sp,264
   141aa:	0006d583          	lhu	a1,0(a3)
   141ae:	00075783          	lhu	a5,0(a4)
   141b2:	16f9                	addi	a3,a3,-2
   141b4:	1779                	addi	a4,a4,-2
   141b6:	97ae                	add	a5,a5,a1
   141b8:	97b2                	add	a5,a5,a2
   141ba:	0107d613          	srli	a2,a5,0x10
   141be:	00f69123          	sh	a5,2(a3)
   141c2:	8a05                	andi	a2,a2,1
   141c4:	ff7713e3          	bne	a4,s7,141aa <_ldtoa_r+0x3bc>
   141c8:	864a                	mv	a2,s2
   141ca:	190c                	addi	a1,sp,176
   141cc:	0988                	addi	a0,sp,208
   141ce:	ae8ff0ef          	jal	ra,134b6 <eiremain>
   141d2:	1fc15783          	lhu	a5,508(sp)
   141d6:	34fd                	addiw	s1,s1,-1
   141d8:	ea0785e3          	beqz	a5,14082 <_ldtoa_r+0x294>
   141dc:	8b3e                	mv	s6,a5
   141de:	7722                	ld	a4,40(sp)
   141e0:	02d00793          	li	a5,45
   141e4:	e319                	bnez	a4,141ea <_ldtoa_r+0x3fc>
   141e6:	02000793          	li	a5,32
   141ea:	66a2                	ld	a3,8(sp)
   141ec:	16f10823          	sb	a5,368(sp)
   141f0:	470d                	li	a4,3
   141f2:	67c2                	ld	a5,16(sp)
   141f4:	00e69363          	bne	a3,a4,141fa <_ldtoa_r+0x40c>
   141f8:	9fa5                	addw	a5,a5,s1
   141fa:	02a00713          	li	a4,42
   141fe:	0007841b          	sext.w	s0,a5
   14202:	00f75463          	bge	a4,a5,1420a <_ldtoa_r+0x41c>
   14206:	02a00413          	li	s0,42
   1420a:	4729                	li	a4,10
   1420c:	3eeb0163          	beq	s6,a4,145ee <_ldtoa_r+0x800>
   14210:	030b0b1b          	addiw	s6,s6,48
   14214:	02e00713          	li	a4,46
   14218:	176108a3          	sb	s6,369(sp)
   1421c:	16e10923          	sb	a4,370(sp)
   14220:	7807cb63          	bltz	a5,149b6 <_ldtoa_r+0xbc8>
   14224:	17310b13          	addi	s6,sp,371
   14228:	4a81                	li	s5,0
   1422a:	0f010d13          	addi	s10,sp,240
   1422e:	0c810d93          	addi	s11,sp,200
   14232:	0b210c13          	addi	s8,sp,178
   14236:	0f210b93          	addi	s7,sp,242
   1423a:	4601                	li	a2,0
   1423c:	85ee                	mv	a1,s11
   1423e:	a811                	j	14252 <_ldtoa_r+0x464>
   14240:	0016161b          	slliw	a2,a2,0x1
   14244:	00f59023          	sh	a5,0(a1)
   14248:	1642                	slli	a2,a2,0x30
   1424a:	15f9                	addi	a1,a1,-2
   1424c:	9241                	srli	a2,a2,0x30
   1424e:	05858063          	beq	a1,s8,1428e <_ldtoa_r+0x4a0>
   14252:	0005d783          	lhu	a5,0(a1)
   14256:	0107951b          	slliw	a0,a5,0x10
   1425a:	4105551b          	sraiw	a0,a0,0x10
   1425e:	02051713          	slli	a4,a0,0x20
   14262:	0017979b          	slliw	a5,a5,0x1
   14266:	00075463          	bgez	a4,1426e <_ldtoa_r+0x480>
   1426a:	00166613          	ori	a2,a2,1
   1426e:	17c2                	slli	a5,a5,0x30
   14270:	93c1                	srli	a5,a5,0x30
   14272:	00267513          	andi	a0,a2,2
   14276:	0017e813          	ori	a6,a5,1
   1427a:	d179                	beqz	a0,14240 <_ldtoa_r+0x452>
   1427c:	0016161b          	slliw	a2,a2,0x1
   14280:	01059023          	sh	a6,0(a1)
   14284:	1642                	slli	a2,a2,0x30
   14286:	15f9                	addi	a1,a1,-2
   14288:	9241                	srli	a2,a2,0x30
   1428a:	fd8594e3          	bne	a1,s8,14252 <_ldtoa_r+0x464>
   1428e:	866a                	mv	a2,s10
   14290:	191c                	addi	a5,sp,176
   14292:	0007d583          	lhu	a1,0(a5)
   14296:	0789                	addi	a5,a5,2
   14298:	0609                	addi	a2,a2,2
   1429a:	feb61f23          	sh	a1,-2(a2) # 7ffe <register_fini-0x80ea>
   1429e:	ffb79ae3          	bne	a5,s11,14292 <_ldtoa_r+0x4a4>
   142a2:	10011423          	sh	zero,264(sp)
   142a6:	4601                	li	a2,0
   142a8:	022c                	addi	a1,sp,264
   142aa:	a811                	j	142be <_ldtoa_r+0x4d0>
   142ac:	0016161b          	slliw	a2,a2,0x1
   142b0:	00f59023          	sh	a5,0(a1)
   142b4:	1642                	slli	a2,a2,0x30
   142b6:	15f9                	addi	a1,a1,-2
   142b8:	9241                	srli	a2,a2,0x30
   142ba:	05758063          	beq	a1,s7,142fa <_ldtoa_r+0x50c>
   142be:	0005d783          	lhu	a5,0(a1)
   142c2:	0107951b          	slliw	a0,a5,0x10
   142c6:	4105551b          	sraiw	a0,a0,0x10
   142ca:	02051713          	slli	a4,a0,0x20
   142ce:	0017979b          	slliw	a5,a5,0x1
   142d2:	00075463          	bgez	a4,142da <_ldtoa_r+0x4ec>
   142d6:	00166613          	ori	a2,a2,1
   142da:	17c2                	slli	a5,a5,0x30
   142dc:	93c1                	srli	a5,a5,0x30
   142de:	00267513          	andi	a0,a2,2
   142e2:	0017e813          	ori	a6,a5,1
   142e6:	d179                	beqz	a0,142ac <_ldtoa_r+0x4be>
   142e8:	0016161b          	slliw	a2,a2,0x1
   142ec:	01059023          	sh	a6,0(a1)
   142f0:	1642                	slli	a2,a2,0x30
   142f2:	15f9                	addi	a1,a1,-2
   142f4:	9241                	srli	a2,a2,0x30
   142f6:	fd7594e3          	bne	a1,s7,142be <_ldtoa_r+0x4d0>
   142fa:	4601                	li	a2,0
   142fc:	022c                	addi	a1,sp,264
   142fe:	a811                	j	14312 <_ldtoa_r+0x524>
   14300:	0016161b          	slliw	a2,a2,0x1
   14304:	00f59023          	sh	a5,0(a1)
   14308:	1642                	slli	a2,a2,0x30
   1430a:	15f9                	addi	a1,a1,-2
   1430c:	9241                	srli	a2,a2,0x30
   1430e:	05758063          	beq	a1,s7,1434e <_ldtoa_r+0x560>
   14312:	0005d783          	lhu	a5,0(a1)
   14316:	0107951b          	slliw	a0,a5,0x10
   1431a:	4105551b          	sraiw	a0,a0,0x10
   1431e:	02051713          	slli	a4,a0,0x20
   14322:	0017979b          	slliw	a5,a5,0x1
   14326:	00075463          	bgez	a4,1432e <_ldtoa_r+0x540>
   1432a:	00166613          	ori	a2,a2,1
   1432e:	17c2                	slli	a5,a5,0x30
   14330:	93c1                	srli	a5,a5,0x30
   14332:	00267513          	andi	a0,a2,2
   14336:	0017e813          	ori	a6,a5,1
   1433a:	d179                	beqz	a0,14300 <_ldtoa_r+0x512>
   1433c:	0016161b          	slliw	a2,a2,0x1
   14340:	01059023          	sh	a6,0(a1)
   14344:	1642                	slli	a2,a2,0x30
   14346:	15f9                	addi	a1,a1,-2
   14348:	9241                	srli	a2,a2,0x30
   1434a:	fd7594e3          	bne	a1,s7,14312 <_ldtoa_r+0x524>
   1434e:	4501                	li	a0,0
   14350:	85ee                	mv	a1,s11
   14352:	0230                	addi	a2,sp,264
   14354:	0005d803          	lhu	a6,0(a1)
   14358:	00065783          	lhu	a5,0(a2)
   1435c:	15f9                	addi	a1,a1,-2
   1435e:	1679                	addi	a2,a2,-2
   14360:	97c2                	add	a5,a5,a6
   14362:	97aa                	add	a5,a5,a0
   14364:	0107d513          	srli	a0,a5,0x10
   14368:	00f59123          	sh	a5,2(a1)
   1436c:	8905                	andi	a0,a0,1
   1436e:	ff7613e3          	bne	a2,s7,14354 <_ldtoa_r+0x566>
   14372:	864a                	mv	a2,s2
   14374:	190c                	addi	a1,sp,176
   14376:	0988                	addi	a0,sp,208
   14378:	93eff0ef          	jal	ra,134b6 <eiremain>
   1437c:	1fc15783          	lhu	a5,508(sp)
   14380:	015b0633          	add	a2,s6,s5
   14384:	0a85                	addi	s5,s5,1
   14386:	0307859b          	addiw	a1,a5,48
   1438a:	00b60023          	sb	a1,0(a2)
   1438e:	000a861b          	sext.w	a2,s5
   14392:	eac454e3          	bge	s0,a2,1423a <_ldtoa_r+0x44c>
   14396:	fff44513          	not	a0,s0
   1439a:	957d                	srai	a0,a0,0x3f
   1439c:	8d61                	and	a0,a0,s0
   1439e:	2501                	sext.w	a0,a0
   143a0:	00150913          	addi	s2,a0,1
   143a4:	995a                	add	s2,s2,s6
   143a6:	9b2a                	add	s6,s6,a0
   143a8:	4711                	li	a4,4
   143aa:	04f75c63          	bge	a4,a5,14402 <_ldtoa_r+0x614>
   143ae:	4715                	li	a4,5
   143b0:	62e78463          	beq	a5,a4,149d8 <_ldtoa_r+0xbea>
   143b4:	ffe94783          	lbu	a5,-2(s2)
   143b8:	ffe90713          	addi	a4,s2,-2
   143bc:	07f7f693          	andi	a3,a5,127
   143c0:	87b6                	mv	a5,a3
   143c2:	5c044463          	bltz	s0,1498a <_ldtoa_r+0xb9c>
   143c6:	02e00613          	li	a2,46
   143ca:	03800593          	li	a1,56
   143ce:	03000513          	li	a0,48
   143d2:	00c68d63          	beq	a3,a2,143ec <_ldtoa_r+0x5fe>
   143d6:	5cf5d063          	bge	a1,a5,14996 <_ldtoa_r+0xba8>
   143da:	fff74783          	lbu	a5,-1(a4)
   143de:	00a70023          	sb	a0,0(a4)
   143e2:	177d                	addi	a4,a4,-1
   143e4:	07f7f693          	andi	a3,a5,127
   143e8:	87b6                	mv	a5,a3
   143ea:	b7e5                	j	143d2 <_ldtoa_r+0x5e4>
   143ec:	fff74783          	lbu	a5,-1(a4)
   143f0:	03800693          	li	a3,56
   143f4:	62f6f363          	bgeu	a3,a5,14a1a <_ldtoa_r+0xc2c>
   143f8:	03100793          	li	a5,49
   143fc:	2485                	addiw	s1,s1,1
   143fe:	fef70fa3          	sb	a5,-1(a4)
   14402:	65f1                	lui	a1,0x1c
   14404:	8626                	mv	a2,s1
   14406:	34058593          	addi	a1,a1,832 # 1c340 <zeroes.4521+0x78>
   1440a:	855a                	mv	a0,s6
   1440c:	561010ef          	jal	ra,1616c <sprintf>
   14410:	0a215783          	lhu	a5,162(sp)
   14414:	7742                	ld	a4,48(sp)
   14416:	1c912023          	sw	s1,448(sp)
   1441a:	fff7c793          	not	a5,a5
   1441e:	1ae12a23          	sw	a4,436(sp)
   14422:	03179713          	slli	a4,a5,0x31
   14426:	eb19                	bnez	a4,1443c <_ldtoa_r+0x64e>
   14428:	0908                	addi	a0,sp,144
   1442a:	ad3fe0ef          	jal	ra,12efc <eisinf.part.0>
   1442e:	1a051a63          	bnez	a0,145e2 <_ldtoa_r+0x7f4>
   14432:	0908                	addi	a0,sp,144
   14434:	8d9fe0ef          	jal	ra,12d0c <eisnan.part.0>
   14438:	1a051563          	bnez	a0,145e2 <_ldtoa_r+0x7f4>
   1443c:	7682                	ld	a3,32(sp)
   1443e:	17014703          	lbu	a4,368(sp)
   14442:	0014879b          	addiw	a5,s1,1
   14446:	c29c                	sw	a5,0(a3)
   14448:	87e6                	mv	a5,s9
   1444a:	c70d                	beqz	a4,14474 <_ldtoa_r+0x686>
   1444c:	02e00693          	li	a3,46
   14450:	16d70e63          	beq	a4,a3,145cc <_ldtoa_r+0x7de>
   14454:	0017c703          	lbu	a4,1(a5)
   14458:	0785                	addi	a5,a5,1
   1445a:	fb7d                	bnez	a4,14450 <_ldtoa_r+0x662>
   1445c:	04500693          	li	a3,69
   14460:	00fce563          	bltu	s9,a5,1446a <_ldtoa_r+0x67c>
   14464:	a801                	j	14474 <_ldtoa_r+0x686>
   14466:	01978763          	beq	a5,s9,14474 <_ldtoa_r+0x686>
   1446a:	fff7c703          	lbu	a4,-1(a5)
   1446e:	17fd                	addi	a5,a5,-1
   14470:	fed71be3          	bne	a4,a3,14466 <_ldtoa_r+0x678>
   14474:	00078023          	sb	zero,0(a5)
   14478:	87e6                	mv	a5,s9
   1447a:	02000693          	li	a3,32
   1447e:	02d00613          	li	a2,45
   14482:	0007c703          	lbu	a4,0(a5)
   14486:	00d70463          	beq	a4,a3,1448e <_ldtoa_r+0x6a0>
   1448a:	00c71463          	bne	a4,a2,14492 <_ldtoa_r+0x6a4>
   1448e:	0785                	addi	a5,a5,1
   14490:	bfcd                	j	14482 <_ldtoa_r+0x694>
   14492:	8466                	mv	s0,s9
   14494:	a021                	j	1449c <_ldtoa_r+0x6ae>
   14496:	0007c703          	lbu	a4,0(a5)
   1449a:	8436                	mv	s0,a3
   1449c:	00e40023          	sb	a4,0(s0)
   144a0:	00140693          	addi	a3,s0,1
   144a4:	0785                	addi	a5,a5,1
   144a6:	fb65                	bnez	a4,14496 <_ldtoa_r+0x6a8>
   144a8:	66a2                	ld	a3,8(sp)
   144aa:	4789                	li	a5,2
   144ac:	fff44703          	lbu	a4,-1(s0)
   144b0:	0ef68863          	beq	a3,a5,145a0 <_ldtoa_r+0x7b2>
   144b4:	67c2                	ld	a5,16(sp)
   144b6:	0007869b          	sext.w	a3,a5
   144ba:	0097d463          	bge	a5,s1,144c2 <_ldtoa_r+0x6d4>
   144be:	0004869b          	sext.w	a3,s1
   144c2:	03000793          	li	a5,48
   144c6:	02f71463          	bne	a4,a5,144ee <_ldtoa_r+0x700>
   144ca:	419407b3          	sub	a5,s0,s9
   144ce:	02f6d063          	bge	a3,a5,144ee <_ldtoa_r+0x700>
   144d2:	03000613          	li	a2,48
   144d6:	a019                	j	144dc <_ldtoa_r+0x6ee>
   144d8:	00e6db63          	bge	a3,a4,144ee <_ldtoa_r+0x700>
   144dc:	ffe44783          	lbu	a5,-2(s0)
   144e0:	fe040fa3          	sb	zero,-1(s0)
   144e4:	147d                	addi	s0,s0,-1
   144e6:	41940733          	sub	a4,s0,s9
   144ea:	fec787e3          	beq	a5,a2,144d8 <_ldtoa_r+0x6ea>
   144ee:	6722                	ld	a4,8(sp)
   144f0:	478d                	li	a5,3
   144f2:	08f70463          	beq	a4,a5,1457a <_ldtoa_r+0x78c>
   144f6:	67e2                	ld	a5,24(sp)
   144f8:	0609a423          	sw	zero,104(s3)
   144fc:	0097871b          	addiw	a4,a5,9
   14500:	47fd                	li	a5,31
   14502:	08e7fd63          	bgeu	a5,a4,1459c <_ldtoa_r+0x7ae>
   14506:	4685                	li	a3,1
   14508:	4791                	li	a5,4
   1450a:	0017979b          	slliw	a5,a5,0x1
   1450e:	01c78613          	addi	a2,a5,28
   14512:	0006859b          	sext.w	a1,a3
   14516:	2685                	addiw	a3,a3,1
   14518:	fec779e3          	bgeu	a4,a2,1450a <_ldtoa_r+0x71c>
   1451c:	06b9a423          	sw	a1,104(s3)
   14520:	854e                	mv	a0,s3
   14522:	7e3000ef          	jal	ra,15504 <_Balloc>
   14526:	06a9b023          	sd	a0,96(s3)
   1452a:	85e6                	mv	a1,s9
   1452c:	84aa                	mv	s1,a0
   1452e:	64d010ef          	jal	ra,1637a <strcpy>
   14532:	77e2                	ld	a5,56(sp)
   14534:	c789                	beqz	a5,1453e <_ldtoa_r+0x750>
   14536:	41940433          	sub	s0,s0,s9
   1453a:	9426                	add	s0,s0,s1
   1453c:	e380                	sd	s0,0(a5)
   1453e:	26813083          	ld	ra,616(sp)
   14542:	26013403          	ld	s0,608(sp)
   14546:	25013903          	ld	s2,592(sp)
   1454a:	24813983          	ld	s3,584(sp)
   1454e:	24013a03          	ld	s4,576(sp)
   14552:	23813a83          	ld	s5,568(sp)
   14556:	23013b03          	ld	s6,560(sp)
   1455a:	22813b83          	ld	s7,552(sp)
   1455e:	22013c03          	ld	s8,544(sp)
   14562:	21813c83          	ld	s9,536(sp)
   14566:	21013d03          	ld	s10,528(sp)
   1456a:	20813d83          	ld	s11,520(sp)
   1456e:	8526                	mv	a0,s1
   14570:	25813483          	ld	s1,600(sp)
   14574:	27010113          	addi	sp,sp,624
   14578:	8082                	ret
   1457a:	67c2                	ld	a5,16(sp)
   1457c:	9cbd                	addw	s1,s1,a5
   1457e:	3c04c563          	bltz	s1,14948 <_ldtoa_r+0xb5a>
   14582:	7782                	ld	a5,32(sp)
   14584:	6762                	ld	a4,24(sp)
   14586:	439c                	lw	a5,0(a5)
   14588:	9fb9                	addw	a5,a5,a4
   1458a:	ec3e                	sd	a5,24(sp)
   1458c:	67e2                	ld	a5,24(sp)
   1458e:	0609a423          	sw	zero,104(s3)
   14592:	0037871b          	addiw	a4,a5,3
   14596:	47fd                	li	a5,31
   14598:	f6e7e7e3          	bltu	a5,a4,14506 <_ldtoa_r+0x718>
   1459c:	4581                	li	a1,0
   1459e:	b749                	j	14520 <_ldtoa_r+0x732>
   145a0:	03000793          	li	a5,48
   145a4:	f4f719e3          	bne	a4,a5,144f6 <_ldtoa_r+0x708>
   145a8:	419407b3          	sub	a5,s0,s9
   145ac:	4685                	li	a3,1
   145ae:	f2f6c2e3          	blt	a3,a5,144d2 <_ldtoa_r+0x6e4>
   145b2:	b791                	j	144f6 <_ldtoa_r+0x708>
   145b4:	67e2                	ld	a5,24(sp)
   145b6:	02a00713          	li	a4,42
   145ba:	8c3e                	mv	s8,a5
   145bc:	00f75463          	bge	a4,a5,145c4 <_ldtoa_r+0x7d6>
   145c0:	02a00c13          	li	s8,42
   145c4:	000c079b          	sext.w	a5,s8
   145c8:	e83e                	sd	a5,16(sp)
   145ca:	b875                	j	13e86 <_ldtoa_r+0x98>
   145cc:	0007c703          	lbu	a4,0(a5)
   145d0:	e80706e3          	beqz	a4,1445c <_ldtoa_r+0x66e>
   145d4:	0017c703          	lbu	a4,1(a5)
   145d8:	0785                	addi	a5,a5,1
   145da:	fee78fa3          	sb	a4,-1(a5)
   145de:	fb7d                	bnez	a4,145d4 <_ldtoa_r+0x7e6>
   145e0:	bdb5                	j	1445c <_ldtoa_r+0x66e>
   145e2:	7702                	ld	a4,32(sp)
   145e4:	6789                	lui	a5,0x2
   145e6:	70f78793          	addi	a5,a5,1807 # 270f <register_fini-0xd9d9>
   145ea:	c31c                	sw	a5,0(a4)
   145ec:	b571                	j	14478 <_ldtoa_r+0x68a>
   145ee:	03100713          	li	a4,49
   145f2:	16e108a3          	sb	a4,369(sp)
   145f6:	02e00713          	li	a4,46
   145fa:	16e10923          	sb	a4,370(sp)
   145fe:	2485                	addiw	s1,s1,1
   14600:	1ef05963          	blez	a5,147f2 <_ldtoa_r+0xa04>
   14604:	03000793          	li	a5,48
   14608:	16f109a3          	sb	a5,371(sp)
   1460c:	347d                	addiw	s0,s0,-1
   1460e:	17410b13          	addi	s6,sp,372
   14612:	b919                	j	14228 <_ldtoa_r+0x43a>
   14614:	0f010d13          	addi	s10,sp,240
   14618:	876a                	mv	a4,s10
   1461a:	191c                	addi	a5,sp,176
   1461c:	01d0                	addi	a2,sp,196
   1461e:	0007d683          	lhu	a3,0(a5)
   14622:	0789                	addi	a5,a5,2
   14624:	0709                	addi	a4,a4,2
   14626:	fed71f23          	sh	a3,-2(a4)
   1462a:	fec79ae3          	bne	a5,a2,1461e <_ldtoa_r+0x830>
   1462e:	6791                	lui	a5,0x4
   14630:	08e78793          	addi	a5,a5,142 # 408e <register_fini-0xc05a>
   14634:	10f11123          	sh	a5,258(sp)
   14638:	67a1                	lui	a5,0x8
   1463a:	17fd                	addi	a5,a5,-1
   1463c:	e4be                	sd	a5,72(sp)
   1463e:	77f1                	lui	a5,0xffffc
   14640:	2789                	addiw	a5,a5,2
   14642:	4e41                	li	t3,16
   14644:	4481                	li	s1,0
   14646:	0d0b8a93          	addi	s5,s7,208
   1464a:	17010c93          	addi	s9,sp,368
   1464e:	1b010913          	addi	s2,sp,432
   14652:	0a00                	addi	s0,sp,272
   14654:	0e210c13          	addi	s8,sp,226
   14658:	cabe                	sw	a5,84(sp)
   1465a:	86ca                	mv	a3,s2
   1465c:	0990                	addi	a2,sp,208
   1465e:	85ea                	mv	a1,s10
   14660:	8556                	mv	a0,s5
   14662:	e0f2                	sd	t3,64(sp)
   14664:	ad4ff0ef          	jal	ra,13938 <ediv>
   14668:	6e06                	ld	t3,64(sp)
   1466a:	18b8                	addi	a4,sp,120
   1466c:	099c                	addi	a5,sp,208
   1466e:	0007d683          	lhu	a3,0(a5) # ffffffffffffc000 <__BSS_END__+0xfffffffffffdd010>
   14672:	0789                	addi	a5,a5,2
   14674:	0709                	addi	a4,a4,2
   14676:	fed71f23          	sh	a3,-2(a4)
   1467a:	ffb79ae3          	bne	a5,s11,1466e <_ldtoa_r+0x880>
   1467e:	67a6                	ld	a5,72(sp)
   14680:	08a15503          	lhu	a0,138(sp)
   14684:	00f575b3          	and	a1,a0,a5
   14688:	47d6                	lw	a5,84(sp)
   1468a:	9fad                	addw	a5,a5,a1
   1468c:	8f3e                	mv	t5,a5
   1468e:	2cf05463          	blez	a5,14956 <_ldtoa_r+0xb68>
   14692:	09000e93          	li	t4,144
   14696:	40fe85bb          	subw	a1,t4,a5
   1469a:	8eae                	mv	t4,a1
   1469c:	8722                	mv	a4,s0
   1469e:	18bc                	addi	a5,sp,120
   146a0:	0170                	addi	a2,sp,140
   146a2:	0007d683          	lhu	a3,0(a5)
   146a6:	0789                	addi	a5,a5,2
   146a8:	0709                	addi	a4,a4,2
   146aa:	fed71f23          	sh	a3,-2(a4)
   146ae:	fec79ae3          	bne	a5,a2,146a2 <_ldtoa_r+0x8b4>
   146b2:	04b05d63          	blez	a1,1470c <_ldtoa_r+0x91e>
   146b6:	47bd                	li	a5,15
   146b8:	8722                	mv	a4,s0
   146ba:	02b7d863          	bge	a5,a1,146ea <_ldtoa_r+0x8fc>
   146be:	3ec1                	addiw	t4,t4,-16
   146c0:	004ed71b          	srliw	a4,t4,0x4
   146c4:	0705                	addi	a4,a4,1
   146c6:	0706                	slli	a4,a4,0x1
   146c8:	004ede9b          	srliw	t4,t4,0x4
   146cc:	9722                	add	a4,a4,s0
   146ce:	87a2                	mv	a5,s0
   146d0:	0789                	addi	a5,a5,2
   146d2:	fe079f23          	sh	zero,-2(a5)
   146d6:	fef71de3          	bne	a4,a5,146d0 <_ldtoa_r+0x8e2>
   146da:	08000593          	li	a1,128
   146de:	41e585bb          	subw	a1,a1,t5
   146e2:	004e9e9b          	slliw	t4,t4,0x4
   146e6:	41d585bb          	subw	a1,a1,t4
   146ea:	0586                	slli	a1,a1,0x1
   146ec:	95de                	add	a1,a1,s7
   146ee:	00075783          	lhu	a5,0(a4)
   146f2:	2405d683          	lhu	a3,576(a1)
   146f6:	8ff5                	and	a5,a5,a3
   146f8:	00f71023          	sh	a5,0(a4)
   146fc:	0105151b          	slliw	a0,a0,0x10
   14700:	4105551b          	sraiw	a0,a0,0x10
   14704:	02051793          	slli	a5,a0,0x20
   14708:	0e07ca63          	bltz	a5,147fc <_ldtoa_r+0xa0e>
   1470c:	099c                	addi	a5,sp,208
   1470e:	8722                	mv	a4,s0
   14710:	0007d603          	lhu	a2,0(a5)
   14714:	00075683          	lhu	a3,0(a4)
   14718:	0789                	addi	a5,a5,2
   1471a:	0709                	addi	a4,a4,2
   1471c:	02d61063          	bne	a2,a3,1473c <_ldtoa_r+0x94e>
   14720:	fefc18e3          	bne	s8,a5,14710 <_ldtoa_r+0x922>
   14724:	876a                	mv	a4,s10
   14726:	099c                	addi	a5,sp,208
   14728:	0007d683          	lhu	a3,0(a5)
   1472c:	0789                	addi	a5,a5,2
   1472e:	0709                	addi	a4,a4,2
   14730:	fed71f23          	sh	a3,-2(a4)
   14734:	ffb79ae3          	bne	a5,s11,14728 <_ldtoa_r+0x93a>
   14738:	009e04bb          	addw	s1,t3,s1
   1473c:	0ad1                	addi	s5,s5,20
   1473e:	134b8793          	addi	a5,s7,308
   14742:	001e5e13          	srli	t3,t3,0x1
   14746:	f0fa9ae3          	bne	s5,a5,1465a <_ldtoa_r+0x86c>
   1474a:	10215783          	lhu	a5,258(sp)
   1474e:	0c215703          	lhu	a4,194(sp)
   14752:	0250                	addi	a2,sp,260
   14754:	9fb9                	addw	a5,a5,a4
   14756:	7771                	lui	a4,0xffffc
   14758:	f727071b          	addiw	a4,a4,-142
   1475c:	9fb9                	addw	a5,a5,a4
   1475e:	10f11123          	sh	a5,258(sp)
   14762:	1918                	addi	a4,sp,176
   14764:	87ea                	mv	a5,s10
   14766:	0007d683          	lhu	a3,0(a5)
   1476a:	0789                	addi	a5,a5,2
   1476c:	0709                	addi	a4,a4,2
   1476e:	fed71f23          	sh	a3,-2(a4) # ffffffffffffbffe <__BSS_END__+0xfffffffffffdd00e>
   14772:	fec79ae3          	bne	a5,a2,14766 <_ldtoa_r+0x978>
   14776:	4701                	li	a4,0
   14778:	099c                	addi	a5,sp,208
   1477a:	a019                	j	14780 <_ldtoa_r+0x992>
   1477c:	000b5703          	lhu	a4,0(s6)
   14780:	0789                	addi	a5,a5,2
   14782:	fee79f23          	sh	a4,-2(a5)
   14786:	0b09                	addi	s6,s6,2
   14788:	ffb79ae3          	bne	a5,s11,1477c <_ldtoa_r+0x98e>
   1478c:	030b8d93          	addi	s11,s7,48
   14790:	6b05                	lui	s6,0x1
   14792:	120b8b93          	addi	s7,s7,288
   14796:	a031                	j	147a2 <_ldtoa_r+0x9b4>
   14798:	001b5b13          	srli	s6,s6,0x1
   1479c:	1f7d8363          	beq	s11,s7,14982 <_ldtoa_r+0xb94>
   147a0:	0dd1                	addi	s11,s11,20
   147a2:	85ea                	mv	a1,s10
   147a4:	855e                	mv	a0,s7
   147a6:	e8efe0ef          	jal	ra,12e34 <ecmp>
   147aa:	87aa                	mv	a5,a0
   147ac:	85ea                	mv	a1,s10
   147ae:	856e                	mv	a0,s11
   147b0:	1cf04963          	bgtz	a5,14982 <_ldtoa_r+0xb94>
   147b4:	e80fe0ef          	jal	ra,12e34 <ecmp>
   147b8:	fea040e3          	bgtz	a0,14798 <_ldtoa_r+0x9aa>
   147bc:	86ca                	mv	a3,s2
   147be:	866a                	mv	a2,s10
   147c0:	85ea                	mv	a1,s10
   147c2:	856e                	mv	a0,s11
   147c4:	974ff0ef          	jal	ra,13938 <ediv>
   147c8:	0990                	addi	a2,sp,208
   147ca:	86ca                	mv	a3,s2
   147cc:	85b2                	mv	a1,a2
   147ce:	856e                	mv	a0,s11
   147d0:	e5dfe0ef          	jal	ra,1362c <emul>
   147d4:	009b04bb          	addw	s1,s6,s1
   147d8:	b7c1                	j	14798 <_ldtoa_r+0x9aa>
   147da:	17010c93          	addi	s9,sp,368
   147de:	65f1                	lui	a1,0x1c
   147e0:	31058593          	addi	a1,a1,784 # 1c310 <zeroes.4521+0x48>
   147e4:	8566                	mv	a0,s9
   147e6:	6489                	lui	s1,0x2
   147e8:	185010ef          	jal	ra,1616c <sprintf>
   147ec:	70f48493          	addi	s1,s1,1807 # 270f <register_fini-0xd9d9>
   147f0:	b105                	j	14410 <_ldtoa_r+0x622>
   147f2:	17310b13          	addi	s6,sp,371
   147f6:	c00796e3          	bnez	a5,14402 <_ldtoa_r+0x614>
   147fa:	b43d                	j	14228 <_ldtoa_r+0x43a>
   147fc:	18bc                	addi	a5,sp,120
   147fe:	8722                	mv	a4,s0
   14800:	a029                	j	1480a <_ldtoa_r+0xa1c>
   14802:	08a10693          	addi	a3,sp,138
   14806:	f0f683e3          	beq	a3,a5,1470c <_ldtoa_r+0x91e>
   1480a:	0007d603          	lhu	a2,0(a5)
   1480e:	00075683          	lhu	a3,0(a4)
   14812:	0789                	addi	a5,a5,2
   14814:	0709                	addi	a4,a4,2
   14816:	fed606e3          	beq	a2,a3,14802 <_ldtoa_r+0xa14>
   1481a:	12215783          	lhu	a5,290(sp)
   1481e:	6726                	ld	a4,72(sp)
   14820:	8ff9                	and	a5,a5,a4
   14822:	00e79f63          	bne	a5,a4,14840 <_ldtoa_r+0xa52>
   14826:	8522                	mv	a0,s0
   14828:	e0f2                	sd	t3,64(sp)
   1482a:	ce2fe0ef          	jal	ra,12d0c <eisnan.part.0>
   1482e:	6e06                	ld	t3,64(sp)
   14830:	ec051ee3          	bnez	a0,1470c <_ldtoa_r+0x91e>
   14834:	8522                	mv	a0,s0
   14836:	ec6fe0ef          	jal	ra,12efc <eisinf.part.0>
   1483a:	6e06                	ld	t3,64(sp)
   1483c:	ec0518e3          	bnez	a0,1470c <_ldtoa_r+0x91e>
   14840:	1a0c                	addi	a1,sp,304
   14842:	855a                	mv	a0,s6
   14844:	e0f2                	sd	t3,64(sp)
   14846:	d38fe0ef          	jal	ra,12d7e <emovi>
   1484a:	0a8c                	addi	a1,sp,336
   1484c:	8522                	mv	a0,s0
   1484e:	d30fe0ef          	jal	ra,12d7e <emovi>
   14852:	13015603          	lhu	a2,304(sp)
   14856:	15215503          	lhu	a0,338(sp)
   1485a:	13215e83          	lhu	t4,306(sp)
   1485e:	fff64613          	not	a2,a2
   14862:	1642                	slli	a2,a2,0x30
   14864:	9241                	srli	a2,a2,0x30
   14866:	12c11823          	sh	a2,304(sp)
   1486a:	40ae85b3          	sub	a1,t4,a0
   1486e:	6e06                	ld	t3,64(sp)
   14870:	86aa                	mv	a3,a0
   14872:	04b05e63          	blez	a1,148ce <_ldtoa_r+0xae0>
   14876:	86e6                	mv	a3,s9
   14878:	0a98                	addi	a4,sp,336
   1487a:	12bc                	addi	a5,sp,360
   1487c:	00075583          	lhu	a1,0(a4)
   14880:	0709                	addi	a4,a4,2
   14882:	0689                	addi	a3,a3,2
   14884:	feb69f23          	sh	a1,-2(a3)
   14888:	fef71ae3          	bne	a4,a5,1487c <_ldtoa_r+0xa8e>
   1488c:	18011423          	sh	zero,392(sp)
   14890:	0a98                	addi	a4,sp,336
   14892:	1a14                	addi	a3,sp,304
   14894:	a019                	j	1489a <_ldtoa_r+0xaac>
   14896:	0006d603          	lhu	a2,0(a3)
   1489a:	0709                	addi	a4,a4,2
   1489c:	fec71f23          	sh	a2,-2(a4)
   148a0:	0689                	addi	a3,a3,2
   148a2:	fef71ae3          	bne	a4,a5,14896 <_ldtoa_r+0xaa8>
   148a6:	16011423          	sh	zero,360(sp)
   148aa:	1a18                	addi	a4,sp,304
   148ac:	87e6                	mv	a5,s9
   148ae:	0330                	addi	a2,sp,392
   148b0:	0007d683          	lhu	a3,0(a5)
   148b4:	0789                	addi	a5,a5,2
   148b6:	0709                	addi	a4,a4,2
   148b8:	fed71f23          	sh	a3,-2(a4)
   148bc:	fec79ae3          	bne	a5,a2,148b0 <_ldtoa_r+0xac2>
   148c0:	15215683          	lhu	a3,338(sp)
   148c4:	41d505b3          	sub	a1,a0,t4
   148c8:	14011423          	sh	zero,328(sp)
   148cc:	8536                	mv	a0,a3
   148ce:	22058363          	beqz	a1,14af4 <_ldtoa_r+0xd06>
   148d2:	ecb6                	sd	a3,88(sp)
   148d4:	f6f00793          	li	a5,-145
   148d8:	04f5ce63          	blt	a1,a5,14934 <_ldtoa_r+0xb46>
   148dc:	2581                	sext.w	a1,a1
   148de:	1a08                	addi	a0,sp,304
   148e0:	e0f2                	sd	t3,64(sp)
   148e2:	e2cfe0ef          	jal	ra,12f0e <eshift.part.0>
   148e6:	6e06                	ld	t3,64(sp)
   148e8:	66e6                	ld	a3,88(sp)
   148ea:	85aa                	mv	a1,a0
   148ec:	12bc                	addi	a5,sp,360
   148ee:	02a8                	addi	a0,sp,328
   148f0:	13015603          	lhu	a2,304(sp)
   148f4:	15015703          	lhu	a4,336(sp)
   148f8:	24e60063          	beq	a2,a4,14b38 <_ldtoa_r+0xd4a>
   148fc:	4601                	li	a2,0
   148fe:	0007d703          	lhu	a4,0(a5)
   14902:	00055e83          	lhu	t4,0(a0)
   14906:	17f9                	addi	a5,a5,-2
   14908:	8f11                	sub	a4,a4,a2
   1490a:	41d70733          	sub	a4,a4,t4
   1490e:	01075613          	srli	a2,a4,0x10
   14912:	00e79123          	sh	a4,2(a5)
   14916:	15210713          	addi	a4,sp,338
   1491a:	8a05                	andi	a2,a2,1
   1491c:	1579                	addi	a0,a0,-2
   1491e:	fee790e3          	bne	a5,a4,148fe <_ldtoa_r+0xb10>
   14922:	4605                	li	a2,1
   14924:	87ca                	mv	a5,s2
   14926:	04000713          	li	a4,64
   1492a:	0a88                	addi	a0,sp,336
   1492c:	e0f2                	sd	t3,64(sp)
   1492e:	883fe0ef          	jal	ra,131b0 <emdnorm>
   14932:	6e06                	ld	t3,64(sp)
   14934:	85a2                	mv	a1,s0
   14936:	0a88                	addi	a0,sp,336
   14938:	e0f2                	sd	t3,64(sp)
   1493a:	c71fe0ef          	jal	ra,135aa <emovo.isra.0>
   1493e:	6e06                	ld	t3,64(sp)
   14940:	b3f1                	j	1470c <_ldtoa_r+0x91e>
   14942:	67e2                	ld	a5,24(sp)
   14944:	37fd                	addiw	a5,a5,-1
   14946:	b985                	j	145b6 <_ldtoa_r+0x7c8>
   14948:	7782                	ld	a5,32(sp)
   1494a:	16010823          	sb	zero,368(sp)
   1494e:	8466                	mv	s0,s9
   14950:	0007a023          	sw	zero,0(a5)
   14954:	b925                	j	1458c <_ldtoa_r+0x79e>
   14956:	87a2                	mv	a5,s0
   14958:	1258                	addi	a4,sp,292
   1495a:	0789                	addi	a5,a5,2
   1495c:	fe079f23          	sh	zero,-2(a5)
   14960:	fee79de3          	bne	a5,a4,1495a <_ldtoa_r+0xb6c>
   14964:	bb61                	j	146fc <_ldtoa_r+0x90e>
   14966:	77a2                	ld	a5,40(sp)
   14968:	17010c93          	addi	s9,sp,368
   1496c:	cfa1                	beqz	a5,149c4 <_ldtoa_r+0xbd6>
   1496e:	65f1                	lui	a1,0x1c
   14970:	31858593          	addi	a1,a1,792 # 1c318 <zeroes.4521+0x50>
   14974:	8566                	mv	a0,s9
   14976:	6489                	lui	s1,0x2
   14978:	7f4010ef          	jal	ra,1616c <sprintf>
   1497c:	70f48493          	addi	s1,s1,1807 # 270f <register_fini-0xd9d9>
   14980:	bc41                	j	14410 <_ldtoa_r+0x622>
   14982:	12810a93          	addi	s5,sp,296
   14986:	ea0ff06f          	j	14026 <_ldtoa_r+0x238>
   1498a:	03100793          	li	a5,49
   1498e:	fef90f23          	sb	a5,-2(s2)
   14992:	2485                	addiw	s1,s1,1
   14994:	b4bd                	j	14402 <_ldtoa_r+0x614>
   14996:	2685                	addiw	a3,a3,1
   14998:	00d70023          	sb	a3,0(a4)
   1499c:	b49d                	j	14402 <_ldtoa_r+0x614>
   1499e:	17010c93          	addi	s9,sp,368
   149a2:	65f1                	lui	a1,0x1c
   149a4:	33858593          	addi	a1,a1,824 # 1c338 <zeroes.4521+0x70>
   149a8:	8566                	mv	a0,s9
   149aa:	6489                	lui	s1,0x2
   149ac:	7c0010ef          	jal	ra,1616c <sprintf>
   149b0:	70f48493          	addi	s1,s1,1807 # 270f <register_fini-0xd9d9>
   149b4:	bcb1                	j	14410 <_ldtoa_r+0x622>
   149b6:	1fc15783          	lhu	a5,508(sp)
   149ba:	17210b13          	addi	s6,sp,370
   149be:	17310913          	addi	s2,sp,371
   149c2:	b2dd                	j	143a8 <_ldtoa_r+0x5ba>
   149c4:	65f1                	lui	a1,0x1c
   149c6:	32858593          	addi	a1,a1,808 # 1c328 <zeroes.4521+0x60>
   149ca:	8566                	mv	a0,s9
   149cc:	6489                	lui	s1,0x2
   149ce:	79e010ef          	jal	ra,1616c <sprintf>
   149d2:	70f48493          	addi	s1,s1,1807 # 270f <register_fini-0xd9d9>
   149d6:	bc2d                	j	14410 <_ldtoa_r+0x622>
   149d8:	098c                	addi	a1,sp,208
   149da:	1908                	addi	a0,sp,176
   149dc:	bcffe0ef          	jal	ra,135aa <emovo.isra.0>
   149e0:	348a0593          	addi	a1,s4,840
   149e4:	0988                	addi	a0,sp,208
   149e6:	c4efe0ef          	jal	ra,12e34 <ecmp>
   149ea:	9c0515e3          	bnez	a0,143b4 <_ldtoa_r+0x5c6>
   149ee:	a0044ae3          	bltz	s0,14402 <_ldtoa_r+0x614>
   149f2:	ffe94783          	lbu	a5,-2(s2)
   149f6:	fd278713          	addi	a4,a5,-46
   149fa:	00173713          	seqz	a4,a4
   149fe:	fff74713          	not	a4,a4
   14a02:	975a                	add	a4,a4,s6
   14a04:	00074703          	lbu	a4,0(a4)
   14a08:	8b05                	andi	a4,a4,1
   14a0a:	9e070ce3          	beqz	a4,14402 <_ldtoa_r+0x614>
   14a0e:	07f7f693          	andi	a3,a5,127
   14a12:	ffe90713          	addi	a4,s2,-2
   14a16:	87b6                	mv	a5,a3
   14a18:	b27d                	j	143c6 <_ldtoa_r+0x5d8>
   14a1a:	2785                	addiw	a5,a5,1
   14a1c:	fef70fa3          	sb	a5,-1(a4)
   14a20:	b2cd                	j	14402 <_ldtoa_r+0x614>
   14a22:	0a00                	addi	s0,sp,272
   14a24:	85a2                	mv	a1,s0
   14a26:	1908                	addi	a0,sp,176
   14a28:	6d11                	lui	s10,0x4
   14a2a:	b54fe0ef          	jal	ra,12d7e <emovi>
   14a2e:	4481                	li	s1,0
   14a30:	12810a93          	addi	s5,sp,296
   14a34:	10810913          	addi	s2,sp,264
   14a38:	11210c93          	addi	s9,sp,274
   14a3c:	1d79                	addi	s10,s10,-2
   14a3e:	fd500c13          	li	s8,-43
   14a42:	12815783          	lhu	a5,296(sp)
   14a46:	8b9d                	andi	a5,a5,7
   14a48:	efd1                	bnez	a5,14ae4 <_ldtoa_r+0xcf6>
   14a4a:	1998                	addi	a4,sp,240
   14a4c:	87a2                	mv	a5,s0
   14a4e:	0007d683          	lhu	a3,0(a5)
   14a52:	0789                	addi	a5,a5,2
   14a54:	0709                	addi	a4,a4,2
   14a56:	fed71f23          	sh	a3,-2(a4)
   14a5a:	ff579ae3          	bne	a5,s5,14a4e <_ldtoa_r+0xc60>
   14a5e:	1988                	addi	a0,sp,240
   14a60:	10011423          	sh	zero,264(sp)
   14a64:	98efe0ef          	jal	ra,12bf2 <eshdn1>
   14a68:	1988                	addi	a0,sp,240
   14a6a:	988fe0ef          	jal	ra,12bf2 <eshdn1>
   14a6e:	4601                	li	a2,0
   14a70:	86ca                	mv	a3,s2
   14a72:	8756                	mv	a4,s5
   14a74:	0006d583          	lhu	a1,0(a3)
   14a78:	00075783          	lhu	a5,0(a4)
   14a7c:	16f9                	addi	a3,a3,-2
   14a7e:	1779                	addi	a4,a4,-2
   14a80:	97ae                	add	a5,a5,a1
   14a82:	97b2                	add	a5,a5,a2
   14a84:	0107d613          	srli	a2,a5,0x10
   14a88:	00f69123          	sh	a5,2(a3)
   14a8c:	8a05                	andi	a2,a2,1
   14a8e:	ff9713e3          	bne	a4,s9,14a74 <_ldtoa_r+0xc86>
   14a92:	0f215783          	lhu	a5,242(sp)
   14a96:	0f415703          	lhu	a4,244(sp)
   14a9a:	278d                	addiw	a5,a5,3
   14a9c:	0ef11923          	sh	a5,242(sp)
   14aa0:	cf01                	beqz	a4,14ab8 <_ldtoa_r+0xcca>
   14aa2:	1988                	addi	a0,sp,240
   14aa4:	94efe0ef          	jal	ra,12bf2 <eshdn1>
   14aa8:	0f215783          	lhu	a5,242(sp)
   14aac:	0f415703          	lhu	a4,244(sp)
   14ab0:	2785                	addiw	a5,a5,1
   14ab2:	0ef11923          	sh	a5,242(sp)
   14ab6:	f775                	bnez	a4,14aa2 <_ldtoa_r+0xcb4>
   14ab8:	10815783          	lhu	a5,264(sp)
   14abc:	e785                	bnez	a5,14ae4 <_ldtoa_r+0xcf6>
   14abe:	0f215783          	lhu	a5,242(sp)
   14ac2:	02fd6163          	bltu	s10,a5,14ae4 <_ldtoa_r+0xcf6>
   14ac6:	8722                	mv	a4,s0
   14ac8:	199c                	addi	a5,sp,240
   14aca:	0007d683          	lhu	a3,0(a5)
   14ace:	0789                	addi	a5,a5,2
   14ad0:	0709                	addi	a4,a4,2
   14ad2:	fed71f23          	sh	a3,-2(a4)
   14ad6:	ff279ae3          	bne	a5,s2,14aca <_ldtoa_r+0xcdc>
   14ada:	12011423          	sh	zero,296(sp)
   14ade:	34fd                	addiw	s1,s1,-1
   14ae0:	f78491e3          	bne	s1,s8,14a42 <_ldtoa_r+0xc54>
   14ae4:	190c                	addi	a1,sp,176
   14ae6:	8522                	mv	a0,s0
   14ae8:	ac3fe0ef          	jal	ra,135aa <emovo.isra.0>
   14aec:	1b010913          	addi	s2,sp,432
   14af0:	c76ff06f          	j	13f66 <_ldtoa_r+0x178>
   14af4:	0ad8                	addi	a4,sp,340
   14af6:	1a5c                	addi	a5,sp,308
   14af8:	0007d583          	lhu	a1,0(a5)
   14afc:	00075603          	lhu	a2,0(a4)
   14b00:	0789                	addi	a5,a5,2
   14b02:	0709                	addi	a4,a4,2
   14b04:	02c59463          	bne	a1,a2,14b2c <_ldtoa_r+0xd3e>
   14b08:	14a10613          	addi	a2,sp,330
   14b0c:	fec796e3          	bne	a5,a2,14af8 <_ldtoa_r+0xd0a>
   14b10:	13015703          	lhu	a4,304(sp)
   14b14:	15015783          	lhu	a5,336(sp)
   14b18:	04f70663          	beq	a4,a5,14b64 <_ldtoa_r+0xd76>
   14b1c:	87a2                	mv	a5,s0
   14b1e:	1258                	addi	a4,sp,292
   14b20:	0789                	addi	a5,a5,2
   14b22:	fe079f23          	sh	zero,-2(a5)
   14b26:	fee79de3          	bne	a5,a4,14b20 <_ldtoa_r+0xd32>
   14b2a:	b6cd                	j	1470c <_ldtoa_r+0x91e>
   14b2c:	0ab66063          	bltu	a2,a1,14bcc <_ldtoa_r+0xdde>
   14b30:	4581                	li	a1,0
   14b32:	12bc                	addi	a5,sp,360
   14b34:	02a8                	addi	a0,sp,328
   14b36:	bb6d                	j	148f0 <_ldtoa_r+0xb02>
   14b38:	4e81                	li	t4,0
   14b3a:	862a                	mv	a2,a0
   14b3c:	13210f13          	addi	t5,sp,306
   14b40:	0007d503          	lhu	a0,0(a5)
   14b44:	00065703          	lhu	a4,0(a2)
   14b48:	17f9                	addi	a5,a5,-2
   14b4a:	1679                	addi	a2,a2,-2
   14b4c:	972a                	add	a4,a4,a0
   14b4e:	9776                	add	a4,a4,t4
   14b50:	01075e93          	srli	t4,a4,0x10
   14b54:	00e79123          	sh	a4,2(a5)
   14b58:	001efe93          	andi	t4,t4,1
   14b5c:	ffe612e3          	bne	a2,t5,14b40 <_ldtoa_r+0xd52>
   14b60:	4601                	li	a2,0
   14b62:	b3c9                	j	14924 <_ldtoa_r+0xb36>
   14b64:	8736                	mv	a4,a3
   14b66:	eab1                	bnez	a3,14bba <_ldtoa_r+0xdcc>
   14b68:	15611783          	lh	a5,342(sp)
   14b6c:	0407c763          	bltz	a5,14bba <_ldtoa_r+0xdcc>
   14b70:	12b4                	addi	a3,sp,360
   14b72:	a821                	j	14b8a <_ldtoa_r+0xd9c>
   14b74:	00f69023          	sh	a5,0(a3)
   14b78:	0017171b          	slliw	a4,a4,0x1
   14b7c:	1742                	slli	a4,a4,0x30
   14b7e:	16f9                	addi	a3,a3,-2
   14b80:	15210793          	addi	a5,sp,338
   14b84:	9341                	srli	a4,a4,0x30
   14b86:	daf687e3          	beq	a3,a5,14934 <_ldtoa_r+0xb46>
   14b8a:	0006d783          	lhu	a5,0(a3)
   14b8e:	0107961b          	slliw	a2,a5,0x10
   14b92:	4106561b          	sraiw	a2,a2,0x10
   14b96:	02061593          	slli	a1,a2,0x20
   14b9a:	0017979b          	slliw	a5,a5,0x1
   14b9e:	0005d463          	bgez	a1,14ba6 <_ldtoa_r+0xdb8>
   14ba2:	00176713          	ori	a4,a4,1
   14ba6:	17c2                	slli	a5,a5,0x30
   14ba8:	93c1                	srli	a5,a5,0x30
   14baa:	00277613          	andi	a2,a4,2
   14bae:	0017e593          	ori	a1,a5,1
   14bb2:	d269                	beqz	a2,14b74 <_ldtoa_r+0xd86>
   14bb4:	00b69023          	sh	a1,0(a3)
   14bb8:	b7c1                	j	14b78 <_ldtoa_r+0xd8a>
   14bba:	0ad0                	addi	a2,sp,340
   14bbc:	12bc                	addi	a5,sp,360
   14bbe:	e325                	bnez	a4,14c1e <_ldtoa_r+0xe30>
   14bc0:	06c78163          	beq	a5,a2,14c22 <_ldtoa_r+0xe34>
   14bc4:	00065703          	lhu	a4,0(a2)
   14bc8:	0609                	addi	a2,a2,2
   14bca:	bfd5                	j	14bbe <_ldtoa_r+0xdd0>
   14bcc:	8666                	mv	a2,s9
   14bce:	0a98                	addi	a4,sp,336
   14bd0:	12bc                	addi	a5,sp,360
   14bd2:	00075583          	lhu	a1,0(a4)
   14bd6:	0709                	addi	a4,a4,2
   14bd8:	0609                	addi	a2,a2,2
   14bda:	feb61f23          	sh	a1,-2(a2)
   14bde:	fef71ae3          	bne	a4,a5,14bd2 <_ldtoa_r+0xde4>
   14be2:	18011423          	sh	zero,392(sp)
   14be6:	0a90                	addi	a2,sp,336
   14be8:	1a18                	addi	a4,sp,304
   14bea:	02a8                	addi	a0,sp,328
   14bec:	00075583          	lhu	a1,0(a4)
   14bf0:	0709                	addi	a4,a4,2
   14bf2:	0609                	addi	a2,a2,2
   14bf4:	feb61f23          	sh	a1,-2(a2)
   14bf8:	fea71ae3          	bne	a4,a0,14bec <_ldtoa_r+0xdfe>
   14bfc:	16011423          	sh	zero,360(sp)
   14c00:	1a0c                	addi	a1,sp,304
   14c02:	8766                	mv	a4,s9
   14c04:	0330                	addi	a2,sp,392
   14c06:	00075e83          	lhu	t4,0(a4)
   14c0a:	0709                	addi	a4,a4,2
   14c0c:	0589                	addi	a1,a1,2
   14c0e:	ffd59f23          	sh	t4,-2(a1)
   14c12:	fec71ae3          	bne	a4,a2,14c06 <_ldtoa_r+0xe18>
   14c16:	14011423          	sh	zero,328(sp)
   14c1a:	4581                	li	a1,0
   14c1c:	b9d1                	j	148f0 <_ldtoa_r+0xb02>
   14c1e:	00168513          	addi	a0,a3,1
   14c22:	14a11923          	sh	a0,338(sp)
   14c26:	b339                	j	14934 <_ldtoa_r+0xb46>

0000000000014c28 <_ldcheck>:
   14c28:	6118                	ld	a4,0(a0)
   14c2a:	651c                	ld	a5,8(a0)
   14c2c:	7139                	addi	sp,sp,-64
   14c2e:	850a                	mv	a0,sp
   14c30:	080c                	addi	a1,sp,16
   14c32:	e03a                	sd	a4,0(sp)
   14c34:	e43e                	sd	a5,8(sp)
   14c36:	fc06                	sd	ra,56(sp)
   14c38:	8baff0ef          	jal	ra,13cf2 <e113toe.isra.0>
   14c3c:	02215783          	lhu	a5,34(sp)
   14c40:	4501                	li	a0,0
   14c42:	fff7c793          	not	a5,a5
   14c46:	03179713          	slli	a4,a5,0x31
   14c4a:	e719                	bnez	a4,14c58 <_ldcheck+0x30>
   14c4c:	0808                	addi	a0,sp,16
   14c4e:	8befe0ef          	jal	ra,12d0c <eisnan.part.0>
   14c52:	00153513          	seqz	a0,a0
   14c56:	0505                	addi	a0,a0,1
   14c58:	70e2                	ld	ra,56(sp)
   14c5a:	6121                	addi	sp,sp,64
   14c5c:	8082                	ret

0000000000014c5e <__localeconv_l>:
   14c5e:	10050513          	addi	a0,a0,256
   14c62:	8082                	ret

0000000000014c64 <_localeconv_r>:
   14c64:	e6018513          	addi	a0,gp,-416 # 1e650 <__global_locale+0x100>
   14c68:	8082                	ret

0000000000014c6a <localeconv>:
   14c6a:	e6018513          	addi	a0,gp,-416 # 1e650 <__global_locale+0x100>
   14c6e:	8082                	ret

0000000000014c70 <_setlocale_r>:
   14c70:	1101                	addi	sp,sp,-32
   14c72:	ec06                	sd	ra,24(sp)
   14c74:	e822                	sd	s0,16(sp)
   14c76:	e426                	sd	s1,8(sp)
   14c78:	c20d                	beqz	a2,14c9a <_setlocale_r+0x2a>
   14c7a:	65f1                	lui	a1,0x1c
   14c7c:	5b858593          	addi	a1,a1,1464 # 1c5b8 <bmask+0x30>
   14c80:	8532                	mv	a0,a2
   14c82:	8432                	mv	s0,a2
   14c84:	60c010ef          	jal	ra,16290 <strcmp>
   14c88:	64f1                	lui	s1,0x1c
   14c8a:	e911                	bnez	a0,14c9e <_setlocale_r+0x2e>
   14c8c:	5b048513          	addi	a0,s1,1456 # 1c5b0 <bmask+0x28>
   14c90:	60e2                	ld	ra,24(sp)
   14c92:	6442                	ld	s0,16(sp)
   14c94:	64a2                	ld	s1,8(sp)
   14c96:	6105                	addi	sp,sp,32
   14c98:	8082                	ret
   14c9a:	64f1                	lui	s1,0x1c
   14c9c:	bfc5                	j	14c8c <_setlocale_r+0x1c>
   14c9e:	5b048593          	addi	a1,s1,1456 # 1c5b0 <bmask+0x28>
   14ca2:	8522                	mv	a0,s0
   14ca4:	5ec010ef          	jal	ra,16290 <strcmp>
   14ca8:	d175                	beqz	a0,14c8c <_setlocale_r+0x1c>
   14caa:	65f1                	lui	a1,0x1c
   14cac:	11858593          	addi	a1,a1,280 # 1c118 <__clzdi2+0x126>
   14cb0:	8522                	mv	a0,s0
   14cb2:	5de010ef          	jal	ra,16290 <strcmp>
   14cb6:	d979                	beqz	a0,14c8c <_setlocale_r+0x1c>
   14cb8:	4501                	li	a0,0
   14cba:	bfd9                	j	14c90 <_setlocale_r+0x20>

0000000000014cbc <__locale_mb_cur_max>:
   14cbc:	ec01c503          	lbu	a0,-320(gp) # 1e6b0 <__global_locale+0x160>
   14cc0:	8082                	ret

0000000000014cc2 <setlocale>:
   14cc2:	87aa                	mv	a5,a0
   14cc4:	7581b503          	ld	a0,1880(gp) # 1ef48 <_impure_ptr>
   14cc8:	862e                	mv	a2,a1
   14cca:	85be                	mv	a1,a5
   14ccc:	b755                	j	14c70 <_setlocale_r>

0000000000014cce <__swhatbuf_r>:
   14cce:	7175                	addi	sp,sp,-144
   14cd0:	e122                	sd	s0,128(sp)
   14cd2:	842e                	mv	s0,a1
   14cd4:	01259583          	lh	a1,18(a1)
   14cd8:	fca6                	sd	s1,120(sp)
   14cda:	f8ca                	sd	s2,112(sp)
   14cdc:	e506                	sd	ra,136(sp)
   14cde:	84b2                	mv	s1,a2
   14ce0:	8936                	mv	s2,a3
   14ce2:	0205cc63          	bltz	a1,14d1a <__swhatbuf_r+0x4c>
   14ce6:	0030                	addi	a2,sp,8
   14ce8:	430040ef          	jal	ra,19118 <_fstat_r>
   14cec:	02054763          	bltz	a0,14d1a <__swhatbuf_r+0x4c>
   14cf0:	47b2                	lw	a5,12(sp)
   14cf2:	673d                	lui	a4,0xf
   14cf4:	60aa                	ld	ra,136(sp)
   14cf6:	8ff9                	and	a5,a5,a4
   14cf8:	6709                	lui	a4,0x2
   14cfa:	8f99                	sub	a5,a5,a4
   14cfc:	640a                	ld	s0,128(sp)
   14cfe:	0017b793          	seqz	a5,a5
   14d02:	00f92023          	sw	a5,0(s2)
   14d06:	40000793          	li	a5,1024
   14d0a:	e09c                	sd	a5,0(s1)
   14d0c:	6505                	lui	a0,0x1
   14d0e:	74e6                	ld	s1,120(sp)
   14d10:	7946                	ld	s2,112(sp)
   14d12:	80050513          	addi	a0,a0,-2048 # 800 <register_fini-0xf8e8>
   14d16:	6149                	addi	sp,sp,144
   14d18:	8082                	ret
   14d1a:	01045783          	lhu	a5,16(s0)
   14d1e:	00092023          	sw	zero,0(s2)
   14d22:	0807f793          	andi	a5,a5,128
   14d26:	cb99                	beqz	a5,14d3c <__swhatbuf_r+0x6e>
   14d28:	60aa                	ld	ra,136(sp)
   14d2a:	640a                	ld	s0,128(sp)
   14d2c:	04000793          	li	a5,64
   14d30:	e09c                	sd	a5,0(s1)
   14d32:	7946                	ld	s2,112(sp)
   14d34:	74e6                	ld	s1,120(sp)
   14d36:	4501                	li	a0,0
   14d38:	6149                	addi	sp,sp,144
   14d3a:	8082                	ret
   14d3c:	60aa                	ld	ra,136(sp)
   14d3e:	640a                	ld	s0,128(sp)
   14d40:	40000793          	li	a5,1024
   14d44:	e09c                	sd	a5,0(s1)
   14d46:	7946                	ld	s2,112(sp)
   14d48:	74e6                	ld	s1,120(sp)
   14d4a:	4501                	li	a0,0
   14d4c:	6149                	addi	sp,sp,144
   14d4e:	8082                	ret

0000000000014d50 <__smakebuf_r>:
   14d50:	0105d783          	lhu	a5,16(a1)
   14d54:	7179                	addi	sp,sp,-48
   14d56:	f022                	sd	s0,32(sp)
   14d58:	f406                	sd	ra,40(sp)
   14d5a:	ec26                	sd	s1,24(sp)
   14d5c:	e84a                	sd	s2,16(sp)
   14d5e:	8b89                	andi	a5,a5,2
   14d60:	842e                	mv	s0,a1
   14d62:	cf89                	beqz	a5,14d7c <__smakebuf_r+0x2c>
   14d64:	07758793          	addi	a5,a1,119
   14d68:	e19c                	sd	a5,0(a1)
   14d6a:	ed9c                	sd	a5,24(a1)
   14d6c:	4785                	li	a5,1
   14d6e:	d19c                	sw	a5,32(a1)
   14d70:	70a2                	ld	ra,40(sp)
   14d72:	7402                	ld	s0,32(sp)
   14d74:	64e2                	ld	s1,24(sp)
   14d76:	6942                	ld	s2,16(sp)
   14d78:	6145                	addi	sp,sp,48
   14d7a:	8082                	ret
   14d7c:	0054                	addi	a3,sp,4
   14d7e:	0030                	addi	a2,sp,8
   14d80:	84aa                	mv	s1,a0
   14d82:	f4dff0ef          	jal	ra,14cce <__swhatbuf_r>
   14d86:	65a2                	ld	a1,8(sp)
   14d88:	892a                	mv	s2,a0
   14d8a:	8526                	mv	a0,s1
   14d8c:	07e000ef          	jal	ra,14e0a <_malloc_r>
   14d90:	01041783          	lh	a5,16(s0)
   14d94:	c90d                	beqz	a0,14dc6 <__smakebuf_r+0x76>
   14d96:	6749                	lui	a4,0x12
   14d98:	53c70713          	addi	a4,a4,1340 # 1253c <_cleanup_r>
   14d9c:	ecb8                	sd	a4,88(s1)
   14d9e:	6722                	ld	a4,8(sp)
   14da0:	4692                	lw	a3,4(sp)
   14da2:	0807e793          	ori	a5,a5,128
   14da6:	00f41823          	sh	a5,16(s0)
   14daa:	e008                	sd	a0,0(s0)
   14dac:	ec08                	sd	a0,24(s0)
   14dae:	d018                	sw	a4,32(s0)
   14db0:	ea95                	bnez	a3,14de4 <__smakebuf_r+0x94>
   14db2:	0127e7b3          	or	a5,a5,s2
   14db6:	70a2                	ld	ra,40(sp)
   14db8:	00f41823          	sh	a5,16(s0)
   14dbc:	7402                	ld	s0,32(sp)
   14dbe:	64e2                	ld	s1,24(sp)
   14dc0:	6942                	ld	s2,16(sp)
   14dc2:	6145                	addi	sp,sp,48
   14dc4:	8082                	ret
   14dc6:	2007f713          	andi	a4,a5,512
   14dca:	f35d                	bnez	a4,14d70 <__smakebuf_r+0x20>
   14dcc:	9bf1                	andi	a5,a5,-4
   14dce:	0027e793          	ori	a5,a5,2
   14dd2:	07740713          	addi	a4,s0,119
   14dd6:	00f41823          	sh	a5,16(s0)
   14dda:	4785                	li	a5,1
   14ddc:	e018                	sd	a4,0(s0)
   14dde:	ec18                	sd	a4,24(s0)
   14de0:	d01c                	sw	a5,32(s0)
   14de2:	b779                	j	14d70 <__smakebuf_r+0x20>
   14de4:	01241583          	lh	a1,18(s0)
   14de8:	8526                	mv	a0,s1
   14dea:	694040ef          	jal	ra,1947e <_isatty_r>
   14dee:	e501                	bnez	a0,14df6 <__smakebuf_r+0xa6>
   14df0:	01041783          	lh	a5,16(s0)
   14df4:	bf7d                	j	14db2 <__smakebuf_r+0x62>
   14df6:	01045703          	lhu	a4,16(s0)
   14dfa:	9b71                	andi	a4,a4,-4
   14dfc:	00176713          	ori	a4,a4,1
   14e00:	0107179b          	slliw	a5,a4,0x10
   14e04:	4107d79b          	sraiw	a5,a5,0x10
   14e08:	b76d                	j	14db2 <__smakebuf_r+0x62>

0000000000014e0a <_malloc_r>:
   14e0a:	711d                	addi	sp,sp,-96
   14e0c:	e4a6                	sd	s1,72(sp)
   14e0e:	e0ca                	sd	s2,64(sp)
   14e10:	ec86                	sd	ra,88(sp)
   14e12:	e8a2                	sd	s0,80(sp)
   14e14:	fc4e                	sd	s3,56(sp)
   14e16:	f852                	sd	s4,48(sp)
   14e18:	f456                	sd	s5,40(sp)
   14e1a:	f05a                	sd	s6,32(sp)
   14e1c:	ec5e                	sd	s7,24(sp)
   14e1e:	e862                	sd	s8,16(sp)
   14e20:	e466                	sd	s9,8(sp)
   14e22:	01758493          	addi	s1,a1,23
   14e26:	02e00793          	li	a5,46
   14e2a:	892a                	mv	s2,a0
   14e2c:	0497e763          	bltu	a5,s1,14e7a <_malloc_r+0x70>
   14e30:	02000793          	li	a5,32
   14e34:	1eb7e163          	bltu	a5,a1,15016 <_malloc_r+0x20c>
   14e38:	6c8000ef          	jal	ra,15500 <__malloc_lock>
   14e3c:	02000493          	li	s1,32
   14e40:	4611                	li	a2,4
   14e42:	05000793          	li	a5,80
   14e46:	69f9                	lui	s3,0x1e
   14e48:	6f898993          	addi	s3,s3,1784 # 1e6f8 <__malloc_av_>
   14e4c:	97ce                	add	a5,a5,s3
   14e4e:	6780                	ld	s0,8(a5)
   14e50:	ff078713          	addi	a4,a5,-16
   14e54:	1ee40263          	beq	s0,a4,15038 <_malloc_r+0x22e>
   14e58:	641c                	ld	a5,8(s0)
   14e5a:	6c14                	ld	a3,24(s0)
   14e5c:	6810                	ld	a2,16(s0)
   14e5e:	9bf1                	andi	a5,a5,-4
   14e60:	97a2                	add	a5,a5,s0
   14e62:	6798                	ld	a4,8(a5)
   14e64:	ee14                	sd	a3,24(a2)
   14e66:	ea90                	sd	a2,16(a3)
   14e68:	00176713          	ori	a4,a4,1
   14e6c:	854a                	mv	a0,s2
   14e6e:	e798                	sd	a4,8(a5)
   14e70:	692000ef          	jal	ra,15502 <__malloc_unlock>
   14e74:	01040513          	addi	a0,s0,16
   14e78:	a25d                	j	1501e <_malloc_r+0x214>
   14e7a:	800007b7          	lui	a5,0x80000
   14e7e:	98c1                	andi	s1,s1,-16
   14e80:	fff7c793          	not	a5,a5
   14e84:	1897e963          	bltu	a5,s1,15016 <_malloc_r+0x20c>
   14e88:	18b4e763          	bltu	s1,a1,15016 <_malloc_r+0x20c>
   14e8c:	674000ef          	jal	ra,15500 <__malloc_lock>
   14e90:	1f700793          	li	a5,503
   14e94:	3a97f063          	bgeu	a5,s1,15234 <_malloc_r+0x42a>
   14e98:	0094d793          	srli	a5,s1,0x9
   14e9c:	26078c63          	beqz	a5,15114 <_malloc_r+0x30a>
   14ea0:	4711                	li	a4,4
   14ea2:	30f76063          	bltu	a4,a5,151a2 <_malloc_r+0x398>
   14ea6:	0064d793          	srli	a5,s1,0x6
   14eaa:	0397861b          	addiw	a2,a5,57
   14eae:	0016169b          	slliw	a3,a2,0x1
   14eb2:	0387851b          	addiw	a0,a5,56
   14eb6:	068e                	slli	a3,a3,0x3
   14eb8:	69f9                	lui	s3,0x1e
   14eba:	6f898993          	addi	s3,s3,1784 # 1e6f8 <__malloc_av_>
   14ebe:	96ce                	add	a3,a3,s3
   14ec0:	6680                	ld	s0,8(a3)
   14ec2:	16c1                	addi	a3,a3,-16
   14ec4:	16868e63          	beq	a3,s0,15040 <_malloc_r+0x236>
   14ec8:	45fd                	li	a1,31
   14eca:	a031                	j	14ed6 <_malloc_r+0xcc>
   14ecc:	28075563          	bgez	a4,15156 <_malloc_r+0x34c>
   14ed0:	6c00                	ld	s0,24(s0)
   14ed2:	16868763          	beq	a3,s0,15040 <_malloc_r+0x236>
   14ed6:	641c                	ld	a5,8(s0)
   14ed8:	9bf1                	andi	a5,a5,-4
   14eda:	40978733          	sub	a4,a5,s1
   14ede:	fee5d7e3          	bge	a1,a4,14ecc <_malloc_r+0xc2>
   14ee2:	0209b403          	ld	s0,32(s3)
   14ee6:	6879                	lui	a6,0x1e
   14ee8:	70880813          	addi	a6,a6,1800 # 1e708 <__malloc_av_+0x10>
   14eec:	862a                	mv	a2,a0
   14eee:	17041063          	bne	s0,a6,1504e <_malloc_r+0x244>
   14ef2:	0089b783          	ld	a5,8(s3)
   14ef6:	4026571b          	sraiw	a4,a2,0x2
   14efa:	4585                	li	a1,1
   14efc:	00e595b3          	sll	a1,a1,a4
   14f00:	1ab7f763          	bgeu	a5,a1,150ae <_malloc_r+0x2a4>
   14f04:	0109b403          	ld	s0,16(s3)
   14f08:	00843a03          	ld	s4,8(s0)
   14f0c:	ffca7a93          	andi	s5,s4,-4
   14f10:	009ae763          	bltu	s5,s1,14f1e <_malloc_r+0x114>
   14f14:	409a87b3          	sub	a5,s5,s1
   14f18:	477d                	li	a4,31
   14f1a:	20f74f63          	blt	a4,a5,15138 <_malloc_r+0x32e>
   14f1e:	7881ba03          	ld	s4,1928(gp) # 1ef78 <__malloc_top_pad>
   14f22:	7601b703          	ld	a4,1888(gp) # 1ef50 <__malloc_sbrk_base>
   14f26:	57fd                	li	a5,-1
   14f28:	01540c33          	add	s8,s0,s5
   14f2c:	9a26                	add	s4,s4,s1
   14f2e:	3af70163          	beq	a4,a5,152d0 <_malloc_r+0x4c6>
   14f32:	6785                	lui	a5,0x1
   14f34:	07fd                	addi	a5,a5,31
   14f36:	9a3e                	add	s4,s4,a5
   14f38:	77fd                	lui	a5,0xfffff
   14f3a:	00fa7a33          	and	s4,s4,a5
   14f3e:	85d2                	mv	a1,s4
   14f40:	854a                	mv	a0,s2
   14f42:	134010ef          	jal	ra,16076 <_sbrk_r>
   14f46:	57fd                	li	a5,-1
   14f48:	8b2a                	mv	s6,a0
   14f4a:	30f50a63          	beq	a0,a5,1525e <_malloc_r+0x454>
   14f4e:	31856663          	bltu	a0,s8,1525a <_malloc_r+0x450>
   14f52:	7d018b93          	addi	s7,gp,2000 # 1efc0 <__malloc_current_mallinfo>
   14f56:	000ba703          	lw	a4,0(s7)
   14f5a:	014707bb          	addw	a5,a4,s4
   14f5e:	00fba023          	sw	a5,0(s7)
   14f62:	86be                	mv	a3,a5
   14f64:	3eac0f63          	beq	s8,a0,15362 <_malloc_r+0x558>
   14f68:	7601b703          	ld	a4,1888(gp) # 1ef50 <__malloc_sbrk_base>
   14f6c:	57fd                	li	a5,-1
   14f6e:	40f70663          	beq	a4,a5,1537a <_malloc_r+0x570>
   14f72:	418b07b3          	sub	a5,s6,s8
   14f76:	9fb5                	addw	a5,a5,a3
   14f78:	00fba023          	sw	a5,0(s7)
   14f7c:	00fb7c13          	andi	s8,s6,15
   14f80:	360c0663          	beqz	s8,152ec <_malloc_r+0x4e2>
   14f84:	6705                	lui	a4,0x1
   14f86:	418b0b33          	sub	s6,s6,s8
   14f8a:	01070793          	addi	a5,a4,16 # 1010 <register_fini-0xf0d8>
   14f8e:	0b41                	addi	s6,s6,16
   14f90:	418787b3          	sub	a5,a5,s8
   14f94:	014b0cb3          	add	s9,s6,s4
   14f98:	41978a33          	sub	s4,a5,s9
   14f9c:	177d                	addi	a4,a4,-1
   14f9e:	00ea7a33          	and	s4,s4,a4
   14fa2:	85d2                	mv	a1,s4
   14fa4:	854a                	mv	a0,s2
   14fa6:	0d0010ef          	jal	ra,16076 <_sbrk_r>
   14faa:	57fd                	li	a5,-1
   14fac:	40f50c63          	beq	a0,a5,153c4 <_malloc_r+0x5ba>
   14fb0:	41650533          	sub	a0,a0,s6
   14fb4:	000a071b          	sext.w	a4,s4
   14fb8:	9a2a                	add	s4,s4,a0
   14fba:	000ba783          	lw	a5,0(s7)
   14fbe:	0169b823          	sd	s6,16(s3)
   14fc2:	001a6a13          	ori	s4,s4,1
   14fc6:	9fb9                	addw	a5,a5,a4
   14fc8:	00fba023          	sw	a5,0(s7)
   14fcc:	014b3423          	sd	s4,8(s6) # 1008 <register_fini-0xf0e0>
   14fd0:	3b340863          	beq	s0,s3,15380 <_malloc_r+0x576>
   14fd4:	467d                	li	a2,31
   14fd6:	3b567763          	bgeu	a2,s5,15384 <_malloc_r+0x57a>
   14fda:	6414                	ld	a3,8(s0)
   14fdc:	fe8a8713          	addi	a4,s5,-24
   14fe0:	9b41                	andi	a4,a4,-16
   14fe2:	8a85                	andi	a3,a3,1
   14fe4:	8ed9                	or	a3,a3,a4
   14fe6:	e414                	sd	a3,8(s0)
   14fe8:	45a5                	li	a1,9
   14fea:	00e406b3          	add	a3,s0,a4
   14fee:	e68c                	sd	a1,8(a3)
   14ff0:	ea8c                	sd	a1,16(a3)
   14ff2:	3ee66063          	bltu	a2,a4,153d2 <_malloc_r+0x5c8>
   14ff6:	008b3a03          	ld	s4,8(s6)
   14ffa:	845a                	mv	s0,s6
   14ffc:	7801b683          	ld	a3,1920(gp) # 1ef70 <__malloc_max_sbrked_mem>
   15000:	00f6f463          	bgeu	a3,a5,15008 <_malloc_r+0x1fe>
   15004:	78f1b023          	sd	a5,1920(gp) # 1ef70 <__malloc_max_sbrked_mem>
   15008:	7781b683          	ld	a3,1912(gp) # 1ef68 <__malloc_max_total_mem>
   1500c:	24f6fd63          	bgeu	a3,a5,15266 <_malloc_r+0x45c>
   15010:	76f1bc23          	sd	a5,1912(gp) # 1ef68 <__malloc_max_total_mem>
   15014:	ac89                	j	15266 <_malloc_r+0x45c>
   15016:	47b1                	li	a5,12
   15018:	00f92023          	sw	a5,0(s2)
   1501c:	4501                	li	a0,0
   1501e:	60e6                	ld	ra,88(sp)
   15020:	6446                	ld	s0,80(sp)
   15022:	64a6                	ld	s1,72(sp)
   15024:	6906                	ld	s2,64(sp)
   15026:	79e2                	ld	s3,56(sp)
   15028:	7a42                	ld	s4,48(sp)
   1502a:	7aa2                	ld	s5,40(sp)
   1502c:	7b02                	ld	s6,32(sp)
   1502e:	6be2                	ld	s7,24(sp)
   15030:	6c42                	ld	s8,16(sp)
   15032:	6ca2                	ld	s9,8(sp)
   15034:	6125                	addi	sp,sp,96
   15036:	8082                	ret
   15038:	6f80                	ld	s0,24(a5)
   1503a:	2609                	addiw	a2,a2,2
   1503c:	e0879ee3          	bne	a5,s0,14e58 <_malloc_r+0x4e>
   15040:	0209b403          	ld	s0,32(s3)
   15044:	6879                	lui	a6,0x1e
   15046:	70880813          	addi	a6,a6,1800 # 1e708 <__malloc_av_+0x10>
   1504a:	eb0404e3          	beq	s0,a6,14ef2 <_malloc_r+0xe8>
   1504e:	641c                	ld	a5,8(s0)
   15050:	46fd                	li	a3,31
   15052:	9bf1                	andi	a5,a5,-4
   15054:	40978733          	sub	a4,a5,s1
   15058:	1ae6c763          	blt	a3,a4,15206 <_malloc_r+0x3fc>
   1505c:	0309b423          	sd	a6,40(s3)
   15060:	0309b023          	sd	a6,32(s3)
   15064:	0a075f63          	bgez	a4,15122 <_malloc_r+0x318>
   15068:	1ff00713          	li	a4,511
   1506c:	0ef76863          	bltu	a4,a5,1515c <_malloc_r+0x352>
   15070:	838d                	srli	a5,a5,0x3
   15072:	0017871b          	addiw	a4,a5,1
   15076:	0017171b          	slliw	a4,a4,0x1
   1507a:	070e                	slli	a4,a4,0x3
   1507c:	0089b503          	ld	a0,8(s3)
   15080:	974e                	add	a4,a4,s3
   15082:	630c                	ld	a1,0(a4)
   15084:	4027d69b          	sraiw	a3,a5,0x2
   15088:	4785                	li	a5,1
   1508a:	00d797b3          	sll	a5,a5,a3
   1508e:	8fc9                	or	a5,a5,a0
   15090:	ff070693          	addi	a3,a4,-16
   15094:	ec14                	sd	a3,24(s0)
   15096:	e80c                	sd	a1,16(s0)
   15098:	00f9b423          	sd	a5,8(s3)
   1509c:	e300                	sd	s0,0(a4)
   1509e:	ed80                	sd	s0,24(a1)
   150a0:	4026571b          	sraiw	a4,a2,0x2
   150a4:	4585                	li	a1,1
   150a6:	00e595b3          	sll	a1,a1,a4
   150aa:	e4b7ede3          	bltu	a5,a1,14f04 <_malloc_r+0xfa>
   150ae:	00f5f733          	and	a4,a1,a5
   150b2:	ef01                	bnez	a4,150ca <_malloc_r+0x2c0>
   150b4:	0586                	slli	a1,a1,0x1
   150b6:	9a71                	andi	a2,a2,-4
   150b8:	00f5f733          	and	a4,a1,a5
   150bc:	2611                	addiw	a2,a2,4
   150be:	e711                	bnez	a4,150ca <_malloc_r+0x2c0>
   150c0:	0586                	slli	a1,a1,0x1
   150c2:	00f5f733          	and	a4,a1,a5
   150c6:	2611                	addiw	a2,a2,4
   150c8:	df65                	beqz	a4,150c0 <_malloc_r+0x2b6>
   150ca:	48fd                	li	a7,31
   150cc:	0016031b          	addiw	t1,a2,1
   150d0:	0013131b          	slliw	t1,t1,0x1
   150d4:	030e                	slli	t1,t1,0x3
   150d6:	1341                	addi	t1,t1,-16
   150d8:	934e                	add	t1,t1,s3
   150da:	851a                	mv	a0,t1
   150dc:	6d1c                	ld	a5,24(a0)
   150de:	8e32                	mv	t3,a2
   150e0:	0ef50263          	beq	a0,a5,151c4 <_malloc_r+0x3ba>
   150e4:	6798                	ld	a4,8(a5)
   150e6:	843e                	mv	s0,a5
   150e8:	6f9c                	ld	a5,24(a5)
   150ea:	9b71                	andi	a4,a4,-4
   150ec:	409706b3          	sub	a3,a4,s1
   150f0:	0ed8c163          	blt	a7,a3,151d2 <_malloc_r+0x3c8>
   150f4:	fe06c6e3          	bltz	a3,150e0 <_malloc_r+0x2d6>
   150f8:	9722                	add	a4,a4,s0
   150fa:	6714                	ld	a3,8(a4)
   150fc:	6810                	ld	a2,16(s0)
   150fe:	854a                	mv	a0,s2
   15100:	0016e693          	ori	a3,a3,1
   15104:	e714                	sd	a3,8(a4)
   15106:	ee1c                	sd	a5,24(a2)
   15108:	eb90                	sd	a2,16(a5)
   1510a:	3f8000ef          	jal	ra,15502 <__malloc_unlock>
   1510e:	01040513          	addi	a0,s0,16
   15112:	b731                	j	1501e <_malloc_r+0x214>
   15114:	40000693          	li	a3,1024
   15118:	04000613          	li	a2,64
   1511c:	03f00513          	li	a0,63
   15120:	bb61                	j	14eb8 <_malloc_r+0xae>
   15122:	97a2                	add	a5,a5,s0
   15124:	6798                	ld	a4,8(a5)
   15126:	854a                	mv	a0,s2
   15128:	00176713          	ori	a4,a4,1
   1512c:	e798                	sd	a4,8(a5)
   1512e:	3d4000ef          	jal	ra,15502 <__malloc_unlock>
   15132:	01040513          	addi	a0,s0,16
   15136:	b5e5                	j	1501e <_malloc_r+0x214>
   15138:	0014e713          	ori	a4,s1,1
   1513c:	e418                	sd	a4,8(s0)
   1513e:	94a2                	add	s1,s1,s0
   15140:	0099b823          	sd	s1,16(s3)
   15144:	0017e793          	ori	a5,a5,1
   15148:	854a                	mv	a0,s2
   1514a:	e49c                	sd	a5,8(s1)
   1514c:	3b6000ef          	jal	ra,15502 <__malloc_unlock>
   15150:	01040513          	addi	a0,s0,16
   15154:	b5e9                	j	1501e <_malloc_r+0x214>
   15156:	6c14                	ld	a3,24(s0)
   15158:	6810                	ld	a2,16(s0)
   1515a:	b319                	j	14e60 <_malloc_r+0x56>
   1515c:	0097d713          	srli	a4,a5,0x9
   15160:	4691                	li	a3,4
   15162:	0ee6f263          	bgeu	a3,a4,15246 <_malloc_r+0x43c>
   15166:	46d1                	li	a3,20
   15168:	1ae6e863          	bltu	a3,a4,15318 <_malloc_r+0x50e>
   1516c:	05c7059b          	addiw	a1,a4,92
   15170:	0015959b          	slliw	a1,a1,0x1
   15174:	05b7069b          	addiw	a3,a4,91
   15178:	058e                	slli	a1,a1,0x3
   1517a:	95ce                	add	a1,a1,s3
   1517c:	6198                	ld	a4,0(a1)
   1517e:	15c1                	addi	a1,a1,-16
   15180:	14e58b63          	beq	a1,a4,152d6 <_malloc_r+0x4cc>
   15184:	6714                	ld	a3,8(a4)
   15186:	9af1                	andi	a3,a3,-4
   15188:	00d7f563          	bgeu	a5,a3,15192 <_malloc_r+0x388>
   1518c:	6b18                	ld	a4,16(a4)
   1518e:	fee59be3          	bne	a1,a4,15184 <_malloc_r+0x37a>
   15192:	6f0c                	ld	a1,24(a4)
   15194:	0089b783          	ld	a5,8(s3)
   15198:	ec0c                	sd	a1,24(s0)
   1519a:	e818                	sd	a4,16(s0)
   1519c:	e980                	sd	s0,16(a1)
   1519e:	ef00                	sd	s0,24(a4)
   151a0:	b701                	j	150a0 <_malloc_r+0x296>
   151a2:	4751                	li	a4,20
   151a4:	0cf77f63          	bgeu	a4,a5,15282 <_malloc_r+0x478>
   151a8:	05400713          	li	a4,84
   151ac:	18f76463          	bltu	a4,a5,15334 <_malloc_r+0x52a>
   151b0:	00c4d793          	srli	a5,s1,0xc
   151b4:	06f7861b          	addiw	a2,a5,111
   151b8:	0016169b          	slliw	a3,a2,0x1
   151bc:	06e7851b          	addiw	a0,a5,110
   151c0:	068e                	slli	a3,a3,0x3
   151c2:	b9dd                	j	14eb8 <_malloc_r+0xae>
   151c4:	2e05                	addiw	t3,t3,1
   151c6:	003e7793          	andi	a5,t3,3
   151ca:	0541                	addi	a0,a0,16
   151cc:	cbe1                	beqz	a5,1529c <_malloc_r+0x492>
   151ce:	6d1c                	ld	a5,24(a0)
   151d0:	bf01                	j	150e0 <_malloc_r+0x2d6>
   151d2:	6810                	ld	a2,16(s0)
   151d4:	0014e593          	ori	a1,s1,1
   151d8:	e40c                	sd	a1,8(s0)
   151da:	ee1c                	sd	a5,24(a2)
   151dc:	eb90                	sd	a2,16(a5)
   151de:	94a2                	add	s1,s1,s0
   151e0:	0299b423          	sd	s1,40(s3)
   151e4:	0299b023          	sd	s1,32(s3)
   151e8:	0016e793          	ori	a5,a3,1
   151ec:	0104bc23          	sd	a6,24(s1)
   151f0:	0104b823          	sd	a6,16(s1)
   151f4:	e49c                	sd	a5,8(s1)
   151f6:	9722                	add	a4,a4,s0
   151f8:	854a                	mv	a0,s2
   151fa:	e314                	sd	a3,0(a4)
   151fc:	306000ef          	jal	ra,15502 <__malloc_unlock>
   15200:	01040513          	addi	a0,s0,16
   15204:	bd29                	j	1501e <_malloc_r+0x214>
   15206:	0014e693          	ori	a3,s1,1
   1520a:	e414                	sd	a3,8(s0)
   1520c:	94a2                	add	s1,s1,s0
   1520e:	0299b423          	sd	s1,40(s3)
   15212:	0299b023          	sd	s1,32(s3)
   15216:	00176693          	ori	a3,a4,1
   1521a:	0104bc23          	sd	a6,24(s1)
   1521e:	0104b823          	sd	a6,16(s1)
   15222:	e494                	sd	a3,8(s1)
   15224:	97a2                	add	a5,a5,s0
   15226:	854a                	mv	a0,s2
   15228:	e398                	sd	a4,0(a5)
   1522a:	2d8000ef          	jal	ra,15502 <__malloc_unlock>
   1522e:	01040513          	addi	a0,s0,16
   15232:	b3f5                	j	1501e <_malloc_r+0x214>
   15234:	0034d613          	srli	a2,s1,0x3
   15238:	0016079b          	addiw	a5,a2,1
   1523c:	0017979b          	slliw	a5,a5,0x1
   15240:	2601                	sext.w	a2,a2
   15242:	078e                	slli	a5,a5,0x3
   15244:	b109                	j	14e46 <_malloc_r+0x3c>
   15246:	0067d713          	srli	a4,a5,0x6
   1524a:	0397059b          	addiw	a1,a4,57
   1524e:	0015959b          	slliw	a1,a1,0x1
   15252:	0387069b          	addiw	a3,a4,56
   15256:	058e                	slli	a1,a1,0x3
   15258:	b70d                	j	1517a <_malloc_r+0x370>
   1525a:	0f340b63          	beq	s0,s3,15350 <_malloc_r+0x546>
   1525e:	0109b403          	ld	s0,16(s3)
   15262:	00843a03          	ld	s4,8(s0)
   15266:	ffca7a13          	andi	s4,s4,-4
   1526a:	409a07b3          	sub	a5,s4,s1
   1526e:	009a6563          	bltu	s4,s1,15278 <_malloc_r+0x46e>
   15272:	477d                	li	a4,31
   15274:	ecf742e3          	blt	a4,a5,15138 <_malloc_r+0x32e>
   15278:	854a                	mv	a0,s2
   1527a:	288000ef          	jal	ra,15502 <__malloc_unlock>
   1527e:	4501                	li	a0,0
   15280:	bb79                	j	1501e <_malloc_r+0x214>
   15282:	05c7861b          	addiw	a2,a5,92
   15286:	0016169b          	slliw	a3,a2,0x1
   1528a:	05b7851b          	addiw	a0,a5,91
   1528e:	068e                	slli	a3,a3,0x3
   15290:	b125                	j	14eb8 <_malloc_r+0xae>
   15292:	01033783          	ld	a5,16(t1)
   15296:	367d                	addiw	a2,a2,-1
   15298:	18679363          	bne	a5,t1,1541e <_malloc_r+0x614>
   1529c:	00367793          	andi	a5,a2,3
   152a0:	1341                	addi	t1,t1,-16
   152a2:	fbe5                	bnez	a5,15292 <_malloc_r+0x488>
   152a4:	0089b703          	ld	a4,8(s3)
   152a8:	fff5c793          	not	a5,a1
   152ac:	8ff9                	and	a5,a5,a4
   152ae:	00f9b423          	sd	a5,8(s3)
   152b2:	0586                	slli	a1,a1,0x1
   152b4:	c4b7e8e3          	bltu	a5,a1,14f04 <_malloc_r+0xfa>
   152b8:	c40586e3          	beqz	a1,14f04 <_malloc_r+0xfa>
   152bc:	00f5f733          	and	a4,a1,a5
   152c0:	e711                	bnez	a4,152cc <_malloc_r+0x4c2>
   152c2:	0586                	slli	a1,a1,0x1
   152c4:	00f5f733          	and	a4,a1,a5
   152c8:	2e11                	addiw	t3,t3,4
   152ca:	df65                	beqz	a4,152c2 <_malloc_r+0x4b8>
   152cc:	8672                	mv	a2,t3
   152ce:	bbfd                	j	150cc <_malloc_r+0x2c2>
   152d0:	020a0a13          	addi	s4,s4,32
   152d4:	b1ad                	j	14f3e <_malloc_r+0x134>
   152d6:	0089b503          	ld	a0,8(s3)
   152da:	4026d69b          	sraiw	a3,a3,0x2
   152de:	4785                	li	a5,1
   152e0:	00d797b3          	sll	a5,a5,a3
   152e4:	8fc9                	or	a5,a5,a0
   152e6:	00f9b423          	sd	a5,8(s3)
   152ea:	b57d                	j	15198 <_malloc_r+0x38e>
   152ec:	014b0c33          	add	s8,s6,s4
   152f0:	41800c33          	neg	s8,s8
   152f4:	1c52                	slli	s8,s8,0x34
   152f6:	034c5c13          	srli	s8,s8,0x34
   152fa:	85e2                	mv	a1,s8
   152fc:	854a                	mv	a0,s2
   152fe:	579000ef          	jal	ra,16076 <_sbrk_r>
   15302:	57fd                	li	a5,-1
   15304:	4701                	li	a4,0
   15306:	caf50ae3          	beq	a0,a5,14fba <_malloc_r+0x1b0>
   1530a:	41650533          	sub	a0,a0,s6
   1530e:	000c071b          	sext.w	a4,s8
   15312:	01850a33          	add	s4,a0,s8
   15316:	b155                	j	14fba <_malloc_r+0x1b0>
   15318:	05400693          	li	a3,84
   1531c:	06e6e863          	bltu	a3,a4,1538c <_malloc_r+0x582>
   15320:	00c7d713          	srli	a4,a5,0xc
   15324:	06f7059b          	addiw	a1,a4,111
   15328:	0015959b          	slliw	a1,a1,0x1
   1532c:	06e7069b          	addiw	a3,a4,110
   15330:	058e                	slli	a1,a1,0x3
   15332:	b5a1                	j	1517a <_malloc_r+0x370>
   15334:	15400713          	li	a4,340
   15338:	06f76863          	bltu	a4,a5,153a8 <_malloc_r+0x59e>
   1533c:	00f4d793          	srli	a5,s1,0xf
   15340:	0787861b          	addiw	a2,a5,120
   15344:	0016169b          	slliw	a3,a2,0x1
   15348:	0777851b          	addiw	a0,a5,119
   1534c:	068e                	slli	a3,a3,0x3
   1534e:	b6ad                	j	14eb8 <_malloc_r+0xae>
   15350:	7d018b93          	addi	s7,gp,2000 # 1efc0 <__malloc_current_mallinfo>
   15354:	000ba783          	lw	a5,0(s7)
   15358:	014786bb          	addw	a3,a5,s4
   1535c:	00dba023          	sw	a3,0(s7)
   15360:	b121                	j	14f68 <_malloc_r+0x15e>
   15362:	034c1713          	slli	a4,s8,0x34
   15366:	c00711e3          	bnez	a4,14f68 <_malloc_r+0x15e>
   1536a:	0109b403          	ld	s0,16(s3)
   1536e:	9a56                	add	s4,s4,s5
   15370:	001a6a13          	ori	s4,s4,1
   15374:	01443423          	sd	s4,8(s0)
   15378:	b151                	j	14ffc <_malloc_r+0x1f2>
   1537a:	7761b023          	sd	s6,1888(gp) # 1ef50 <__malloc_sbrk_base>
   1537e:	befd                	j	14f7c <_malloc_r+0x172>
   15380:	845a                	mv	s0,s6
   15382:	b9ad                	j	14ffc <_malloc_r+0x1f2>
   15384:	4785                	li	a5,1
   15386:	00fb3423          	sd	a5,8(s6)
   1538a:	b5fd                	j	15278 <_malloc_r+0x46e>
   1538c:	15400693          	li	a3,340
   15390:	04e6ed63          	bltu	a3,a4,153ea <_malloc_r+0x5e0>
   15394:	00f7d713          	srli	a4,a5,0xf
   15398:	0787059b          	addiw	a1,a4,120
   1539c:	0015959b          	slliw	a1,a1,0x1
   153a0:	0777069b          	addiw	a3,a4,119
   153a4:	058e                	slli	a1,a1,0x3
   153a6:	bbd1                	j	1517a <_malloc_r+0x370>
   153a8:	55400713          	li	a4,1364
   153ac:	04f76d63          	bltu	a4,a5,15406 <_malloc_r+0x5fc>
   153b0:	0124d793          	srli	a5,s1,0x12
   153b4:	07d7861b          	addiw	a2,a5,125
   153b8:	0016169b          	slliw	a3,a2,0x1
   153bc:	07c7851b          	addiw	a0,a5,124
   153c0:	068e                	slli	a3,a3,0x3
   153c2:	bcdd                	j	14eb8 <_malloc_r+0xae>
   153c4:	1c41                	addi	s8,s8,-16
   153c6:	018c8a33          	add	s4,s9,s8
   153ca:	416a0a33          	sub	s4,s4,s6
   153ce:	4701                	li	a4,0
   153d0:	b6ed                	j	14fba <_malloc_r+0x1b0>
   153d2:	01040593          	addi	a1,s0,16
   153d6:	854a                	mv	a0,s2
   153d8:	cc2fd0ef          	jal	ra,1289a <_free_r>
   153dc:	0109b403          	ld	s0,16(s3)
   153e0:	000ba783          	lw	a5,0(s7)
   153e4:	00843a03          	ld	s4,8(s0)
   153e8:	b911                	j	14ffc <_malloc_r+0x1f2>
   153ea:	55400693          	li	a3,1364
   153ee:	02e6e363          	bltu	a3,a4,15414 <_malloc_r+0x60a>
   153f2:	0127d713          	srli	a4,a5,0x12
   153f6:	07d7059b          	addiw	a1,a4,125
   153fa:	0015959b          	slliw	a1,a1,0x1
   153fe:	07c7069b          	addiw	a3,a4,124
   15402:	058e                	slli	a1,a1,0x3
   15404:	bb9d                	j	1517a <_malloc_r+0x370>
   15406:	7f000693          	li	a3,2032
   1540a:	07f00613          	li	a2,127
   1540e:	07e00513          	li	a0,126
   15412:	b45d                	j	14eb8 <_malloc_r+0xae>
   15414:	7f000593          	li	a1,2032
   15418:	07e00693          	li	a3,126
   1541c:	bbb9                	j	1517a <_malloc_r+0x370>
   1541e:	0089b783          	ld	a5,8(s3)
   15422:	bd41                	j	152b2 <_malloc_r+0x4a8>

0000000000015424 <_mbtowc_r>:
   15424:	e481b303          	ld	t1,-440(gp) # 1e638 <__global_locale+0xe8>
   15428:	8302                	jr	t1

000000000001542a <__ascii_mbtowc>:
   1542a:	c999                	beqz	a1,15440 <__ascii_mbtowc+0x16>
   1542c:	c61d                	beqz	a2,1545a <__ascii_mbtowc+0x30>
   1542e:	ca95                	beqz	a3,15462 <__ascii_mbtowc+0x38>
   15430:	00064783          	lbu	a5,0(a2)
   15434:	c19c                	sw	a5,0(a1)
   15436:	00064503          	lbu	a0,0(a2)
   1543a:	00a03533          	snez	a0,a0
   1543e:	8082                	ret
   15440:	1141                	addi	sp,sp,-16
   15442:	006c                	addi	a1,sp,12
   15444:	ce09                	beqz	a2,1545e <__ascii_mbtowc+0x34>
   15446:	c285                	beqz	a3,15466 <__ascii_mbtowc+0x3c>
   15448:	00064783          	lbu	a5,0(a2)
   1544c:	c19c                	sw	a5,0(a1)
   1544e:	00064503          	lbu	a0,0(a2)
   15452:	00a03533          	snez	a0,a0
   15456:	0141                	addi	sp,sp,16
   15458:	8082                	ret
   1545a:	4501                	li	a0,0
   1545c:	8082                	ret
   1545e:	4501                	li	a0,0
   15460:	bfdd                	j	15456 <__ascii_mbtowc+0x2c>
   15462:	5579                	li	a0,-2
   15464:	8082                	ret
   15466:	5579                	li	a0,-2
   15468:	b7fd                	j	15456 <__ascii_mbtowc+0x2c>

000000000001546a <memchr>:
   1546a:	00757793          	andi	a5,a0,7
   1546e:	0ff5f693          	andi	a3,a1,255
   15472:	c395                	beqz	a5,15496 <memchr+0x2c>
   15474:	fff60793          	addi	a5,a2,-1
   15478:	c605                	beqz	a2,154a0 <memchr+0x36>
   1547a:	567d                	li	a2,-1
   1547c:	a801                	j	1548c <memchr+0x22>
   1547e:	0505                	addi	a0,a0,1
   15480:	00757713          	andi	a4,a0,7
   15484:	cb11                	beqz	a4,15498 <memchr+0x2e>
   15486:	17fd                	addi	a5,a5,-1
   15488:	00c78c63          	beq	a5,a2,154a0 <memchr+0x36>
   1548c:	00054703          	lbu	a4,0(a0)
   15490:	fed717e3          	bne	a4,a3,1547e <memchr+0x14>
   15494:	8082                	ret
   15496:	87b2                	mv	a5,a2
   15498:	471d                	li	a4,7
   1549a:	00f76f63          	bltu	a4,a5,154b8 <memchr+0x4e>
   1549e:	e399                	bnez	a5,154a4 <memchr+0x3a>
   154a0:	4501                	li	a0,0
   154a2:	8082                	ret
   154a4:	97aa                	add	a5,a5,a0
   154a6:	a021                	j	154ae <memchr+0x44>
   154a8:	0505                	addi	a0,a0,1
   154aa:	fea78be3          	beq	a5,a0,154a0 <memchr+0x36>
   154ae:	00054703          	lbu	a4,0(a0)
   154b2:	fed71be3          	bne	a4,a3,154a8 <memchr+0x3e>
   154b6:	8082                	ret
   154b8:	6641                	lui	a2,0x10
   154ba:	0085971b          	slliw	a4,a1,0x8
   154be:	167d                	addi	a2,a2,-1
   154c0:	8f71                	and	a4,a4,a2
   154c2:	0ff5f593          	andi	a1,a1,255
   154c6:	8dd9                	or	a1,a1,a4
   154c8:	2581                	sext.w	a1,a1
   154ca:	01059713          	slli	a4,a1,0x10
   154ce:	7181b883          	ld	a7,1816(gp) # 1ef08 <__SDATA_BEGIN__>
   154d2:	8f4d                	or	a4,a4,a1
   154d4:	7201b803          	ld	a6,1824(gp) # 1ef10 <__SDATA_BEGIN__+0x8>
   154d8:	02071593          	slli	a1,a4,0x20
   154dc:	8dd9                	or	a1,a1,a4
   154de:	431d                	li	t1,7
   154e0:	6118                	ld	a4,0(a0)
   154e2:	8f2d                	xor	a4,a4,a1
   154e4:	01170633          	add	a2,a4,a7
   154e8:	fff74713          	not	a4,a4
   154ec:	8f71                	and	a4,a4,a2
   154ee:	01077733          	and	a4,a4,a6
   154f2:	fb4d                	bnez	a4,154a4 <memchr+0x3a>
   154f4:	17e1                	addi	a5,a5,-8
   154f6:	0521                	addi	a0,a0,8
   154f8:	fef364e3          	bltu	t1,a5,154e0 <memchr+0x76>
   154fc:	f7c5                	bnez	a5,154a4 <memchr+0x3a>
   154fe:	b74d                	j	154a0 <memchr+0x36>

0000000000015500 <__malloc_lock>:
   15500:	8082                	ret

0000000000015502 <__malloc_unlock>:
   15502:	8082                	ret

0000000000015504 <_Balloc>:
   15504:	7d3c                	ld	a5,120(a0)
   15506:	1101                	addi	sp,sp,-32
   15508:	e822                	sd	s0,16(sp)
   1550a:	e426                	sd	s1,8(sp)
   1550c:	ec06                	sd	ra,24(sp)
   1550e:	e04a                	sd	s2,0(sp)
   15510:	842a                	mv	s0,a0
   15512:	84ae                	mv	s1,a1
   15514:	c385                	beqz	a5,15534 <_Balloc+0x30>
   15516:	00349513          	slli	a0,s1,0x3
   1551a:	97aa                	add	a5,a5,a0
   1551c:	6388                	ld	a0,0(a5)
   1551e:	c50d                	beqz	a0,15548 <_Balloc+0x44>
   15520:	6118                	ld	a4,0(a0)
   15522:	e398                	sd	a4,0(a5)
   15524:	00053823          	sd	zero,16(a0)
   15528:	60e2                	ld	ra,24(sp)
   1552a:	6442                	ld	s0,16(sp)
   1552c:	64a2                	ld	s1,8(sp)
   1552e:	6902                	ld	s2,0(sp)
   15530:	6105                	addi	sp,sp,32
   15532:	8082                	ret
   15534:	04100613          	li	a2,65
   15538:	45a1                	li	a1,8
   1553a:	12d030ef          	jal	ra,18e66 <_calloc_r>
   1553e:	fc28                	sd	a0,120(s0)
   15540:	87aa                	mv	a5,a0
   15542:	f971                	bnez	a0,15516 <_Balloc+0x12>
   15544:	4501                	li	a0,0
   15546:	b7cd                	j	15528 <_Balloc+0x24>
   15548:	4905                	li	s2,1
   1554a:	0099193b          	sllw	s2,s2,s1
   1554e:	fff9061b          	addiw	a2,s2,-1
   15552:	0621                	addi	a2,a2,8
   15554:	060a                	slli	a2,a2,0x2
   15556:	4585                	li	a1,1
   15558:	8522                	mv	a0,s0
   1555a:	10d030ef          	jal	ra,18e66 <_calloc_r>
   1555e:	d17d                	beqz	a0,15544 <_Balloc+0x40>
   15560:	c504                	sw	s1,8(a0)
   15562:	01252623          	sw	s2,12(a0)
   15566:	bf7d                	j	15524 <_Balloc+0x20>

0000000000015568 <_Bfree>:
   15568:	c981                	beqz	a1,15578 <_Bfree+0x10>
   1556a:	4598                	lw	a4,8(a1)
   1556c:	7d3c                	ld	a5,120(a0)
   1556e:	070e                	slli	a4,a4,0x3
   15570:	97ba                	add	a5,a5,a4
   15572:	6398                	ld	a4,0(a5)
   15574:	e198                	sd	a4,0(a1)
   15576:	e38c                	sd	a1,0(a5)
   15578:	8082                	ret

000000000001557a <__multadd>:
   1557a:	7179                	addi	sp,sp,-48
   1557c:	ec26                	sd	s1,24(sp)
   1557e:	49c4                	lw	s1,20(a1)
   15580:	6341                	lui	t1,0x10
   15582:	f022                	sd	s0,32(sp)
   15584:	e84a                	sd	s2,16(sp)
   15586:	e44e                	sd	s3,8(sp)
   15588:	f406                	sd	ra,40(sp)
   1558a:	e052                	sd	s4,0(sp)
   1558c:	892e                	mv	s2,a1
   1558e:	89aa                	mv	s3,a0
   15590:	8436                	mv	s0,a3
   15592:	01858813          	addi	a6,a1,24
   15596:	4881                	li	a7,0
   15598:	137d                	addi	t1,t1,-1
   1559a:	00082783          	lw	a5,0(a6)
   1559e:	0811                	addi	a6,a6,4
   155a0:	2885                	addiw	a7,a7,1
   155a2:	0067f6b3          	and	a3,a5,t1
   155a6:	02c686bb          	mulw	a3,a3,a2
   155aa:	0107d79b          	srliw	a5,a5,0x10
   155ae:	02c787bb          	mulw	a5,a5,a2
   155b2:	9ea1                	addw	a3,a3,s0
   155b4:	0106de1b          	srliw	t3,a3,0x10
   155b8:	00d37733          	and	a4,t1,a3
   155bc:	01c786bb          	addw	a3,a5,t3
   155c0:	0106979b          	slliw	a5,a3,0x10
   155c4:	9f3d                	addw	a4,a4,a5
   155c6:	fee82e23          	sw	a4,-4(a6)
   155ca:	0106d41b          	srliw	s0,a3,0x10
   155ce:	fc98c6e3          	blt	a7,s1,1559a <__multadd+0x20>
   155d2:	cc09                	beqz	s0,155ec <__multadd+0x72>
   155d4:	00c92783          	lw	a5,12(s2)
   155d8:	02f4d363          	bge	s1,a5,155fe <__multadd+0x84>
   155dc:	00448793          	addi	a5,s1,4
   155e0:	078a                	slli	a5,a5,0x2
   155e2:	97ca                	add	a5,a5,s2
   155e4:	c780                	sw	s0,8(a5)
   155e6:	2485                	addiw	s1,s1,1
   155e8:	00992a23          	sw	s1,20(s2)
   155ec:	70a2                	ld	ra,40(sp)
   155ee:	7402                	ld	s0,32(sp)
   155f0:	64e2                	ld	s1,24(sp)
   155f2:	69a2                	ld	s3,8(sp)
   155f4:	6a02                	ld	s4,0(sp)
   155f6:	854a                	mv	a0,s2
   155f8:	6942                	ld	s2,16(sp)
   155fa:	6145                	addi	sp,sp,48
   155fc:	8082                	ret
   155fe:	00892583          	lw	a1,8(s2)
   15602:	854e                	mv	a0,s3
   15604:	2585                	addiw	a1,a1,1
   15606:	effff0ef          	jal	ra,15504 <_Balloc>
   1560a:	01492603          	lw	a2,20(s2)
   1560e:	8a2a                	mv	s4,a0
   15610:	01090593          	addi	a1,s2,16
   15614:	0609                	addi	a2,a2,2
   15616:	060a                	slli	a2,a2,0x2
   15618:	0541                	addi	a0,a0,16
   1561a:	6db030ef          	jal	ra,194f4 <memcpy>
   1561e:	00892703          	lw	a4,8(s2)
   15622:	0789b783          	ld	a5,120(s3)
   15626:	070e                	slli	a4,a4,0x3
   15628:	97ba                	add	a5,a5,a4
   1562a:	6398                	ld	a4,0(a5)
   1562c:	00e93023          	sd	a4,0(s2)
   15630:	0127b023          	sd	s2,0(a5) # fffffffffffff000 <__BSS_END__+0xfffffffffffe0010>
   15634:	8952                	mv	s2,s4
   15636:	b75d                	j	155dc <__multadd+0x62>

0000000000015638 <__s2b>:
   15638:	7139                	addi	sp,sp,-64
   1563a:	f822                	sd	s0,48(sp)
   1563c:	f426                	sd	s1,40(sp)
   1563e:	f04a                	sd	s2,32(sp)
   15640:	ec4e                	sd	s3,24(sp)
   15642:	e852                	sd	s4,16(sp)
   15644:	84b6                	mv	s1,a3
   15646:	842e                	mv	s0,a1
   15648:	26a1                	addiw	a3,a3,8
   1564a:	45a5                	li	a1,9
   1564c:	fc06                	sd	ra,56(sp)
   1564e:	e456                	sd	s5,8(sp)
   15650:	e05a                	sd	s6,0(sp)
   15652:	47a5                	li	a5,9
   15654:	02b6c6bb          	divw	a3,a3,a1
   15658:	892a                	mv	s2,a0
   1565a:	89b2                	mv	s3,a2
   1565c:	8a3a                	mv	s4,a4
   1565e:	0a97d163          	bge	a5,s1,15700 <__s2b+0xc8>
   15662:	4785                	li	a5,1
   15664:	4581                	li	a1,0
   15666:	0017979b          	slliw	a5,a5,0x1
   1566a:	2585                	addiw	a1,a1,1
   1566c:	fed7cde3          	blt	a5,a3,15666 <__s2b+0x2e>
   15670:	854a                	mv	a0,s2
   15672:	e93ff0ef          	jal	ra,15504 <_Balloc>
   15676:	4785                	li	a5,1
   15678:	c95c                	sw	a5,20(a0)
   1567a:	01452c23          	sw	s4,24(a0)
   1567e:	47a5                	li	a5,9
   15680:	85aa                	mv	a1,a0
   15682:	0737dc63          	bge	a5,s3,156fa <__s2b+0xc2>
   15686:	ff698a9b          	addiw	s5,s3,-10
   1568a:	1a82                	slli	s5,s5,0x20
   1568c:	020ada93          	srli	s5,s5,0x20
   15690:	00940b13          	addi	s6,s0,9
   15694:	00aa8793          	addi	a5,s5,10
   15698:	943e                	add	s0,s0,a5
   1569a:	8a5a                	mv	s4,s6
   1569c:	000a4683          	lbu	a3,0(s4)
   156a0:	4629                	li	a2,10
   156a2:	854a                	mv	a0,s2
   156a4:	fd06869b          	addiw	a3,a3,-48
   156a8:	ed3ff0ef          	jal	ra,1557a <__multadd>
   156ac:	0a05                	addi	s4,s4,1
   156ae:	85aa                	mv	a1,a0
   156b0:	fe8a16e3          	bne	s4,s0,1569c <__s2b+0x64>
   156b4:	002a8413          	addi	s0,s5,2
   156b8:	945a                	add	s0,s0,s6
   156ba:	0299d563          	bge	s3,s1,156e4 <__s2b+0xac>
   156be:	34fd                	addiw	s1,s1,-1
   156c0:	413484bb          	subw	s1,s1,s3
   156c4:	1482                	slli	s1,s1,0x20
   156c6:	9081                	srli	s1,s1,0x20
   156c8:	0485                	addi	s1,s1,1
   156ca:	94a2                	add	s1,s1,s0
   156cc:	00044683          	lbu	a3,0(s0)
   156d0:	4629                	li	a2,10
   156d2:	854a                	mv	a0,s2
   156d4:	fd06869b          	addiw	a3,a3,-48
   156d8:	ea3ff0ef          	jal	ra,1557a <__multadd>
   156dc:	0405                	addi	s0,s0,1
   156de:	85aa                	mv	a1,a0
   156e0:	fe9416e3          	bne	s0,s1,156cc <__s2b+0x94>
   156e4:	70e2                	ld	ra,56(sp)
   156e6:	7442                	ld	s0,48(sp)
   156e8:	74a2                	ld	s1,40(sp)
   156ea:	7902                	ld	s2,32(sp)
   156ec:	69e2                	ld	s3,24(sp)
   156ee:	6a42                	ld	s4,16(sp)
   156f0:	6aa2                	ld	s5,8(sp)
   156f2:	6b02                	ld	s6,0(sp)
   156f4:	852e                	mv	a0,a1
   156f6:	6121                	addi	sp,sp,64
   156f8:	8082                	ret
   156fa:	0429                	addi	s0,s0,10
   156fc:	49a5                	li	s3,9
   156fe:	bf75                	j	156ba <__s2b+0x82>
   15700:	4581                	li	a1,0
   15702:	b7bd                	j	15670 <__s2b+0x38>

0000000000015704 <__hi0bits>:
   15704:	7741                	lui	a4,0xffff0
   15706:	8f69                	and	a4,a4,a0
   15708:	87aa                	mv	a5,a0
   1570a:	4501                	li	a0,0
   1570c:	e701                	bnez	a4,15714 <__hi0bits+0x10>
   1570e:	0107979b          	slliw	a5,a5,0x10
   15712:	4541                	li	a0,16
   15714:	ff000737          	lui	a4,0xff000
   15718:	8f7d                	and	a4,a4,a5
   1571a:	e701                	bnez	a4,15722 <__hi0bits+0x1e>
   1571c:	0087979b          	slliw	a5,a5,0x8
   15720:	2521                	addiw	a0,a0,8
   15722:	f0000737          	lui	a4,0xf0000
   15726:	8f7d                	and	a4,a4,a5
   15728:	e701                	bnez	a4,15730 <__hi0bits+0x2c>
   1572a:	0047979b          	slliw	a5,a5,0x4
   1572e:	2511                	addiw	a0,a0,4
   15730:	c0000737          	lui	a4,0xc0000
   15734:	8f7d                	and	a4,a4,a5
   15736:	e701                	bnez	a4,1573e <__hi0bits+0x3a>
   15738:	0027979b          	slliw	a5,a5,0x2
   1573c:	2509                	addiw	a0,a0,2
   1573e:	0007c763          	bltz	a5,1574c <__hi0bits+0x48>
   15742:	02179713          	slli	a4,a5,0x21
   15746:	2505                	addiw	a0,a0,1
   15748:	00075363          	bgez	a4,1574e <__hi0bits+0x4a>
   1574c:	8082                	ret
   1574e:	02000513          	li	a0,32
   15752:	8082                	ret

0000000000015754 <__lo0bits>:
   15754:	411c                	lw	a5,0(a0)
   15756:	872a                	mv	a4,a0
   15758:	0077f693          	andi	a3,a5,7
   1575c:	863e                	mv	a2,a5
   1575e:	ce81                	beqz	a3,15776 <__lo0bits+0x22>
   15760:	0017f693          	andi	a3,a5,1
   15764:	4501                	li	a0,0
   15766:	eab9                	bnez	a3,157bc <__lo0bits+0x68>
   15768:	8a09                	andi	a2,a2,2
   1576a:	ce21                	beqz	a2,157c2 <__lo0bits+0x6e>
   1576c:	0017d79b          	srliw	a5,a5,0x1
   15770:	c31c                	sw	a5,0(a4)
   15772:	4505                	li	a0,1
   15774:	8082                	ret
   15776:	03079693          	slli	a3,a5,0x30
   1577a:	92c1                	srli	a3,a3,0x30
   1577c:	4501                	li	a0,0
   1577e:	e681                	bnez	a3,15786 <__lo0bits+0x32>
   15780:	0107d79b          	srliw	a5,a5,0x10
   15784:	4541                	li	a0,16
   15786:	0ff7f693          	andi	a3,a5,255
   1578a:	e681                	bnez	a3,15792 <__lo0bits+0x3e>
   1578c:	2521                	addiw	a0,a0,8
   1578e:	0087d79b          	srliw	a5,a5,0x8
   15792:	00f7f693          	andi	a3,a5,15
   15796:	e681                	bnez	a3,1579e <__lo0bits+0x4a>
   15798:	2511                	addiw	a0,a0,4
   1579a:	0047d79b          	srliw	a5,a5,0x4
   1579e:	0037f693          	andi	a3,a5,3
   157a2:	e681                	bnez	a3,157aa <__lo0bits+0x56>
   157a4:	2509                	addiw	a0,a0,2
   157a6:	0027d79b          	srliw	a5,a5,0x2
   157aa:	0017f693          	andi	a3,a5,1
   157ae:	ea81                	bnez	a3,157be <__lo0bits+0x6a>
   157b0:	0017d79b          	srliw	a5,a5,0x1
   157b4:	2505                	addiw	a0,a0,1
   157b6:	e781                	bnez	a5,157be <__lo0bits+0x6a>
   157b8:	02000513          	li	a0,32
   157bc:	8082                	ret
   157be:	c31c                	sw	a5,0(a4)
   157c0:	8082                	ret
   157c2:	0027d79b          	srliw	a5,a5,0x2
   157c6:	c31c                	sw	a5,0(a4)
   157c8:	4509                	li	a0,2
   157ca:	8082                	ret

00000000000157cc <__i2b>:
   157cc:	1141                	addi	sp,sp,-16
   157ce:	e022                	sd	s0,0(sp)
   157d0:	842e                	mv	s0,a1
   157d2:	4585                	li	a1,1
   157d4:	e406                	sd	ra,8(sp)
   157d6:	d2fff0ef          	jal	ra,15504 <_Balloc>
   157da:	60a2                	ld	ra,8(sp)
   157dc:	cd00                	sw	s0,24(a0)
   157de:	6402                	ld	s0,0(sp)
   157e0:	4705                	li	a4,1
   157e2:	c958                	sw	a4,20(a0)
   157e4:	0141                	addi	sp,sp,16
   157e6:	8082                	ret

00000000000157e8 <__multiply>:
   157e8:	7179                	addi	sp,sp,-48
   157ea:	e84a                	sd	s2,16(sp)
   157ec:	e44e                	sd	s3,8(sp)
   157ee:	01462903          	lw	s2,20(a2) # 10014 <register_fini-0xd4>
   157f2:	0145a983          	lw	s3,20(a1)
   157f6:	ec26                	sd	s1,24(sp)
   157f8:	e052                	sd	s4,0(sp)
   157fa:	f406                	sd	ra,40(sp)
   157fc:	f022                	sd	s0,32(sp)
   157fe:	8a2e                	mv	s4,a1
   15800:	84b2                	mv	s1,a2
   15802:	0129c763          	blt	s3,s2,15810 <__multiply+0x28>
   15806:	87ca                	mv	a5,s2
   15808:	84ae                	mv	s1,a1
   1580a:	894e                	mv	s2,s3
   1580c:	8a32                	mv	s4,a2
   1580e:	89be                	mv	s3,a5
   15810:	44dc                	lw	a5,12(s1)
   15812:	0139043b          	addw	s0,s2,s3
   15816:	448c                	lw	a1,8(s1)
   15818:	0087d363          	bge	a5,s0,1581e <__multiply+0x36>
   1581c:	2585                	addiw	a1,a1,1
   1581e:	ce7ff0ef          	jal	ra,15504 <_Balloc>
   15822:	01850313          	addi	t1,a0,24
   15826:	00241893          	slli	a7,s0,0x2
   1582a:	989a                	add	a7,a7,t1
   1582c:	879a                	mv	a5,t1
   1582e:	01137763          	bgeu	t1,a7,1583c <__multiply+0x54>
   15832:	0007a023          	sw	zero,0(a5)
   15836:	0791                	addi	a5,a5,4
   15838:	ff17ede3          	bltu	a5,a7,15832 <__multiply+0x4a>
   1583c:	018a0813          	addi	a6,s4,24
   15840:	00299e13          	slli	t3,s3,0x2
   15844:	01848e93          	addi	t4,s1,24
   15848:	00291593          	slli	a1,s2,0x2
   1584c:	9e42                	add	t3,t3,a6
   1584e:	95f6                	add	a1,a1,t4
   15850:	0fc87a63          	bgeu	a6,t3,15944 <__multiply+0x15c>
   15854:	01948793          	addi	a5,s1,25
   15858:	4f11                	li	t5,4
   1585a:	10f5f763          	bgeu	a1,a5,15968 <__multiply+0x180>
   1585e:	6641                	lui	a2,0x10
   15860:	167d                	addi	a2,a2,-1
   15862:	a809                	j	15874 <__multiply+0x8c>
   15864:	0102d29b          	srliw	t0,t0,0x10
   15868:	06029c63          	bnez	t0,158e0 <__multiply+0xf8>
   1586c:	0811                	addi	a6,a6,4
   1586e:	0311                	addi	t1,t1,4
   15870:	0dc87a63          	bgeu	a6,t3,15944 <__multiply+0x15c>
   15874:	00082283          	lw	t0,0(a6)
   15878:	00c2f4b3          	and	s1,t0,a2
   1587c:	d4e5                	beqz	s1,15864 <__multiply+0x7c>
   1587e:	839a                	mv	t2,t1
   15880:	82f6                	mv	t0,t4
   15882:	4901                	li	s2,0
   15884:	0002a683          	lw	a3,0(t0) # 104f2 <memset+0x90>
   15888:	0003af83          	lw	t6,0(t2)
   1588c:	0391                	addi	t2,t2,4
   1588e:	00c6f7b3          	and	a5,a3,a2
   15892:	029787bb          	mulw	a5,a5,s1
   15896:	0106d71b          	srliw	a4,a3,0x10
   1589a:	00cff6b3          	and	a3,t6,a2
   1589e:	010fdf9b          	srliw	t6,t6,0x10
   158a2:	0291                	addi	t0,t0,4
   158a4:	0297073b          	mulw	a4,a4,s1
   158a8:	9fb5                	addw	a5,a5,a3
   158aa:	012787bb          	addw	a5,a5,s2
   158ae:	0107d69b          	srliw	a3,a5,0x10
   158b2:	8ff1                	and	a5,a5,a2
   158b4:	01f7073b          	addw	a4,a4,t6
   158b8:	9f35                	addw	a4,a4,a3
   158ba:	0107169b          	slliw	a3,a4,0x10
   158be:	8fd5                	or	a5,a5,a3
   158c0:	fef3ae23          	sw	a5,-4(t2)
   158c4:	0107591b          	srliw	s2,a4,0x10
   158c8:	fab2eee3          	bltu	t0,a1,15884 <__multiply+0x9c>
   158cc:	01e307b3          	add	a5,t1,t5
   158d0:	0127a023          	sw	s2,0(a5)
   158d4:	00082283          	lw	t0,0(a6)
   158d8:	0102d29b          	srliw	t0,t0,0x10
   158dc:	f80288e3          	beqz	t0,1586c <__multiply+0x84>
   158e0:	00032683          	lw	a3,0(t1) # 10000 <register_fini-0xe8>
   158e4:	839a                	mv	t2,t1
   158e6:	8ff6                	mv	t6,t4
   158e8:	84b6                	mv	s1,a3
   158ea:	4701                	li	a4,0
   158ec:	000fa783          	lw	a5,0(t6)
   158f0:	0104d99b          	srliw	s3,s1,0x10
   158f4:	8ef1                	and	a3,a3,a2
   158f6:	8ff1                	and	a5,a5,a2
   158f8:	025787bb          	mulw	a5,a5,t0
   158fc:	0043a483          	lw	s1,4(t2)
   15900:	0391                	addi	t2,t2,4
   15902:	0f91                	addi	t6,t6,4
   15904:	00c4f933          	and	s2,s1,a2
   15908:	013787bb          	addw	a5,a5,s3
   1590c:	9fb9                	addw	a5,a5,a4
   1590e:	0107971b          	slliw	a4,a5,0x10
   15912:	8ed9                	or	a3,a3,a4
   15914:	fed3ae23          	sw	a3,-4(t2)
   15918:	ffefd703          	lhu	a4,-2(t6)
   1591c:	0107d79b          	srliw	a5,a5,0x10
   15920:	0257073b          	mulw	a4,a4,t0
   15924:	0127073b          	addw	a4,a4,s2
   15928:	9fb9                	addw	a5,a5,a4
   1592a:	0007869b          	sext.w	a3,a5
   1592e:	0107d71b          	srliw	a4,a5,0x10
   15932:	fabfede3          	bltu	t6,a1,158ec <__multiply+0x104>
   15936:	01e307b3          	add	a5,t1,t5
   1593a:	c394                	sw	a3,0(a5)
   1593c:	0811                	addi	a6,a6,4
   1593e:	0311                	addi	t1,t1,4
   15940:	f3c86ae3          	bltu	a6,t3,15874 <__multiply+0x8c>
   15944:	00804563          	bgtz	s0,1594e <__multiply+0x166>
   15948:	a039                	j	15956 <__multiply+0x16e>
   1594a:	347d                	addiw	s0,s0,-1
   1594c:	c409                	beqz	s0,15956 <__multiply+0x16e>
   1594e:	ffc8a783          	lw	a5,-4(a7)
   15952:	18f1                	addi	a7,a7,-4
   15954:	dbfd                	beqz	a5,1594a <__multiply+0x162>
   15956:	70a2                	ld	ra,40(sp)
   15958:	c940                	sw	s0,20(a0)
   1595a:	7402                	ld	s0,32(sp)
   1595c:	64e2                	ld	s1,24(sp)
   1595e:	6942                	ld	s2,16(sp)
   15960:	69a2                	ld	s3,8(sp)
   15962:	6a02                	ld	s4,0(sp)
   15964:	6145                	addi	sp,sp,48
   15966:	8082                	ret
   15968:	40958f33          	sub	t5,a1,s1
   1596c:	1f1d                	addi	t5,t5,-25
   1596e:	ffcf7f13          	andi	t5,t5,-4
   15972:	0f11                	addi	t5,t5,4
   15974:	b5ed                	j	1585e <__multiply+0x76>

0000000000015976 <__pow5mult>:
   15976:	7179                	addi	sp,sp,-48
   15978:	f022                	sd	s0,32(sp)
   1597a:	e44e                	sd	s3,8(sp)
   1597c:	e052                	sd	s4,0(sp)
   1597e:	f406                	sd	ra,40(sp)
   15980:	ec26                	sd	s1,24(sp)
   15982:	e84a                	sd	s2,16(sp)
   15984:	00367793          	andi	a5,a2,3
   15988:	8432                	mv	s0,a2
   1598a:	89aa                	mv	s3,a0
   1598c:	8a2e                	mv	s4,a1
   1598e:	efad                	bnez	a5,15a08 <__pow5mult+0x92>
   15990:	8409                	srai	s0,s0,0x2
   15992:	8952                	mv	s2,s4
   15994:	c429                	beqz	s0,159de <__pow5mult+0x68>
   15996:	0709b483          	ld	s1,112(s3)
   1599a:	c0d9                	beqz	s1,15a20 <__pow5mult+0xaa>
   1599c:	00147793          	andi	a5,s0,1
   159a0:	8952                	mv	s2,s4
   159a2:	eb89                	bnez	a5,159b4 <__pow5mult+0x3e>
   159a4:	8405                	srai	s0,s0,0x1
   159a6:	cc05                	beqz	s0,159de <__pow5mult+0x68>
   159a8:	6088                	ld	a0,0(s1)
   159aa:	c139                	beqz	a0,159f0 <__pow5mult+0x7a>
   159ac:	84aa                	mv	s1,a0
   159ae:	00147793          	andi	a5,s0,1
   159b2:	dbed                	beqz	a5,159a4 <__pow5mult+0x2e>
   159b4:	8626                	mv	a2,s1
   159b6:	85ca                	mv	a1,s2
   159b8:	854e                	mv	a0,s3
   159ba:	e2fff0ef          	jal	ra,157e8 <__multiply>
   159be:	04090363          	beqz	s2,15a04 <__pow5mult+0x8e>
   159c2:	00892703          	lw	a4,8(s2)
   159c6:	0789b783          	ld	a5,120(s3)
   159ca:	8405                	srai	s0,s0,0x1
   159cc:	070e                	slli	a4,a4,0x3
   159ce:	97ba                	add	a5,a5,a4
   159d0:	6398                	ld	a4,0(a5)
   159d2:	00e93023          	sd	a4,0(s2)
   159d6:	0127b023          	sd	s2,0(a5)
   159da:	892a                	mv	s2,a0
   159dc:	f471                	bnez	s0,159a8 <__pow5mult+0x32>
   159de:	70a2                	ld	ra,40(sp)
   159e0:	7402                	ld	s0,32(sp)
   159e2:	64e2                	ld	s1,24(sp)
   159e4:	69a2                	ld	s3,8(sp)
   159e6:	6a02                	ld	s4,0(sp)
   159e8:	854a                	mv	a0,s2
   159ea:	6942                	ld	s2,16(sp)
   159ec:	6145                	addi	sp,sp,48
   159ee:	8082                	ret
   159f0:	8626                	mv	a2,s1
   159f2:	85a6                	mv	a1,s1
   159f4:	854e                	mv	a0,s3
   159f6:	df3ff0ef          	jal	ra,157e8 <__multiply>
   159fa:	e088                	sd	a0,0(s1)
   159fc:	00053023          	sd	zero,0(a0)
   15a00:	84aa                	mv	s1,a0
   15a02:	b775                	j	159ae <__pow5mult+0x38>
   15a04:	892a                	mv	s2,a0
   15a06:	bf79                	j	159a4 <__pow5mult+0x2e>
   15a08:	37fd                	addiw	a5,a5,-1
   15a0a:	6771                	lui	a4,0x1c
   15a0c:	5c870713          	addi	a4,a4,1480 # 1c5c8 <p05.3314>
   15a10:	078a                	slli	a5,a5,0x2
   15a12:	97ba                	add	a5,a5,a4
   15a14:	4390                	lw	a2,0(a5)
   15a16:	4681                	li	a3,0
   15a18:	b63ff0ef          	jal	ra,1557a <__multadd>
   15a1c:	8a2a                	mv	s4,a0
   15a1e:	bf8d                	j	15990 <__pow5mult+0x1a>
   15a20:	4585                	li	a1,1
   15a22:	854e                	mv	a0,s3
   15a24:	ae1ff0ef          	jal	ra,15504 <_Balloc>
   15a28:	27100793          	li	a5,625
   15a2c:	cd1c                	sw	a5,24(a0)
   15a2e:	4785                	li	a5,1
   15a30:	c95c                	sw	a5,20(a0)
   15a32:	06a9b823          	sd	a0,112(s3)
   15a36:	84aa                	mv	s1,a0
   15a38:	00053023          	sd	zero,0(a0)
   15a3c:	b785                	j	1599c <__pow5mult+0x26>

0000000000015a3e <__lshift>:
   15a3e:	7139                	addi	sp,sp,-64
   15a40:	f04a                	sd	s2,32(sp)
   15a42:	0145a903          	lw	s2,20(a1)
   15a46:	45dc                	lw	a5,12(a1)
   15a48:	e456                	sd	s5,8(sp)
   15a4a:	40565a9b          	sraiw	s5,a2,0x5
   15a4e:	0159093b          	addw	s2,s2,s5
   15a52:	f822                	sd	s0,48(sp)
   15a54:	f426                	sd	s1,40(sp)
   15a56:	ec4e                	sd	s3,24(sp)
   15a58:	e852                	sd	s4,16(sp)
   15a5a:	e05a                	sd	s6,0(sp)
   15a5c:	fc06                	sd	ra,56(sp)
   15a5e:	0019049b          	addiw	s1,s2,1
   15a62:	842e                	mv	s0,a1
   15a64:	8a32                	mv	s4,a2
   15a66:	458c                	lw	a1,8(a1)
   15a68:	89aa                	mv	s3,a0
   15a6a:	40565b13          	srai	s6,a2,0x5
   15a6e:	0097d763          	bge	a5,s1,15a7c <__lshift+0x3e>
   15a72:	0017979b          	slliw	a5,a5,0x1
   15a76:	2585                	addiw	a1,a1,1
   15a78:	fe97cde3          	blt	a5,s1,15a72 <__lshift+0x34>
   15a7c:	854e                	mv	a0,s3
   15a7e:	a87ff0ef          	jal	ra,15504 <_Balloc>
   15a82:	01850693          	addi	a3,a0,24
   15a86:	03605363          	blez	s6,15aac <__lshift+0x6e>
   15a8a:	3afd                	addiw	s5,s5,-1
   15a8c:	1a82                	slli	s5,s5,0x20
   15a8e:	020ada93          	srli	s5,s5,0x20
   15a92:	007a8713          	addi	a4,s5,7
   15a96:	070a                	slli	a4,a4,0x2
   15a98:	972a                	add	a4,a4,a0
   15a9a:	87b6                	mv	a5,a3
   15a9c:	0791                	addi	a5,a5,4
   15a9e:	fe07ae23          	sw	zero,-4(a5)
   15aa2:	fee79de3          	bne	a5,a4,15a9c <__lshift+0x5e>
   15aa6:	0a85                	addi	s5,s5,1
   15aa8:	0a8a                	slli	s5,s5,0x2
   15aaa:	96d6                	add	a3,a3,s5
   15aac:	01442803          	lw	a6,20(s0)
   15ab0:	01840793          	addi	a5,s0,24
   15ab4:	01fa7593          	andi	a1,s4,31
   15ab8:	080a                	slli	a6,a6,0x2
   15aba:	983e                	add	a6,a6,a5
   15abc:	c1b5                	beqz	a1,15b20 <__lshift+0xe2>
   15abe:	02000313          	li	t1,32
   15ac2:	40b3033b          	subw	t1,t1,a1
   15ac6:	88b6                	mv	a7,a3
   15ac8:	4701                	li	a4,0
   15aca:	4390                	lw	a2,0(a5)
   15acc:	0891                	addi	a7,a7,4
   15ace:	0791                	addi	a5,a5,4
   15ad0:	00b6163b          	sllw	a2,a2,a1
   15ad4:	8f51                	or	a4,a4,a2
   15ad6:	fee8ae23          	sw	a4,-4(a7)
   15ada:	ffc7a703          	lw	a4,-4(a5)
   15ade:	0067573b          	srlw	a4,a4,t1
   15ae2:	ff07e4e3          	bltu	a5,a6,15aca <__lshift+0x8c>
   15ae6:	01940613          	addi	a2,s0,25
   15aea:	4791                	li	a5,4
   15aec:	04c87963          	bgeu	a6,a2,15b3e <__lshift+0x100>
   15af0:	96be                	add	a3,a3,a5
   15af2:	c298                	sw	a4,0(a3)
   15af4:	c311                	beqz	a4,15af8 <__lshift+0xba>
   15af6:	8926                	mv	s2,s1
   15af8:	4418                	lw	a4,8(s0)
   15afa:	0789b783          	ld	a5,120(s3)
   15afe:	01252a23          	sw	s2,20(a0)
   15b02:	070e                	slli	a4,a4,0x3
   15b04:	97ba                	add	a5,a5,a4
   15b06:	6398                	ld	a4,0(a5)
   15b08:	70e2                	ld	ra,56(sp)
   15b0a:	74a2                	ld	s1,40(sp)
   15b0c:	e018                	sd	a4,0(s0)
   15b0e:	e380                	sd	s0,0(a5)
   15b10:	7442                	ld	s0,48(sp)
   15b12:	7902                	ld	s2,32(sp)
   15b14:	69e2                	ld	s3,24(sp)
   15b16:	6a42                	ld	s4,16(sp)
   15b18:	6aa2                	ld	s5,8(sp)
   15b1a:	6b02                	ld	s6,0(sp)
   15b1c:	6121                	addi	sp,sp,64
   15b1e:	8082                	ret
   15b20:	4398                	lw	a4,0(a5)
   15b22:	0791                	addi	a5,a5,4
   15b24:	0691                	addi	a3,a3,4
   15b26:	fee6ae23          	sw	a4,-4(a3)
   15b2a:	fd07f7e3          	bgeu	a5,a6,15af8 <__lshift+0xba>
   15b2e:	4398                	lw	a4,0(a5)
   15b30:	0791                	addi	a5,a5,4
   15b32:	0691                	addi	a3,a3,4
   15b34:	fee6ae23          	sw	a4,-4(a3)
   15b38:	ff07e4e3          	bltu	a5,a6,15b20 <__lshift+0xe2>
   15b3c:	bf75                	j	15af8 <__lshift+0xba>
   15b3e:	408807b3          	sub	a5,a6,s0
   15b42:	179d                	addi	a5,a5,-25
   15b44:	9bf1                	andi	a5,a5,-4
   15b46:	0791                	addi	a5,a5,4
   15b48:	96be                	add	a3,a3,a5
   15b4a:	c298                	sw	a4,0(a3)
   15b4c:	d755                	beqz	a4,15af8 <__lshift+0xba>
   15b4e:	b765                	j	15af6 <__lshift+0xb8>

0000000000015b50 <__mcmp>:
   15b50:	49dc                	lw	a5,20(a1)
   15b52:	882a                	mv	a6,a0
   15b54:	4948                	lw	a0,20(a0)
   15b56:	9d1d                	subw	a0,a0,a5
   15b58:	e50d                	bnez	a0,15b82 <__mcmp+0x32>
   15b5a:	078a                	slli	a5,a5,0x2
   15b5c:	0861                	addi	a6,a6,24
   15b5e:	05e1                	addi	a1,a1,24
   15b60:	00f80733          	add	a4,a6,a5
   15b64:	97ae                	add	a5,a5,a1
   15b66:	a019                	j	15b6c <__mcmp+0x1c>
   15b68:	00e87d63          	bgeu	a6,a4,15b82 <__mcmp+0x32>
   15b6c:	ffc72603          	lw	a2,-4(a4)
   15b70:	ffc7a683          	lw	a3,-4(a5)
   15b74:	1771                	addi	a4,a4,-4
   15b76:	17f1                	addi	a5,a5,-4
   15b78:	fed608e3          	beq	a2,a3,15b68 <__mcmp+0x18>
   15b7c:	557d                	li	a0,-1
   15b7e:	00d67363          	bgeu	a2,a3,15b84 <__mcmp+0x34>
   15b82:	8082                	ret
   15b84:	4505                	li	a0,1
   15b86:	8082                	ret

0000000000015b88 <__mdiff>:
   15b88:	7179                	addi	sp,sp,-48
   15b8a:	4a58                	lw	a4,20(a2)
   15b8c:	e052                	sd	s4,0(sp)
   15b8e:	0145aa03          	lw	s4,20(a1)
   15b92:	f022                	sd	s0,32(sp)
   15b94:	ec26                	sd	s1,24(sp)
   15b96:	e84a                	sd	s2,16(sp)
   15b98:	e44e                	sd	s3,8(sp)
   15b9a:	f406                	sd	ra,40(sp)
   15b9c:	40ea0a3b          	subw	s4,s4,a4
   15ba0:	892e                	mv	s2,a1
   15ba2:	89b2                	mv	s3,a2
   15ba4:	01858413          	addi	s0,a1,24
   15ba8:	01860493          	addi	s1,a2,24 # 10018 <register_fini-0xd0>
   15bac:	020a1b63          	bnez	s4,15be2 <__mdiff+0x5a>
   15bb0:	070a                	slli	a4,a4,0x2
   15bb2:	00e407b3          	add	a5,s0,a4
   15bb6:	9726                	add	a4,a4,s1
   15bb8:	a019                	j	15bbe <__mdiff+0x36>
   15bba:	12f47563          	bgeu	s0,a5,15ce4 <__mdiff+0x15c>
   15bbe:	ffc7a803          	lw	a6,-4(a5)
   15bc2:	ffc72683          	lw	a3,-4(a4)
   15bc6:	17f1                	addi	a5,a5,-4
   15bc8:	1771                	addi	a4,a4,-4
   15bca:	fed808e3          	beq	a6,a3,15bba <__mdiff+0x32>
   15bce:	00d87d63          	bgeu	a6,a3,15be8 <__mdiff+0x60>
   15bd2:	8722                	mv	a4,s0
   15bd4:	87ca                	mv	a5,s2
   15bd6:	8426                	mv	s0,s1
   15bd8:	894e                	mv	s2,s3
   15bda:	84ba                	mv	s1,a4
   15bdc:	89be                	mv	s3,a5
   15bde:	4a05                	li	s4,1
   15be0:	a021                	j	15be8 <__mdiff+0x60>
   15be2:	fe0a48e3          	bltz	s4,15bd2 <__mdiff+0x4a>
   15be6:	4a01                	li	s4,0
   15be8:	00892583          	lw	a1,8(s2)
   15bec:	919ff0ef          	jal	ra,15504 <_Balloc>
   15bf0:	01492803          	lw	a6,20(s2)
   15bf4:	0149af03          	lw	t5,20(s3)
   15bf8:	01850f93          	addi	t6,a0,24
   15bfc:	00281893          	slli	a7,a6,0x2
   15c00:	0f0a                	slli	t5,t5,0x2
   15c02:	6341                	lui	t1,0x10
   15c04:	01452823          	sw	s4,16(a0)
   15c08:	98a2                	add	a7,a7,s0
   15c0a:	9f26                	add	t5,t5,s1
   15c0c:	8efe                	mv	t4,t6
   15c0e:	85a6                	mv	a1,s1
   15c10:	8e22                	mv	t3,s0
   15c12:	4701                	li	a4,0
   15c14:	137d                	addi	t1,t1,-1
   15c16:	000e2683          	lw	a3,0(t3)
   15c1a:	4190                	lw	a2,0(a1)
   15c1c:	0e91                	addi	t4,t4,4
   15c1e:	0066f7b3          	and	a5,a3,t1
   15c22:	9fb9                	addw	a5,a5,a4
   15c24:	00667733          	and	a4,a2,t1
   15c28:	9f99                	subw	a5,a5,a4
   15c2a:	0106561b          	srliw	a2,a2,0x10
   15c2e:	0106d71b          	srliw	a4,a3,0x10
   15c32:	9f11                	subw	a4,a4,a2
   15c34:	4107d69b          	sraiw	a3,a5,0x10
   15c38:	9f35                	addw	a4,a4,a3
   15c3a:	0107169b          	slliw	a3,a4,0x10
   15c3e:	0067f7b3          	and	a5,a5,t1
   15c42:	8fd5                	or	a5,a5,a3
   15c44:	2781                	sext.w	a5,a5
   15c46:	0591                	addi	a1,a1,4
   15c48:	fefeae23          	sw	a5,-4(t4)
   15c4c:	0e11                	addi	t3,t3,4
   15c4e:	4107571b          	sraiw	a4,a4,0x10
   15c52:	fde5e2e3          	bltu	a1,t5,15c16 <__mdiff+0x8e>
   15c56:	fff4c613          	not	a2,s1
   15c5a:	967a                	add	a2,a2,t5
   15c5c:	0485                	addi	s1,s1,1
   15c5e:	8209                	srli	a2,a2,0x2
   15c60:	4681                	li	a3,0
   15c62:	009f6463          	bltu	t5,s1,15c6a <__mdiff+0xe2>
   15c66:	00261693          	slli	a3,a2,0x2
   15c6a:	96fe                	add	a3,a3,t6
   15c6c:	4591                	li	a1,4
   15c6e:	009f6563          	bltu	t5,s1,15c78 <__mdiff+0xf0>
   15c72:	0605                	addi	a2,a2,1
   15c74:	00261593          	slli	a1,a2,0x2
   15c78:	942e                	add	s0,s0,a1
   15c7a:	9fae                	add	t6,t6,a1
   15c7c:	05147463          	bgeu	s0,a7,15cc4 <__mdiff+0x13c>
   15c80:	6341                	lui	t1,0x10
   15c82:	85fe                	mv	a1,t6
   15c84:	8622                	mv	a2,s0
   15c86:	137d                	addi	t1,t1,-1
   15c88:	4214                	lw	a3,0(a2)
   15c8a:	0591                	addi	a1,a1,4
   15c8c:	0611                	addi	a2,a2,4
   15c8e:	0066f7b3          	and	a5,a3,t1
   15c92:	9fb9                	addw	a5,a5,a4
   15c94:	4107de1b          	sraiw	t3,a5,0x10
   15c98:	0106d71b          	srliw	a4,a3,0x10
   15c9c:	01c7073b          	addw	a4,a4,t3
   15ca0:	01071e1b          	slliw	t3,a4,0x10
   15ca4:	0067f7b3          	and	a5,a5,t1
   15ca8:	01c7e7b3          	or	a5,a5,t3
   15cac:	2781                	sext.w	a5,a5
   15cae:	fef5ae23          	sw	a5,-4(a1)
   15cb2:	4107571b          	sraiw	a4,a4,0x10
   15cb6:	fd1669e3          	bltu	a2,a7,15c88 <__mdiff+0x100>
   15cba:	fff88693          	addi	a3,a7,-1
   15cbe:	8e81                	sub	a3,a3,s0
   15cc0:	9af1                	andi	a3,a3,-4
   15cc2:	96fe                	add	a3,a3,t6
   15cc4:	e791                	bnez	a5,15cd0 <__mdiff+0x148>
   15cc6:	ffc6a783          	lw	a5,-4(a3)
   15cca:	387d                	addiw	a6,a6,-1
   15ccc:	16f1                	addi	a3,a3,-4
   15cce:	dfe5                	beqz	a5,15cc6 <__mdiff+0x13e>
   15cd0:	70a2                	ld	ra,40(sp)
   15cd2:	7402                	ld	s0,32(sp)
   15cd4:	01052a23          	sw	a6,20(a0)
   15cd8:	64e2                	ld	s1,24(sp)
   15cda:	6942                	ld	s2,16(sp)
   15cdc:	69a2                	ld	s3,8(sp)
   15cde:	6a02                	ld	s4,0(sp)
   15ce0:	6145                	addi	sp,sp,48
   15ce2:	8082                	ret
   15ce4:	4581                	li	a1,0
   15ce6:	81fff0ef          	jal	ra,15504 <_Balloc>
   15cea:	70a2                	ld	ra,40(sp)
   15cec:	7402                	ld	s0,32(sp)
   15cee:	4785                	li	a5,1
   15cf0:	c95c                	sw	a5,20(a0)
   15cf2:	00052c23          	sw	zero,24(a0)
   15cf6:	64e2                	ld	s1,24(sp)
   15cf8:	6942                	ld	s2,16(sp)
   15cfa:	69a2                	ld	s3,8(sp)
   15cfc:	6a02                	ld	s4,0(sp)
   15cfe:	6145                	addi	sp,sp,48
   15d00:	8082                	ret

0000000000015d02 <__ulp>:
   15d02:	e20507d3          	fmv.x.d	a5,fa0
   15d06:	7ff00737          	lui	a4,0x7ff00
   15d0a:	9381                	srli	a5,a5,0x20
   15d0c:	8f7d                	and	a4,a4,a5
   15d0e:	fcc007b7          	lui	a5,0xfcc00
   15d12:	9fb9                	addw	a5,a5,a4
   15d14:	0007871b          	sext.w	a4,a5
   15d18:	00e05663          	blez	a4,15d24 <__ulp+0x22>
   15d1c:	1782                	slli	a5,a5,0x20
   15d1e:	f2078553          	fmv.d.x	fa0,a5
   15d22:	8082                	ret
   15d24:	40f007bb          	negw	a5,a5
   15d28:	4147d71b          	sraiw	a4,a5,0x14
   15d2c:	46cd                	li	a3,19
   15d2e:	00e6c763          	blt	a3,a4,15d3c <__ulp+0x3a>
   15d32:	000807b7          	lui	a5,0x80
   15d36:	40e7d7bb          	sraw	a5,a5,a4
   15d3a:	b7cd                	j	15d1c <__ulp+0x1a>
   15d3c:	fec7069b          	addiw	a3,a4,-20
   15d40:	4679                	li	a2,30
   15d42:	4781                	li	a5,0
   15d44:	4705                	li	a4,1
   15d46:	00d64663          	blt	a2,a3,15d52 <__ulp+0x50>
   15d4a:	80000737          	lui	a4,0x80000
   15d4e:	00d7573b          	srlw	a4,a4,a3
   15d52:	9381                	srli	a5,a5,0x20
   15d54:	1702                	slli	a4,a4,0x20
   15d56:	9301                	srli	a4,a4,0x20
   15d58:	1782                	slli	a5,a5,0x20
   15d5a:	8fd9                	or	a5,a5,a4
   15d5c:	f2078553          	fmv.d.x	fa0,a5
   15d60:	8082                	ret

0000000000015d62 <__b2d>:
   15d62:	7179                	addi	sp,sp,-48
   15d64:	ec26                	sd	s1,24(sp)
   15d66:	4944                	lw	s1,20(a0)
   15d68:	f022                	sd	s0,32(sp)
   15d6a:	01850413          	addi	s0,a0,24
   15d6e:	048a                	slli	s1,s1,0x2
   15d70:	94a2                	add	s1,s1,s0
   15d72:	e84a                	sd	s2,16(sp)
   15d74:	ffc4a903          	lw	s2,-4(s1)
   15d78:	e44e                	sd	s3,8(sp)
   15d7a:	e052                	sd	s4,0(sp)
   15d7c:	854a                	mv	a0,s2
   15d7e:	89ae                	mv	s3,a1
   15d80:	f406                	sd	ra,40(sp)
   15d82:	983ff0ef          	jal	ra,15704 <__hi0bits>
   15d86:	02000693          	li	a3,32
   15d8a:	40a687bb          	subw	a5,a3,a0
   15d8e:	00f9a023          	sw	a5,0(s3)
   15d92:	47a9                	li	a5,10
   15d94:	ffc48a13          	addi	s4,s1,-4
   15d98:	08a7d063          	bge	a5,a0,15e18 <__b2d+0xb6>
   15d9c:	ff55079b          	addiw	a5,a0,-11
   15da0:	05447863          	bgeu	s0,s4,15df0 <__b2d+0x8e>
   15da4:	ff84a703          	lw	a4,-8(s1)
   15da8:	c7b1                	beqz	a5,15df4 <__b2d+0x92>
   15daa:	40f6853b          	subw	a0,a3,a5
   15dae:	00f916bb          	sllw	a3,s2,a5
   15db2:	00a7593b          	srlw	s2,a4,a0
   15db6:	0126e6b3          	or	a3,a3,s2
   15dba:	3ff00937          	lui	s2,0x3ff00
   15dbe:	0126e6b3          	or	a3,a3,s2
   15dc2:	00f7173b          	sllw	a4,a4,a5
   15dc6:	ff848613          	addi	a2,s1,-8
   15dca:	02069793          	slli	a5,a3,0x20
   15dce:	0007069b          	sext.w	a3,a4
   15dd2:	00c47963          	bgeu	s0,a2,15de4 <__b2d+0x82>
   15dd6:	ff44a683          	lw	a3,-12(s1)
   15dda:	00a6d53b          	srlw	a0,a3,a0
   15dde:	00e566b3          	or	a3,a0,a4
   15de2:	2681                	sext.w	a3,a3
   15de4:	9381                	srli	a5,a5,0x20
   15de6:	1682                	slli	a3,a3,0x20
   15de8:	9281                	srli	a3,a3,0x20
   15dea:	1782                	slli	a5,a5,0x20
   15dec:	8fd5                	or	a5,a5,a3
   15dee:	a819                	j	15e04 <__b2d+0xa2>
   15df0:	4701                	li	a4,0
   15df2:	efa1                	bnez	a5,15e4a <__b2d+0xe8>
   15df4:	3ff007b7          	lui	a5,0x3ff00
   15df8:	00f967b3          	or	a5,s2,a5
   15dfc:	1702                	slli	a4,a4,0x20
   15dfe:	9301                	srli	a4,a4,0x20
   15e00:	1782                	slli	a5,a5,0x20
   15e02:	8fd9                	or	a5,a5,a4
   15e04:	70a2                	ld	ra,40(sp)
   15e06:	7402                	ld	s0,32(sp)
   15e08:	64e2                	ld	s1,24(sp)
   15e0a:	6942                	ld	s2,16(sp)
   15e0c:	69a2                	ld	s3,8(sp)
   15e0e:	6a02                	ld	s4,0(sp)
   15e10:	f2078553          	fmv.d.x	fa0,a5
   15e14:	6145                	addi	sp,sp,48
   15e16:	8082                	ret
   15e18:	46ad                	li	a3,11
   15e1a:	9e89                	subw	a3,a3,a0
   15e1c:	3ff00737          	lui	a4,0x3ff00
   15e20:	00d957bb          	srlw	a5,s2,a3
   15e24:	8fd9                	or	a5,a5,a4
   15e26:	1782                	slli	a5,a5,0x20
   15e28:	4701                	li	a4,0
   15e2a:	01447663          	bgeu	s0,s4,15e36 <__b2d+0xd4>
   15e2e:	ff84a703          	lw	a4,-8(s1)
   15e32:	00d7573b          	srlw	a4,a4,a3
   15e36:	2555                	addiw	a0,a0,21
   15e38:	00a9153b          	sllw	a0,s2,a0
   15e3c:	8d59                	or	a0,a0,a4
   15e3e:	9381                	srli	a5,a5,0x20
   15e40:	1502                	slli	a0,a0,0x20
   15e42:	9101                	srli	a0,a0,0x20
   15e44:	1782                	slli	a5,a5,0x20
   15e46:	8fc9                	or	a5,a5,a0
   15e48:	bf75                	j	15e04 <__b2d+0xa2>
   15e4a:	00f917bb          	sllw	a5,s2,a5
   15e4e:	3ff00937          	lui	s2,0x3ff00
   15e52:	0127e7b3          	or	a5,a5,s2
   15e56:	1782                	slli	a5,a5,0x20
   15e58:	4681                	li	a3,0
   15e5a:	b769                	j	15de4 <__b2d+0x82>

0000000000015e5c <__d2b>:
   15e5c:	7139                	addi	sp,sp,-64
   15e5e:	f822                	sd	s0,48(sp)
   15e60:	e2050453          	fmv.x.d	s0,fa0
   15e64:	ec4e                	sd	s3,24(sp)
   15e66:	89ae                	mv	s3,a1
   15e68:	4585                	li	a1,1
   15e6a:	f426                	sd	s1,40(sp)
   15e6c:	f04a                	sd	s2,32(sp)
   15e6e:	e852                	sd	s4,16(sp)
   15e70:	fc06                	sd	ra,56(sp)
   15e72:	8932                	mv	s2,a2
   15e74:	e90ff0ef          	jal	ra,15504 <_Balloc>
   15e78:	42045793          	srai	a5,s0,0x20
   15e7c:	02c79713          	slli	a4,a5,0x2c
   15e80:	0147d79b          	srliw	a5,a5,0x14
   15e84:	03579693          	slli	a3,a5,0x35
   15e88:	84aa                	mv	s1,a0
   15e8a:	9331                	srli	a4,a4,0x2c
   15e8c:	7ff7fa13          	andi	s4,a5,2047
   15e90:	c681                	beqz	a3,15e98 <__d2b+0x3c>
   15e92:	001007b7          	lui	a5,0x100
   15e96:	8f5d                	or	a4,a4,a5
   15e98:	c63a                	sw	a4,12(sp)
   15e9a:	2401                	sext.w	s0,s0
   15e9c:	c429                	beqz	s0,15ee6 <__d2b+0x8a>
   15e9e:	0028                	addi	a0,sp,8
   15ea0:	c422                	sw	s0,8(sp)
   15ea2:	8b3ff0ef          	jal	ra,15754 <__lo0bits>
   15ea6:	ed25                	bnez	a0,15f1e <__d2b+0xc2>
   15ea8:	4722                	lw	a4,8(sp)
   15eaa:	47b2                	lw	a5,12(sp)
   15eac:	cc98                	sw	a4,24(s1)
   15eae:	00f03433          	snez	s0,a5
   15eb2:	0405                	addi	s0,s0,1
   15eb4:	ccdc                	sw	a5,28(s1)
   15eb6:	c8c0                	sw	s0,20(s1)
   15eb8:	040a0363          	beqz	s4,15efe <__d2b+0xa2>
   15ebc:	bcda0a1b          	addiw	s4,s4,-1075
   15ec0:	00aa0a3b          	addw	s4,s4,a0
   15ec4:	03500793          	li	a5,53
   15ec8:	0149a023          	sw	s4,0(s3)
   15ecc:	40a7853b          	subw	a0,a5,a0
   15ed0:	00a92023          	sw	a0,0(s2) # 3ff00000 <__BSS_END__+0x3fee1010>
   15ed4:	70e2                	ld	ra,56(sp)
   15ed6:	7442                	ld	s0,48(sp)
   15ed8:	7902                	ld	s2,32(sp)
   15eda:	69e2                	ld	s3,24(sp)
   15edc:	6a42                	ld	s4,16(sp)
   15ede:	8526                	mv	a0,s1
   15ee0:	74a2                	ld	s1,40(sp)
   15ee2:	6121                	addi	sp,sp,64
   15ee4:	8082                	ret
   15ee6:	0068                	addi	a0,sp,12
   15ee8:	86dff0ef          	jal	ra,15754 <__lo0bits>
   15eec:	4785                	li	a5,1
   15eee:	c8dc                	sw	a5,20(s1)
   15ef0:	47b2                	lw	a5,12(sp)
   15ef2:	0205051b          	addiw	a0,a0,32
   15ef6:	4405                	li	s0,1
   15ef8:	cc9c                	sw	a5,24(s1)
   15efa:	fc0a11e3          	bnez	s4,15ebc <__d2b+0x60>
   15efe:	bce5051b          	addiw	a0,a0,-1074
   15f02:	00241793          	slli	a5,s0,0x2
   15f06:	00a9a023          	sw	a0,0(s3)
   15f0a:	97a6                	add	a5,a5,s1
   15f0c:	4bc8                	lw	a0,20(a5)
   15f0e:	0054141b          	slliw	s0,s0,0x5
   15f12:	ff2ff0ef          	jal	ra,15704 <__hi0bits>
   15f16:	9c09                	subw	s0,s0,a0
   15f18:	00892023          	sw	s0,0(s2)
   15f1c:	bf65                	j	15ed4 <__d2b+0x78>
   15f1e:	4732                	lw	a4,12(sp)
   15f20:	46a2                	lw	a3,8(sp)
   15f22:	02000793          	li	a5,32
   15f26:	9f89                	subw	a5,a5,a0
   15f28:	00f717bb          	sllw	a5,a4,a5
   15f2c:	8fd5                	or	a5,a5,a3
   15f2e:	00a7573b          	srlw	a4,a4,a0
   15f32:	cc9c                	sw	a5,24(s1)
   15f34:	c63a                	sw	a4,12(sp)
   15f36:	0007079b          	sext.w	a5,a4
   15f3a:	bf95                	j	15eae <__d2b+0x52>

0000000000015f3c <__ratio>:
   15f3c:	7179                	addi	sp,sp,-48
   15f3e:	ec26                	sd	s1,24(sp)
   15f40:	84ae                	mv	s1,a1
   15f42:	002c                	addi	a1,sp,8
   15f44:	f406                	sd	ra,40(sp)
   15f46:	f022                	sd	s0,32(sp)
   15f48:	e84a                	sd	s2,16(sp)
   15f4a:	892a                	mv	s2,a0
   15f4c:	e17ff0ef          	jal	ra,15d62 <__b2d>
   15f50:	006c                	addi	a1,sp,12
   15f52:	8526                	mv	a0,s1
   15f54:	e2050453          	fmv.x.d	s0,fa0
   15f58:	e0bff0ef          	jal	ra,15d62 <__b2d>
   15f5c:	48d8                	lw	a4,20(s1)
   15f5e:	01492783          	lw	a5,20(s2)
   15f62:	46b2                	lw	a3,12(sp)
   15f64:	9f99                	subw	a5,a5,a4
   15f66:	4722                	lw	a4,8(sp)
   15f68:	0057979b          	slliw	a5,a5,0x5
   15f6c:	9f15                	subw	a4,a4,a3
   15f6e:	00e786bb          	addw	a3,a5,a4
   15f72:	87b6                	mv	a5,a3
   15f74:	e2050753          	fmv.x.d	a4,fa0
   15f78:	02d05863          	blez	a3,15fa8 <__ratio+0x6c>
   15f7c:	02045693          	srli	a3,s0,0x20
   15f80:	0147979b          	slliw	a5,a5,0x14
   15f84:	9fb5                	addw	a5,a5,a3
   15f86:	56fd                	li	a3,-1
   15f88:	9281                	srli	a3,a3,0x20
   15f8a:	1782                	slli	a5,a5,0x20
   15f8c:	8c75                	and	s0,s0,a3
   15f8e:	8c5d                	or	s0,s0,a5
   15f90:	f20407d3          	fmv.d.x	fa5,s0
   15f94:	70a2                	ld	ra,40(sp)
   15f96:	7402                	ld	s0,32(sp)
   15f98:	f2070753          	fmv.d.x	fa4,a4
   15f9c:	64e2                	ld	s1,24(sp)
   15f9e:	6942                	ld	s2,16(sp)
   15fa0:	1ae7f553          	fdiv.d	fa0,fa5,fa4
   15fa4:	6145                	addi	sp,sp,48
   15fa6:	8082                	ret
   15fa8:	02075693          	srli	a3,a4,0x20
   15fac:	0147979b          	slliw	a5,a5,0x14
   15fb0:	40f687bb          	subw	a5,a3,a5
   15fb4:	56fd                	li	a3,-1
   15fb6:	9281                	srli	a3,a3,0x20
   15fb8:	1782                	slli	a5,a5,0x20
   15fba:	8f75                	and	a4,a4,a3
   15fbc:	8f5d                	or	a4,a4,a5
   15fbe:	bfc9                	j	15f90 <__ratio+0x54>

0000000000015fc0 <_mprec_log10>:
   15fc0:	47dd                	li	a5,23
   15fc2:	00a7db63          	bge	a5,a0,15fd8 <_mprec_log10+0x18>
   15fc6:	7281b507          	fld	fa0,1832(gp) # 1ef18 <__SDATA_BEGIN__+0x10>
   15fca:	7301b787          	fld	fa5,1840(gp) # 1ef20 <__SDATA_BEGIN__+0x18>
   15fce:	357d                	addiw	a0,a0,-1
   15fd0:	12f57553          	fmul.d	fa0,fa0,fa5
   15fd4:	fd6d                	bnez	a0,15fce <_mprec_log10+0xe>
   15fd6:	8082                	ret
   15fd8:	67f1                	lui	a5,0x1c
   15fda:	5c878793          	addi	a5,a5,1480 # 1c5c8 <p05.3314>
   15fde:	050e                	slli	a0,a0,0x3
   15fe0:	953e                	add	a0,a0,a5
   15fe2:	2908                	fld	fa0,16(a0)
   15fe4:	8082                	ret

0000000000015fe6 <__copybits>:
   15fe6:	4a54                	lw	a3,20(a2)
   15fe8:	35fd                	addiw	a1,a1,-1
   15fea:	4055d59b          	sraiw	a1,a1,0x5
   15fee:	0585                	addi	a1,a1,1
   15ff0:	01860793          	addi	a5,a2,24
   15ff4:	068a                	slli	a3,a3,0x2
   15ff6:	058a                	slli	a1,a1,0x2
   15ff8:	96be                	add	a3,a3,a5
   15ffa:	95aa                	add	a1,a1,a0
   15ffc:	02d7f163          	bgeu	a5,a3,1601e <__copybits+0x38>
   16000:	872a                	mv	a4,a0
   16002:	0007a803          	lw	a6,0(a5)
   16006:	0791                	addi	a5,a5,4
   16008:	0711                	addi	a4,a4,4
   1600a:	ff072e23          	sw	a6,-4(a4) # 3feffffc <__BSS_END__+0x3fee100c>
   1600e:	fed7eae3          	bltu	a5,a3,16002 <__copybits+0x1c>
   16012:	40c687b3          	sub	a5,a3,a2
   16016:	179d                	addi	a5,a5,-25
   16018:	9bf1                	andi	a5,a5,-4
   1601a:	0791                	addi	a5,a5,4
   1601c:	953e                	add	a0,a0,a5
   1601e:	00b57763          	bgeu	a0,a1,1602c <__copybits+0x46>
   16022:	0511                	addi	a0,a0,4
   16024:	fe052e23          	sw	zero,-4(a0)
   16028:	feb56de3          	bltu	a0,a1,16022 <__copybits+0x3c>
   1602c:	8082                	ret

000000000001602e <__any_on>:
   1602e:	4958                	lw	a4,20(a0)
   16030:	4055d613          	srai	a2,a1,0x5
   16034:	01850693          	addi	a3,a0,24
   16038:	00c75d63          	bge	a4,a2,16052 <__any_on+0x24>
   1603c:	00271793          	slli	a5,a4,0x2
   16040:	97b6                	add	a5,a5,a3
   16042:	02f6f863          	bgeu	a3,a5,16072 <__any_on+0x44>
   16046:	ffc7a703          	lw	a4,-4(a5)
   1604a:	17f1                	addi	a5,a5,-4
   1604c:	db7d                	beqz	a4,16042 <__any_on+0x14>
   1604e:	4505                	li	a0,1
   16050:	8082                	ret
   16052:	00261793          	slli	a5,a2,0x2
   16056:	97b6                	add	a5,a5,a3
   16058:	fee655e3          	bge	a2,a4,16042 <__any_on+0x14>
   1605c:	89fd                	andi	a1,a1,31
   1605e:	d1f5                	beqz	a1,16042 <__any_on+0x14>
   16060:	4390                	lw	a2,0(a5)
   16062:	4505                	li	a0,1
   16064:	00b6573b          	srlw	a4,a2,a1
   16068:	00b715bb          	sllw	a1,a4,a1
   1606c:	fcc58be3          	beq	a1,a2,16042 <__any_on+0x14>
   16070:	8082                	ret
   16072:	4501                	li	a0,0
   16074:	8082                	ret

0000000000016076 <_sbrk_r>:
   16076:	1101                	addi	sp,sp,-32
   16078:	e822                	sd	s0,16(sp)
   1607a:	e426                	sd	s1,8(sp)
   1607c:	842a                	mv	s0,a0
   1607e:	64fd                	lui	s1,0x1f
   16080:	852e                	mv	a0,a1
   16082:	ec06                	sd	ra,24(sp)
   16084:	fe04a423          	sw	zero,-24(s1) # 1efe8 <errno>
   16088:	281040ef          	jal	ra,1ab08 <_sbrk>
   1608c:	57fd                	li	a5,-1
   1608e:	00f50763          	beq	a0,a5,1609c <_sbrk_r+0x26>
   16092:	60e2                	ld	ra,24(sp)
   16094:	6442                	ld	s0,16(sp)
   16096:	64a2                	ld	s1,8(sp)
   16098:	6105                	addi	sp,sp,32
   1609a:	8082                	ret
   1609c:	fe84a783          	lw	a5,-24(s1)
   160a0:	dbed                	beqz	a5,16092 <_sbrk_r+0x1c>
   160a2:	60e2                	ld	ra,24(sp)
   160a4:	c01c                	sw	a5,0(s0)
   160a6:	6442                	ld	s0,16(sp)
   160a8:	64a2                	ld	s1,8(sp)
   160aa:	6105                	addi	sp,sp,32
   160ac:	8082                	ret

00000000000160ae <frexp>:
   160ae:	e20507d3          	fmv.x.d	a5,fa0
   160b2:	80000637          	lui	a2,0x80000
   160b6:	fff64613          	not	a2,a2
   160ba:	4207d593          	srai	a1,a5,0x20
   160be:	00c5f733          	and	a4,a1,a2
   160c2:	00052023          	sw	zero,0(a0)
   160c6:	7ff00837          	lui	a6,0x7ff00
   160ca:	86ae                	mv	a3,a1
   160cc:	05075c63          	bge	a4,a6,16124 <frexp+0x76>
   160d0:	00f76833          	or	a6,a4,a5
   160d4:	2801                	sext.w	a6,a6
   160d6:	04080763          	beqz	a6,16124 <frexp+0x76>
   160da:	7ff00837          	lui	a6,0x7ff00
   160de:	0105f5b3          	and	a1,a1,a6
   160e2:	4801                	li	a6,0
   160e4:	ed89                	bnez	a1,160fe <frexp+0x50>
   160e6:	7381b787          	fld	fa5,1848(gp) # 1ef28 <__SDATA_BEGIN__+0x20>
   160ea:	fca00813          	li	a6,-54
   160ee:	12f577d3          	fmul.d	fa5,fa0,fa5
   160f2:	e20787d3          	fmv.x.d	a5,fa5
   160f6:	4207d693          	srai	a3,a5,0x20
   160fa:	00c6f733          	and	a4,a3,a2
   160fe:	80100637          	lui	a2,0x80100
   16102:	167d                	addi	a2,a2,-1
   16104:	8ef1                	and	a3,a3,a2
   16106:	3fe00637          	lui	a2,0x3fe00
   1610a:	8ed1                	or	a3,a3,a2
   1610c:	4147571b          	sraiw	a4,a4,0x14
   16110:	567d                	li	a2,-1
   16112:	c027071b          	addiw	a4,a4,-1022
   16116:	9201                	srli	a2,a2,0x20
   16118:	0107073b          	addw	a4,a4,a6
   1611c:	1682                	slli	a3,a3,0x20
   1611e:	8ff1                	and	a5,a5,a2
   16120:	c118                	sw	a4,0(a0)
   16122:	8fd5                	or	a5,a5,a3
   16124:	f2078553          	fmv.d.x	fa0,a5
   16128:	8082                	ret

000000000001612a <_sprintf_r>:
   1612a:	7111                	addi	sp,sp,-256
   1612c:	0d810e93          	addi	t4,sp,216
   16130:	f5be                	sd	a5,232(sp)
   16132:	80000337          	lui	t1,0x80000
   16136:	77c1                	lui	a5,0xffff0
   16138:	8e2e                	mv	t3,a1
   1613a:	fff34313          	not	t1,t1
   1613e:	edb6                	sd	a3,216(sp)
   16140:	20878793          	addi	a5,a5,520 # ffffffffffff0208 <__BSS_END__+0xfffffffffffd1218>
   16144:	080c                	addi	a1,sp,16
   16146:	86f6                	mv	a3,t4
   16148:	e586                	sd	ra,200(sp)
   1614a:	d03e                	sw	a5,32(sp)
   1614c:	f1ba                	sd	a4,224(sp)
   1614e:	f9c2                	sd	a6,240(sp)
   16150:	fdc6                	sd	a7,248(sp)
   16152:	e872                	sd	t3,16(sp)
   16154:	f472                	sd	t3,40(sp)
   16156:	d81a                	sw	t1,48(sp)
   16158:	ce1a                	sw	t1,28(sp)
   1615a:	e476                	sd	t4,8(sp)
   1615c:	3bc000ef          	jal	ra,16518 <_svfprintf_r>
   16160:	67c2                	ld	a5,16(sp)
   16162:	00078023          	sb	zero,0(a5)
   16166:	60ae                	ld	ra,200(sp)
   16168:	6111                	addi	sp,sp,256
   1616a:	8082                	ret

000000000001616c <sprintf>:
   1616c:	8e2a                	mv	t3,a0
   1616e:	7111                	addi	sp,sp,-256
   16170:	7581b503          	ld	a0,1880(gp) # 1ef48 <_impure_ptr>
   16174:	0d010e93          	addi	t4,sp,208
   16178:	f5be                	sd	a5,232(sp)
   1617a:	80000337          	lui	t1,0x80000
   1617e:	77c1                	lui	a5,0xffff0
   16180:	fff34313          	not	t1,t1
   16184:	e9b2                	sd	a2,208(sp)
   16186:	edb6                	sd	a3,216(sp)
   16188:	20878793          	addi	a5,a5,520 # ffffffffffff0208 <__BSS_END__+0xfffffffffffd1218>
   1618c:	862e                	mv	a2,a1
   1618e:	86f6                	mv	a3,t4
   16190:	080c                	addi	a1,sp,16
   16192:	e586                	sd	ra,200(sp)
   16194:	d03e                	sw	a5,32(sp)
   16196:	f1ba                	sd	a4,224(sp)
   16198:	f9c2                	sd	a6,240(sp)
   1619a:	fdc6                	sd	a7,248(sp)
   1619c:	e872                	sd	t3,16(sp)
   1619e:	f472                	sd	t3,40(sp)
   161a0:	d81a                	sw	t1,48(sp)
   161a2:	ce1a                	sw	t1,28(sp)
   161a4:	e476                	sd	t4,8(sp)
   161a6:	372000ef          	jal	ra,16518 <_svfprintf_r>
   161aa:	67c2                	ld	a5,16(sp)
   161ac:	00078023          	sb	zero,0(a5)
   161b0:	60ae                	ld	ra,200(sp)
   161b2:	6111                	addi	sp,sp,256
   161b4:	8082                	ret

00000000000161b6 <__sread>:
   161b6:	1141                	addi	sp,sp,-16
   161b8:	e022                	sd	s0,0(sp)
   161ba:	842e                	mv	s0,a1
   161bc:	01259583          	lh	a1,18(a1)
   161c0:	e406                	sd	ra,8(sp)
   161c2:	4e6030ef          	jal	ra,196a8 <_read_r>
   161c6:	00054963          	bltz	a0,161d8 <__sread+0x22>
   161ca:	685c                	ld	a5,144(s0)
   161cc:	60a2                	ld	ra,8(sp)
   161ce:	97aa                	add	a5,a5,a0
   161d0:	e85c                	sd	a5,144(s0)
   161d2:	6402                	ld	s0,0(sp)
   161d4:	0141                	addi	sp,sp,16
   161d6:	8082                	ret
   161d8:	01045783          	lhu	a5,16(s0)
   161dc:	777d                	lui	a4,0xfffff
   161de:	177d                	addi	a4,a4,-1
   161e0:	8ff9                	and	a5,a5,a4
   161e2:	60a2                	ld	ra,8(sp)
   161e4:	00f41823          	sh	a5,16(s0)
   161e8:	6402                	ld	s0,0(sp)
   161ea:	0141                	addi	sp,sp,16
   161ec:	8082                	ret

00000000000161ee <__seofread>:
   161ee:	4501                	li	a0,0
   161f0:	8082                	ret

00000000000161f2 <__swrite>:
   161f2:	01059783          	lh	a5,16(a1)
   161f6:	7179                	addi	sp,sp,-48
   161f8:	f022                	sd	s0,32(sp)
   161fa:	ec26                	sd	s1,24(sp)
   161fc:	e84a                	sd	s2,16(sp)
   161fe:	e44e                	sd	s3,8(sp)
   16200:	f406                	sd	ra,40(sp)
   16202:	1007f713          	andi	a4,a5,256
   16206:	842e                	mv	s0,a1
   16208:	84aa                	mv	s1,a0
   1620a:	01259583          	lh	a1,18(a1)
   1620e:	8932                	mv	s2,a2
   16210:	89b6                	mv	s3,a3
   16212:	e30d                	bnez	a4,16234 <__swrite+0x42>
   16214:	777d                	lui	a4,0xfffff
   16216:	177d                	addi	a4,a4,-1
   16218:	8ff9                	and	a5,a5,a4
   1621a:	00f41823          	sh	a5,16(s0)
   1621e:	7402                	ld	s0,32(sp)
   16220:	70a2                	ld	ra,40(sp)
   16222:	86ce                	mv	a3,s3
   16224:	864a                	mv	a2,s2
   16226:	69a2                	ld	s3,8(sp)
   16228:	6942                	ld	s2,16(sp)
   1622a:	8526                	mv	a0,s1
   1622c:	64e2                	ld	s1,24(sp)
   1622e:	6145                	addi	sp,sp,48
   16230:	3ed0206f          	j	18e1c <_write_r>
   16234:	4689                	li	a3,2
   16236:	4601                	li	a2,0
   16238:	27e030ef          	jal	ra,194b6 <_lseek_r>
   1623c:	01041783          	lh	a5,16(s0)
   16240:	01241583          	lh	a1,18(s0)
   16244:	bfc1                	j	16214 <__swrite+0x22>

0000000000016246 <__sseek>:
   16246:	1141                	addi	sp,sp,-16
   16248:	e022                	sd	s0,0(sp)
   1624a:	842e                	mv	s0,a1
   1624c:	01259583          	lh	a1,18(a1)
   16250:	e406                	sd	ra,8(sp)
   16252:	264030ef          	jal	ra,194b6 <_lseek_r>
   16256:	57fd                	li	a5,-1
   16258:	00f50d63          	beq	a0,a5,16272 <__sseek+0x2c>
   1625c:	01045783          	lhu	a5,16(s0)
   16260:	6705                	lui	a4,0x1
   16262:	60a2                	ld	ra,8(sp)
   16264:	8fd9                	or	a5,a5,a4
   16266:	e848                	sd	a0,144(s0)
   16268:	00f41823          	sh	a5,16(s0)
   1626c:	6402                	ld	s0,0(sp)
   1626e:	0141                	addi	sp,sp,16
   16270:	8082                	ret
   16272:	01045783          	lhu	a5,16(s0)
   16276:	777d                	lui	a4,0xfffff
   16278:	177d                	addi	a4,a4,-1
   1627a:	8ff9                	and	a5,a5,a4
   1627c:	60a2                	ld	ra,8(sp)
   1627e:	00f41823          	sh	a5,16(s0)
   16282:	6402                	ld	s0,0(sp)
   16284:	0141                	addi	sp,sp,16
   16286:	8082                	ret

0000000000016288 <__sclose>:
   16288:	01259583          	lh	a1,18(a1)
   1628c:	4610206f          	j	18eec <_close_r>

0000000000016290 <strcmp>:
   16290:	00b56733          	or	a4,a0,a1
   16294:	53fd                	li	t2,-1
   16296:	8b1d                	andi	a4,a4,7
   16298:	eb4d                	bnez	a4,1634a <strcmp+0xba>
   1629a:	00009797          	auipc	a5,0x9
   1629e:	c967b783          	ld	a5,-874(a5) # 1ef30 <mask>
   162a2:	6110                	ld	a2,0(a0)
   162a4:	6194                	ld	a3,0(a1)
   162a6:	00f672b3          	and	t0,a2,a5
   162aa:	00f66333          	or	t1,a2,a5
   162ae:	92be                	add	t0,t0,a5
   162b0:	0062e2b3          	or	t0,t0,t1
   162b4:	0a729963          	bne	t0,t2,16366 <strcmp+0xd6>
   162b8:	02d61e63          	bne	a2,a3,162f4 <strcmp+0x64>
   162bc:	6510                	ld	a2,8(a0)
   162be:	6594                	ld	a3,8(a1)
   162c0:	00f672b3          	and	t0,a2,a5
   162c4:	00f66333          	or	t1,a2,a5
   162c8:	92be                	add	t0,t0,a5
   162ca:	0062e2b3          	or	t0,t0,t1
   162ce:	08729a63          	bne	t0,t2,16362 <strcmp+0xd2>
   162d2:	02d61163          	bne	a2,a3,162f4 <strcmp+0x64>
   162d6:	6910                	ld	a2,16(a0)
   162d8:	6994                	ld	a3,16(a1)
   162da:	00f672b3          	and	t0,a2,a5
   162de:	00f66333          	or	t1,a2,a5
   162e2:	92be                	add	t0,t0,a5
   162e4:	0062e2b3          	or	t0,t0,t1
   162e8:	08729363          	bne	t0,t2,1636e <strcmp+0xde>
   162ec:	0561                	addi	a0,a0,24
   162ee:	05e1                	addi	a1,a1,24
   162f0:	fad609e3          	beq	a2,a3,162a2 <strcmp+0x12>
   162f4:	03061713          	slli	a4,a2,0x30
   162f8:	03069793          	slli	a5,a3,0x30
   162fc:	02f71863          	bne	a4,a5,1632c <strcmp+0x9c>
   16300:	02061713          	slli	a4,a2,0x20
   16304:	02069793          	slli	a5,a3,0x20
   16308:	02f71263          	bne	a4,a5,1632c <strcmp+0x9c>
   1630c:	01061713          	slli	a4,a2,0x10
   16310:	01069793          	slli	a5,a3,0x10
   16314:	00f71c63          	bne	a4,a5,1632c <strcmp+0x9c>
   16318:	03065713          	srli	a4,a2,0x30
   1631c:	0306d793          	srli	a5,a3,0x30
   16320:	40f70533          	sub	a0,a4,a5
   16324:	0ff57593          	andi	a1,a0,255
   16328:	e991                	bnez	a1,1633c <strcmp+0xac>
   1632a:	8082                	ret
   1632c:	9341                	srli	a4,a4,0x30
   1632e:	93c1                	srli	a5,a5,0x30
   16330:	40f70533          	sub	a0,a4,a5
   16334:	0ff57593          	andi	a1,a0,255
   16338:	e191                	bnez	a1,1633c <strcmp+0xac>
   1633a:	8082                	ret
   1633c:	0ff77713          	andi	a4,a4,255
   16340:	0ff7f793          	andi	a5,a5,255
   16344:	40f70533          	sub	a0,a4,a5
   16348:	8082                	ret
   1634a:	00054603          	lbu	a2,0(a0)
   1634e:	0005c683          	lbu	a3,0(a1)
   16352:	0505                	addi	a0,a0,1
   16354:	0585                	addi	a1,a1,1
   16356:	00d61363          	bne	a2,a3,1635c <strcmp+0xcc>
   1635a:	fa65                	bnez	a2,1634a <strcmp+0xba>
   1635c:	40d60533          	sub	a0,a2,a3
   16360:	8082                	ret
   16362:	0521                	addi	a0,a0,8
   16364:	05a1                	addi	a1,a1,8
   16366:	fed612e3          	bne	a2,a3,1634a <strcmp+0xba>
   1636a:	4501                	li	a0,0
   1636c:	8082                	ret
   1636e:	0541                	addi	a0,a0,16
   16370:	05c1                	addi	a1,a1,16
   16372:	fcd61ce3          	bne	a2,a3,1634a <strcmp+0xba>
   16376:	4501                	li	a0,0
   16378:	8082                	ret

000000000001637a <strcpy>:
   1637a:	00b567b3          	or	a5,a0,a1
   1637e:	8b9d                	andi	a5,a5,7
   16380:	efad                	bnez	a5,163fa <strcpy+0x80>
   16382:	7401b683          	ld	a3,1856(gp) # 1ef30 <mask>
   16386:	6198                	ld	a4,0(a1)
   16388:	567d                	li	a2,-1
   1638a:	00d777b3          	and	a5,a4,a3
   1638e:	97b6                	add	a5,a5,a3
   16390:	8fd9                	or	a5,a5,a4
   16392:	8fd5                	or	a5,a5,a3
   16394:	06c79c63          	bne	a5,a2,1640c <strcpy+0x92>
   16398:	862a                	mv	a2,a0
   1639a:	587d                	li	a6,-1
   1639c:	e218                	sd	a4,0(a2)
   1639e:	6598                	ld	a4,8(a1)
   163a0:	05a1                	addi	a1,a1,8
   163a2:	0621                	addi	a2,a2,8
   163a4:	00d777b3          	and	a5,a4,a3
   163a8:	97b6                	add	a5,a5,a3
   163aa:	8fd9                	or	a5,a5,a4
   163ac:	8fd5                	or	a5,a5,a3
   163ae:	ff0787e3          	beq	a5,a6,1639c <strcpy+0x22>
   163b2:	0005c783          	lbu	a5,0(a1)
   163b6:	0015c703          	lbu	a4,1(a1)
   163ba:	0025c683          	lbu	a3,2(a1)
   163be:	00f60023          	sb	a5,0(a2) # 3fe00000 <__BSS_END__+0x3fde1010>
   163c2:	cb9d                	beqz	a5,163f8 <strcpy+0x7e>
   163c4:	00e600a3          	sb	a4,1(a2)
   163c8:	cb05                	beqz	a4,163f8 <strcpy+0x7e>
   163ca:	0035c783          	lbu	a5,3(a1)
   163ce:	00d60123          	sb	a3,2(a2)
   163d2:	c29d                	beqz	a3,163f8 <strcpy+0x7e>
   163d4:	0045c703          	lbu	a4,4(a1)
   163d8:	00f601a3          	sb	a5,3(a2)
   163dc:	cf91                	beqz	a5,163f8 <strcpy+0x7e>
   163de:	0055c783          	lbu	a5,5(a1)
   163e2:	00e60223          	sb	a4,4(a2)
   163e6:	cb09                	beqz	a4,163f8 <strcpy+0x7e>
   163e8:	0065c703          	lbu	a4,6(a1)
   163ec:	00f602a3          	sb	a5,5(a2)
   163f0:	c781                	beqz	a5,163f8 <strcpy+0x7e>
   163f2:	00e60323          	sb	a4,6(a2)
   163f6:	ef09                	bnez	a4,16410 <strcpy+0x96>
   163f8:	8082                	ret
   163fa:	87aa                	mv	a5,a0
   163fc:	0005c703          	lbu	a4,0(a1)
   16400:	0785                	addi	a5,a5,1
   16402:	0585                	addi	a1,a1,1
   16404:	fee78fa3          	sb	a4,-1(a5)
   16408:	fb75                	bnez	a4,163fc <strcpy+0x82>
   1640a:	8082                	ret
   1640c:	862a                	mv	a2,a0
   1640e:	b755                	j	163b2 <strcpy+0x38>
   16410:	000603a3          	sb	zero,7(a2)
   16414:	8082                	ret

0000000000016416 <strlen>:
   16416:	00757793          	andi	a5,a0,7
   1641a:	872a                	mv	a4,a0
   1641c:	eba9                	bnez	a5,1646e <strlen+0x58>
   1641e:	7401b683          	ld	a3,1856(gp) # 1ef30 <mask>
   16422:	55fd                	li	a1,-1
   16424:	6310                	ld	a2,0(a4)
   16426:	0721                	addi	a4,a4,8
   16428:	00d677b3          	and	a5,a2,a3
   1642c:	97b6                	add	a5,a5,a3
   1642e:	8fd1                	or	a5,a5,a2
   16430:	8fd5                	or	a5,a5,a3
   16432:	feb789e3          	beq	a5,a1,16424 <strlen+0xe>
   16436:	ff874683          	lbu	a3,-8(a4) # ffffffffffffeff8 <__BSS_END__+0xfffffffffffe0008>
   1643a:	40a707b3          	sub	a5,a4,a0
   1643e:	c6a9                	beqz	a3,16488 <strlen+0x72>
   16440:	ff974683          	lbu	a3,-7(a4)
   16444:	ce9d                	beqz	a3,16482 <strlen+0x6c>
   16446:	ffa74683          	lbu	a3,-6(a4)
   1644a:	c6a9                	beqz	a3,16494 <strlen+0x7e>
   1644c:	ffb74683          	lbu	a3,-5(a4)
   16450:	ce9d                	beqz	a3,1648e <strlen+0x78>
   16452:	ffc74683          	lbu	a3,-4(a4)
   16456:	ffd74603          	lbu	a2,-3(a4)
   1645a:	ffe74503          	lbu	a0,-2(a4)
   1645e:	ce95                	beqz	a3,1649a <strlen+0x84>
   16460:	c221                	beqz	a2,164a0 <strlen+0x8a>
   16462:	00a03533          	snez	a0,a0
   16466:	953e                	add	a0,a0,a5
   16468:	1579                	addi	a0,a0,-2
   1646a:	8082                	ret
   1646c:	dacd                	beqz	a3,1641e <strlen+0x8>
   1646e:	00074783          	lbu	a5,0(a4)
   16472:	0705                	addi	a4,a4,1
   16474:	00777693          	andi	a3,a4,7
   16478:	fbf5                	bnez	a5,1646c <strlen+0x56>
   1647a:	8f09                	sub	a4,a4,a0
   1647c:	fff70513          	addi	a0,a4,-1
   16480:	8082                	ret
   16482:	ff978513          	addi	a0,a5,-7
   16486:	8082                	ret
   16488:	ff878513          	addi	a0,a5,-8
   1648c:	8082                	ret
   1648e:	ffb78513          	addi	a0,a5,-5
   16492:	8082                	ret
   16494:	ffa78513          	addi	a0,a5,-6
   16498:	8082                	ret
   1649a:	ffc78513          	addi	a0,a5,-4
   1649e:	8082                	ret
   164a0:	ffd78513          	addi	a0,a5,-3
   164a4:	8082                	ret

00000000000164a6 <strncpy>:
   164a6:	00a5e7b3          	or	a5,a1,a0
   164aa:	8b9d                	andi	a5,a5,7
   164ac:	872a                	mv	a4,a0
   164ae:	e7b1                	bnez	a5,164fa <strncpy+0x54>
   164b0:	479d                	li	a5,7
   164b2:	04c7f463          	bgeu	a5,a2,164fa <strncpy+0x54>
   164b6:	7181b303          	ld	t1,1816(gp) # 1ef08 <__SDATA_BEGIN__>
   164ba:	7201b883          	ld	a7,1824(gp) # 1ef10 <__SDATA_BEGIN__+0x8>
   164be:	4e1d                	li	t3,7
   164c0:	6194                	ld	a3,0(a1)
   164c2:	006687b3          	add	a5,a3,t1
   164c6:	fff6c813          	not	a6,a3
   164ca:	0107f7b3          	and	a5,a5,a6
   164ce:	0117f7b3          	and	a5,a5,a7
   164d2:	e785                	bnez	a5,164fa <strncpy+0x54>
   164d4:	e314                	sd	a3,0(a4)
   164d6:	1661                	addi	a2,a2,-8
   164d8:	0721                	addi	a4,a4,8
   164da:	05a1                	addi	a1,a1,8
   164dc:	fece62e3          	bltu	t3,a2,164c0 <strncpy+0x1a>
   164e0:	0585                	addi	a1,a1,1
   164e2:	00170793          	addi	a5,a4,1
   164e6:	ce11                	beqz	a2,16502 <strncpy+0x5c>
   164e8:	fff5c683          	lbu	a3,-1(a1)
   164ec:	fff60813          	addi	a6,a2,-1
   164f0:	fed78fa3          	sb	a3,-1(a5)
   164f4:	ca81                	beqz	a3,16504 <strncpy+0x5e>
   164f6:	873e                	mv	a4,a5
   164f8:	8642                	mv	a2,a6
   164fa:	0585                	addi	a1,a1,1
   164fc:	00170793          	addi	a5,a4,1
   16500:	f665                	bnez	a2,164e8 <strncpy+0x42>
   16502:	8082                	ret
   16504:	963a                	add	a2,a2,a4
   16506:	00080863          	beqz	a6,16516 <strncpy+0x70>
   1650a:	0785                	addi	a5,a5,1
   1650c:	fe078fa3          	sb	zero,-1(a5)
   16510:	fec79de3          	bne	a5,a2,1650a <strncpy+0x64>
   16514:	8082                	ret
   16516:	8082                	ret

0000000000016518 <_svfprintf_r>:
   16518:	d8010113          	addi	sp,sp,-640
   1651c:	26113c23          	sd	ra,632(sp)
   16520:	25313c23          	sd	s3,600(sp)
   16524:	25413823          	sd	s4,592(sp)
   16528:	23a13023          	sd	s10,544(sp)
   1652c:	8a2e                	mv	s4,a1
   1652e:	8d32                	mv	s10,a2
   16530:	ec36                	sd	a3,24(sp)
   16532:	26813823          	sd	s0,624(sp)
   16536:	26913423          	sd	s1,616(sp)
   1653a:	27213023          	sd	s2,608(sp)
   1653e:	25513423          	sd	s5,584(sp)
   16542:	25613023          	sd	s6,576(sp)
   16546:	23713c23          	sd	s7,568(sp)
   1654a:	23813823          	sd	s8,560(sp)
   1654e:	23913423          	sd	s9,552(sp)
   16552:	21b13c23          	sd	s11,536(sp)
   16556:	89aa                	mv	s3,a0
   16558:	f0cfe0ef          	jal	ra,14c64 <_localeconv_r>
   1655c:	611c                	ld	a5,0(a0)
   1655e:	853e                	mv	a0,a5
   16560:	f8be                	sd	a5,112(sp)
   16562:	eb5ff0ef          	jal	ra,16416 <strlen>
   16566:	010a5783          	lhu	a5,16(s4)
   1656a:	e202                	sd	zero,256(sp)
   1656c:	e602                	sd	zero,264(sp)
   1656e:	0807f793          	andi	a5,a5,128
   16572:	f4aa                	sd	a0,104(sp)
   16574:	c791                	beqz	a5,16580 <_svfprintf_r+0x68>
   16576:	018a3783          	ld	a5,24(s4)
   1657a:	e399                	bnez	a5,16580 <_svfprintf_r+0x68>
   1657c:	7cb0006f          	j	17546 <_svfprintf_r+0x102e>
   16580:	67f1                	lui	a5,0x1c
   16582:	3087b783          	ld	a5,776(a5) # 1c308 <zeroes.4521+0x40>
   16586:	19010b13          	addi	s6,sp,400
   1658a:	ea5a                	sd	s6,272(sp)
   1658c:	f13e                	sd	a5,160(sp)
   1658e:	67f1                	lui	a5,0x1c
   16590:	2e87b783          	ld	a5,744(a5) # 1c2e8 <zeroes.4521+0x20>
   16594:	f202                	sd	zero,288(sp)
   16596:	10012c23          	sw	zero,280(sp)
   1659a:	e93e                	sd	a5,144(sp)
   1659c:	67f1                	lui	a5,0x1c
   1659e:	2f87b783          	ld	a5,760(a5) # 1c2f8 <zeroes.4521+0x30>
   165a2:	f002                	sd	zero,32(sp)
   165a4:	f402                	sd	zero,40(sp)
   165a6:	ed3e                	sd	a5,152(sp)
   165a8:	000d4783          	lbu	a5,0(s10) # 4000 <register_fini-0xc0e8>
   165ac:	fc82                	sd	zero,120(sp)
   165ae:	f082                	sd	zero,96(sp)
   165b0:	e102                	sd	zero,128(sp)
   165b2:	e502                	sd	zero,136(sp)
   165b4:	e402                	sd	zero,8(sp)
   165b6:	835a                	mv	t1,s6
   165b8:	1c078463          	beqz	a5,16780 <_svfprintf_r+0x268>
   165bc:	846a                	mv	s0,s10
   165be:	02500713          	li	a4,37
   165c2:	2ce78963          	beq	a5,a4,16894 <_svfprintf_r+0x37c>
   165c6:	00144783          	lbu	a5,1(s0)
   165ca:	0405                	addi	s0,s0,1
   165cc:	fbfd                	bnez	a5,165c2 <_svfprintf_r+0xaa>
   165ce:	41a404bb          	subw	s1,s0,s10
   165d2:	1a048763          	beqz	s1,16780 <_svfprintf_r+0x268>
   165d6:	7712                	ld	a4,288(sp)
   165d8:	11812783          	lw	a5,280(sp)
   165dc:	01a33023          	sd	s10,0(t1) # ffffffff80000000 <__BSS_END__+0xffffffff7ffe1010>
   165e0:	9726                	add	a4,a4,s1
   165e2:	2785                	addiw	a5,a5,1
   165e4:	00933423          	sd	s1,8(t1)
   165e8:	f23a                	sd	a4,288(sp)
   165ea:	10f12c23          	sw	a5,280(sp)
   165ee:	0007871b          	sext.w	a4,a5
   165f2:	479d                	li	a5,7
   165f4:	0341                	addi	t1,t1,16
   165f6:	2ae7c663          	blt	a5,a4,168a2 <_svfprintf_r+0x38a>
   165fa:	6722                	ld	a4,8(sp)
   165fc:	00044783          	lbu	a5,0(s0)
   16600:	9f25                	addw	a4,a4,s1
   16602:	e43a                	sd	a4,8(sp)
   16604:	16078e63          	beqz	a5,16780 <_svfprintf_r+0x268>
   16608:	67f1                	lui	a5,0x1c
   1660a:	00144e83          	lbu	t4,1(s0)
   1660e:	0c010fa3          	sb	zero,223(sp)
   16612:	0405                	addi	s0,s0,1
   16614:	5c7d                	li	s8,-1
   16616:	4a81                	li	s5,0
   16618:	4481                	li	s1,0
   1661a:	05a00913          	li	s2,90
   1661e:	6f078b93          	addi	s7,a5,1776 # 1c6f0 <__mprec_bigtens+0x28>
   16622:	4da5                	li	s11,9
   16624:	0405                	addi	s0,s0,1
   16626:	000e8c9b          	sext.w	s9,t4
   1662a:	02a00693          	li	a3,42
   1662e:	fe0c879b          	addiw	a5,s9,-32
   16632:	0007871b          	sext.w	a4,a5
   16636:	04e96163          	bltu	s2,a4,16678 <_svfprintf_r+0x160>
   1663a:	1782                	slli	a5,a5,0x20
   1663c:	83f9                	srli	a5,a5,0x1e
   1663e:	97de                	add	a5,a5,s7
   16640:	439c                	lw	a5,0(a5)
   16642:	8782                	jr	a5
   16644:	4a81                	li	s5,0
   16646:	00044703          	lbu	a4,0(s0)
   1664a:	002a979b          	slliw	a5,s5,0x2
   1664e:	01578abb          	addw	s5,a5,s5
   16652:	fd0c8e9b          	addiw	t4,s9,-48
   16656:	001a9a9b          	slliw	s5,s5,0x1
   1665a:	fd07079b          	addiw	a5,a4,-48
   1665e:	0405                	addi	s0,s0,1
   16660:	015e8abb          	addw	s5,t4,s5
   16664:	00070c9b          	sext.w	s9,a4
   16668:	fcfdffe3          	bgeu	s11,a5,16646 <_svfprintf_r+0x12e>
   1666c:	fe0c879b          	addiw	a5,s9,-32
   16670:	0007871b          	sext.w	a4,a5
   16674:	fce973e3          	bgeu	s2,a4,1663a <_svfprintf_r+0x122>
   16678:	100c8463          	beqz	s9,16780 <_svfprintf_r+0x268>
   1667c:	13910423          	sb	s9,296(sp)
   16680:	0c010fa3          	sb	zero,223(sp)
   16684:	4905                	li	s2,1
   16686:	4b85                	li	s7,1
   16688:	12810d13          	addi	s10,sp,296
   1668c:	e802                	sd	zero,16(sp)
   1668e:	4c01                	li	s8,0
   16690:	e482                	sd	zero,72(sp)
   16692:	ec82                	sd	zero,88(sp)
   16694:	e882                	sd	zero,80(sp)
   16696:	0024f793          	andi	a5,s1,2
   1669a:	0007829b          	sext.w	t0,a5
   1669e:	c391                	beqz	a5,166a2 <_svfprintf_r+0x18a>
   166a0:	2909                	addiw	s2,s2,2
   166a2:	0844fd93          	andi	s11,s1,132
   166a6:	7792                	ld	a5,288(sp)
   166a8:	000d9663          	bnez	s11,166b4 <_svfprintf_r+0x19c>
   166ac:	412a86bb          	subw	a3,s5,s2
   166b0:	20d04ce3          	bgtz	a3,170c8 <_svfprintf_r+0xbb0>
   166b4:	0df14703          	lbu	a4,223(sp)
   166b8:	c70d                	beqz	a4,166e2 <_svfprintf_r+0x1ca>
   166ba:	11812703          	lw	a4,280(sp)
   166be:	0df10693          	addi	a3,sp,223
   166c2:	00d33023          	sd	a3,0(t1)
   166c6:	2705                	addiw	a4,a4,1
   166c8:	4685                	li	a3,1
   166ca:	0785                	addi	a5,a5,1
   166cc:	00d33423          	sd	a3,8(t1)
   166d0:	10e12c23          	sw	a4,280(sp)
   166d4:	0007069b          	sext.w	a3,a4
   166d8:	f23e                	sd	a5,288(sp)
   166da:	471d                	li	a4,7
   166dc:	0341                	addi	t1,t1,16
   166de:	3ed74463          	blt	a4,a3,16ac6 <_svfprintf_r+0x5ae>
   166e2:	02028563          	beqz	t0,1670c <_svfprintf_r+0x1f4>
   166e6:	11812703          	lw	a4,280(sp)
   166ea:	1194                	addi	a3,sp,224
   166ec:	00d33023          	sd	a3,0(t1)
   166f0:	2705                	addiw	a4,a4,1
   166f2:	4689                	li	a3,2
   166f4:	0789                	addi	a5,a5,2
   166f6:	00d33423          	sd	a3,8(t1)
   166fa:	10e12c23          	sw	a4,280(sp)
   166fe:	0007069b          	sext.w	a3,a4
   16702:	f23e                	sd	a5,288(sp)
   16704:	471d                	li	a4,7
   16706:	0341                	addi	t1,t1,16
   16708:	24d74ae3          	blt	a4,a3,1715c <_svfprintf_r+0xc44>
   1670c:	08000713          	li	a4,128
   16710:	06ed80e3          	beq	s11,a4,16f70 <_svfprintf_r+0xa58>
   16714:	417c0c3b          	subw	s8,s8,s7
   16718:	0f8046e3          	bgtz	s8,17004 <_svfprintf_r+0xaec>
   1671c:	1004f713          	andi	a4,s1,256
   16720:	74071363          	bnez	a4,16e66 <_svfprintf_r+0x94e>
   16724:	11812703          	lw	a4,280(sp)
   16728:	97de                	add	a5,a5,s7
   1672a:	01a33023          	sd	s10,0(t1)
   1672e:	0017069b          	addiw	a3,a4,1
   16732:	8736                	mv	a4,a3
   16734:	01733423          	sd	s7,8(t1)
   16738:	10e12c23          	sw	a4,280(sp)
   1673c:	f23e                	sd	a5,288(sp)
   1673e:	471d                	li	a4,7
   16740:	44d74f63          	blt	a4,a3,16b9e <_svfprintf_r+0x686>
   16744:	0341                	addi	t1,t1,16
   16746:	8891                	andi	s1,s1,4
   16748:	c489                	beqz	s1,16752 <_svfprintf_r+0x23a>
   1674a:	412a84bb          	subw	s1,s5,s2
   1674e:	229041e3          	bgtz	s1,17170 <_svfprintf_r+0xc58>
   16752:	8756                	mv	a4,s5
   16754:	012ad363          	bge	s5,s2,1675a <_svfprintf_r+0x242>
   16758:	874a                	mv	a4,s2
   1675a:	66a2                	ld	a3,8(sp)
   1675c:	9f35                	addw	a4,a4,a3
   1675e:	e43a                	sd	a4,8(sp)
   16760:	120793e3          	bnez	a5,17086 <_svfprintf_r+0xb6e>
   16764:	67c2                	ld	a5,16(sp)
   16766:	10012c23          	sw	zero,280(sp)
   1676a:	c789                	beqz	a5,16774 <_svfprintf_r+0x25c>
   1676c:	65c2                	ld	a1,16(sp)
   1676e:	854e                	mv	a0,s3
   16770:	92afc0ef          	jal	ra,1289a <_free_r>
   16774:	835a                	mv	t1,s6
   16776:	8d22                	mv	s10,s0
   16778:	000d4783          	lbu	a5,0(s10)
   1677c:	e40790e3          	bnez	a5,165bc <_svfprintf_r+0xa4>
   16780:	7792                	ld	a5,288(sp)
   16782:	c399                	beqz	a5,16788 <_svfprintf_r+0x270>
   16784:	2ba0106f          	j	17a3e <_svfprintf_r+0x1526>
   16788:	010a5783          	lhu	a5,16(s4)
   1678c:	0407f793          	andi	a5,a5,64
   16790:	c399                	beqz	a5,16796 <_svfprintf_r+0x27e>
   16792:	7400106f          	j	17ed2 <_svfprintf_r+0x19ba>
   16796:	27813083          	ld	ra,632(sp)
   1679a:	27013403          	ld	s0,624(sp)
   1679e:	6522                	ld	a0,8(sp)
   167a0:	26813483          	ld	s1,616(sp)
   167a4:	26013903          	ld	s2,608(sp)
   167a8:	25813983          	ld	s3,600(sp)
   167ac:	25013a03          	ld	s4,592(sp)
   167b0:	24813a83          	ld	s5,584(sp)
   167b4:	24013b03          	ld	s6,576(sp)
   167b8:	23813b83          	ld	s7,568(sp)
   167bc:	23013c03          	ld	s8,560(sp)
   167c0:	22813c83          	ld	s9,552(sp)
   167c4:	22013d03          	ld	s10,544(sp)
   167c8:	21813d83          	ld	s11,536(sp)
   167cc:	28010113          	addi	sp,sp,640
   167d0:	8082                	ret
   167d2:	0104e493          	ori	s1,s1,16
   167d6:	00044e83          	lbu	t4,0(s0)
   167da:	2481                	sext.w	s1,s1
   167dc:	b5a1                	j	16624 <_svfprintf_r+0x10c>
   167de:	0104e493          	ori	s1,s1,16
   167e2:	2481                	sext.w	s1,s1
   167e4:	66e2                	ld	a3,24(sp)
   167e6:	0204f793          	andi	a5,s1,32
   167ea:	00868713          	addi	a4,a3,8
   167ee:	3e078163          	beqz	a5,16bd0 <_svfprintf_r+0x6b8>
   167f2:	629c                	ld	a5,0(a3)
   167f4:	893e                	mv	s2,a5
   167f6:	3e07cb63          	bltz	a5,16bec <_svfprintf_r+0x6d4>
   167fa:	57fd                	li	a5,-1
   167fc:	42fc06e3          	beq	s8,a5,17428 <_svfprintf_r+0xf10>
   16800:	f7f4f493          	andi	s1,s1,-129
   16804:	ec3a                	sd	a4,24(sp)
   16806:	00048d9b          	sext.w	s11,s1
   1680a:	0a0912e3          	bnez	s2,170ae <_svfprintf_r+0xb96>
   1680e:	0a0c13e3          	bnez	s8,170b4 <_svfprintf_r+0xb9c>
   16812:	84ee                	mv	s1,s11
   16814:	4c01                	li	s8,0
   16816:	4b81                	li	s7,0
   16818:	18c10d13          	addi	s10,sp,396
   1681c:	000b891b          	sext.w	s2,s7
   16820:	018bd463          	bge	s7,s8,16828 <_svfprintf_r+0x310>
   16824:	000c091b          	sext.w	s2,s8
   16828:	0df14783          	lbu	a5,223(sp)
   1682c:	e802                	sd	zero,16(sp)
   1682e:	e482                	sd	zero,72(sp)
   16830:	ec82                	sd	zero,88(sp)
   16832:	e882                	sd	zero,80(sp)
   16834:	e60781e3          	beqz	a5,16696 <_svfprintf_r+0x17e>
   16838:	2905                	addiw	s2,s2,1
   1683a:	bdb1                	j	16696 <_svfprintf_r+0x17e>
   1683c:	0104e493          	ori	s1,s1,16
   16840:	2481                	sext.w	s1,s1
   16842:	66e2                	ld	a3,24(sp)
   16844:	0204f793          	andi	a5,s1,32
   16848:	00868713          	addi	a4,a3,8
   1684c:	36078363          	beqz	a5,16bb2 <_svfprintf_r+0x69a>
   16850:	0006b903          	ld	s2,0(a3)
   16854:	bff4f493          	andi	s1,s1,-1025
   16858:	00048d9b          	sext.w	s11,s1
   1685c:	ec3a                	sd	a4,24(sp)
   1685e:	4781                	li	a5,0
   16860:	0c010fa3          	sb	zero,223(sp)
   16864:	577d                	li	a4,-1
   16866:	38ec0f63          	beq	s8,a4,16c04 <_svfprintf_r+0x6ec>
   1686a:	f7fdf493          	andi	s1,s11,-129
   1686e:	2481                	sext.w	s1,s1
   16870:	02091be3          	bnez	s2,170a6 <_svfprintf_r+0xb8e>
   16874:	6c0c1163          	bnez	s8,16f36 <_svfprintf_r+0xa1e>
   16878:	ffd1                	bnez	a5,16814 <_svfprintf_r+0x2fc>
   1687a:	001dfb93          	andi	s7,s11,1
   1687e:	18c10d13          	addi	s10,sp,396
   16882:	f80b8de3          	beqz	s7,1681c <_svfprintf_r+0x304>
   16886:	03000793          	li	a5,48
   1688a:	18f105a3          	sb	a5,395(sp)
   1688e:	18b10d13          	addi	s10,sp,395
   16892:	b769                	j	1681c <_svfprintf_r+0x304>
   16894:	41a404bb          	subw	s1,s0,s10
   16898:	d2049fe3          	bnez	s1,165d6 <_svfprintf_r+0xbe>
   1689c:	00044783          	lbu	a5,0(s0)
   168a0:	b395                	j	16604 <_svfprintf_r+0xec>
   168a2:	0a10                	addi	a2,sp,272
   168a4:	85d2                	mv	a1,s4
   168a6:	854e                	mv	a0,s3
   168a8:	30e030ef          	jal	ra,19bb6 <__ssprint_r>
   168ac:	ec051ee3          	bnez	a0,16788 <_svfprintf_r+0x270>
   168b0:	835a                	mv	t1,s6
   168b2:	b3a1                	j	165fa <_svfprintf_r+0xe2>
   168b4:	0084f793          	andi	a5,s1,8
   168b8:	340798e3          	bnez	a5,17408 <_svfprintf_r+0xef0>
   168bc:	67e2                	ld	a5,24(sp)
   168be:	e81a                	sd	t1,16(sp)
   168c0:	2388                	fld	fa0,0(a5)
   168c2:	07a1                	addi	a5,a5,8
   168c4:	ec3e                	sd	a5,24(sp)
   168c6:	43c050ef          	jal	ra,1bd02 <__extenddftf2>
   168ca:	6342                	ld	t1,16(sp)
   168cc:	e22a                	sd	a0,256(sp)
   168ce:	e62e                	sd	a1,264(sp)
   168d0:	0208                	addi	a0,sp,256
   168d2:	e81a                	sd	t1,16(sp)
   168d4:	b54fe0ef          	jal	ra,14c28 <_ldcheck>
   168d8:	d5aa                	sw	a0,232(sp)
   168da:	4789                	li	a5,2
   168dc:	6342                	ld	t1,16(sp)
   168de:	74f506e3          	beq	a0,a5,1782a <_svfprintf_r+0x1312>
   168e2:	4785                	li	a5,1
   168e4:	00f51463          	bne	a0,a5,168ec <_svfprintf_r+0x3d4>
   168e8:	0980106f          	j	17980 <_svfprintf_r+0x1468>
   168ec:	06100793          	li	a5,97
   168f0:	00fc9463          	bne	s9,a5,168f8 <_svfprintf_r+0x3e0>
   168f4:	5480106f          	j	17e3c <_svfprintf_r+0x1924>
   168f8:	04100793          	li	a5,65
   168fc:	00fc9463          	bne	s9,a5,16904 <_svfprintf_r+0x3ec>
   16900:	3560106f          	j	17c56 <_svfprintf_r+0x173e>
   16904:	fdfcf713          	andi	a4,s9,-33
   16908:	57fd                	li	a5,-1
   1690a:	ecba                	sd	a4,88(sp)
   1690c:	00fc1463          	bne	s8,a5,16914 <_svfprintf_r+0x3fc>
   16910:	1680106f          	j	17a78 <_svfprintf_r+0x1560>
   16914:	04700793          	li	a5,71
   16918:	00f71463          	bne	a4,a5,16920 <_svfprintf_r+0x408>
   1691c:	5720106f          	j	17e8e <_svfprintf_r+0x1976>
   16920:	6bb2                	ld	s7,264(sp)
   16922:	1004e793          	ori	a5,s1,256
   16926:	f526                	sd	s1,168(sp)
   16928:	6d92                	ld	s11,256(sp)
   1692a:	2781                	sext.w	a5,a5
   1692c:	000bd463          	bgez	s7,16934 <_svfprintf_r+0x41c>
   16930:	69a0106f          	j	17fca <_svfprintf_r+0x1ab2>
   16934:	e582                	sd	zero,200(sp)
   16936:	84be                	mv	s1,a5
   16938:	e802                	sd	zero,16(sp)
   1693a:	2701                	sext.w	a4,a4
   1693c:	04600793          	li	a5,70
   16940:	00f71463          	bne	a4,a5,16948 <_svfprintf_r+0x430>
   16944:	1d40106f          	j	17b18 <_svfprintf_r+0x1600>
   16948:	6766                	ld	a4,88(sp)
   1694a:	04500793          	li	a5,69
   1694e:	f01a                	sd	t1,32(sp)
   16950:	00f70463          	beq	a4,a5,16958 <_svfprintf_r+0x440>
   16954:	2400106f          	j	17b94 <_svfprintf_r+0x167c>
   16958:	001c091b          	addiw	s2,s8,1
   1695c:	874a                	mv	a4,s2
   1695e:	0f810893          	addi	a7,sp,248
   16962:	0ec10813          	addi	a6,sp,236
   16966:	11bc                	addi	a5,sp,232
   16968:	4689                	li	a3,2
   1696a:	85ee                	mv	a1,s11
   1696c:	865e                	mv	a2,s7
   1696e:	854e                	mv	a0,s3
   16970:	c7efd0ef          	jal	ra,13dee <_ldtoa_r>
   16974:	7302                	ld	t1,32(sp)
   16976:	8d2a                	mv	s10,a0
   16978:	992a                	add	s2,s2,a0
   1697a:	4681                	li	a3,0
   1697c:	4601                	li	a2,0
   1697e:	856e                	mv	a0,s11
   16980:	85de                	mv	a1,s7
   16982:	f01a                	sd	t1,32(sp)
   16984:	27c040ef          	jal	ra,1ac00 <__eqtf2>
   16988:	7302                	ld	t1,32(sp)
   1698a:	86ca                	mv	a3,s2
   1698c:	cd11                	beqz	a0,169a8 <_svfprintf_r+0x490>
   1698e:	76ee                	ld	a3,248(sp)
   16990:	0126fc63          	bgeu	a3,s2,169a8 <_svfprintf_r+0x490>
   16994:	03000713          	li	a4,48
   16998:	00168793          	addi	a5,a3,1
   1699c:	fdbe                	sd	a5,248(sp)
   1699e:	00e68023          	sb	a4,0(a3)
   169a2:	76ee                	ld	a3,248(sp)
   169a4:	ff26eae3          	bltu	a3,s2,16998 <_svfprintf_r+0x480>
   169a8:	41a687bb          	subw	a5,a3,s10
   169ac:	f03e                	sd	a5,32(sp)
   169ae:	572e                	lw	a4,232(sp)
   169b0:	04700793          	li	a5,71
   169b4:	e8ba                	sd	a4,80(sp)
   169b6:	6766                	ld	a4,88(sp)
   169b8:	00f71463          	bne	a4,a5,169c0 <_svfprintf_r+0x4a8>
   169bc:	0d00106f          	j	17a8c <_svfprintf_r+0x1574>
   169c0:	6766                	ld	a4,88(sp)
   169c2:	04600793          	li	a5,70
   169c6:	00f71463          	bne	a4,a5,169ce <_svfprintf_r+0x4b6>
   169ca:	2720106f          	j	17c3c <_svfprintf_r+0x1724>
   169ce:	67c6                	ld	a5,80(sp)
   169d0:	65e6                	ld	a1,88(sp)
   169d2:	04100613          	li	a2,65
   169d6:	37fd                	addiw	a5,a5,-1
   169d8:	d5be                	sw	a5,232(sp)
   169da:	0ffcf713          	andi	a4,s9,255
   169de:	4681                	li	a3,0
   169e0:	00c59663          	bne	a1,a2,169ec <_svfprintf_r+0x4d4>
   169e4:	273d                	addiw	a4,a4,15
   169e6:	0ff77713          	andi	a4,a4,255
   169ea:	4685                	li	a3,1
   169ec:	0ee10823          	sb	a4,240(sp)
   169f0:	02b00713          	li	a4,43
   169f4:	0007d763          	bgez	a5,16a02 <_svfprintf_r+0x4ea>
   169f8:	6746                	ld	a4,80(sp)
   169fa:	4785                	li	a5,1
   169fc:	9f99                	subw	a5,a5,a4
   169fe:	02d00713          	li	a4,45
   16a02:	0ee108a3          	sb	a4,241(sp)
   16a06:	4725                	li	a4,9
   16a08:	00f74463          	blt	a4,a5,16a10 <_svfprintf_r+0x4f8>
   16a0c:	50c0106f          	j	17f18 <_svfprintf_r+0x1a00>
   16a10:	0ff10513          	addi	a0,sp,255
   16a14:	85aa                	mv	a1,a0
   16a16:	46a9                	li	a3,10
   16a18:	06300e13          	li	t3,99
   16a1c:	02d7e73b          	remw	a4,a5,a3
   16a20:	862e                	mv	a2,a1
   16a22:	88be                	mv	a7,a5
   16a24:	15fd                	addi	a1,a1,-1
   16a26:	0307071b          	addiw	a4,a4,48
   16a2a:	fee60fa3          	sb	a4,-1(a2)
   16a2e:	02d7c7bb          	divw	a5,a5,a3
   16a32:	ff1e45e3          	blt	t3,a7,16a1c <_svfprintf_r+0x504>
   16a36:	0307879b          	addiw	a5,a5,48
   16a3a:	0ff7f693          	andi	a3,a5,255
   16a3e:	fed58fa3          	sb	a3,-1(a1)
   16a42:	ffe60793          	addi	a5,a2,-2
   16a46:	00a7e463          	bltu	a5,a0,16a4e <_svfprintf_r+0x536>
   16a4a:	6060106f          	j	18050 <_svfprintf_r+0x1b38>
   16a4e:	0f210713          	addi	a4,sp,242
   16a52:	a019                	j	16a58 <_svfprintf_r+0x540>
   16a54:	0007c683          	lbu	a3,0(a5)
   16a58:	00d70023          	sb	a3,0(a4)
   16a5c:	0785                	addi	a5,a5,1
   16a5e:	0705                	addi	a4,a4,1
   16a60:	fea79ae3          	bne	a5,a0,16a54 <_svfprintf_r+0x53c>
   16a64:	10110793          	addi	a5,sp,257
   16a68:	0f210713          	addi	a4,sp,242
   16a6c:	8f91                	sub	a5,a5,a2
   16a6e:	97ba                	add	a5,a5,a4
   16a70:	1998                	addi	a4,sp,240
   16a72:	9f99                	subw	a5,a5,a4
   16a74:	fcbe                	sd	a5,120(sp)
   16a76:	77e6                	ld	a5,120(sp)
   16a78:	7682                	ld	a3,32(sp)
   16a7a:	4705                	li	a4,1
   16a7c:	00f68bbb          	addw	s7,a3,a5
   16a80:	87de                	mv	a5,s7
   16a82:	00d74463          	blt	a4,a3,16a8a <_svfprintf_r+0x572>
   16a86:	5660106f          	j	17fec <_svfprintf_r+0x1ad4>
   16a8a:	7726                	ld	a4,104(sp)
   16a8c:	00e78bbb          	addw	s7,a5,a4
   16a90:	77aa                	ld	a5,168(sp)
   16a92:	fffbc913          	not	s2,s7
   16a96:	43f95913          	srai	s2,s2,0x3f
   16a9a:	bff7f493          	andi	s1,a5,-1025
   16a9e:	2481                	sext.w	s1,s1
   16aa0:	012bf933          	and	s2,s7,s2
   16aa4:	1004e493          	ori	s1,s1,256
   16aa8:	2901                	sext.w	s2,s2
   16aaa:	e482                	sd	zero,72(sp)
   16aac:	ec82                	sd	zero,88(sp)
   16aae:	e882                	sd	zero,80(sp)
   16ab0:	67ae                	ld	a5,200(sp)
   16ab2:	e399                	bnez	a5,16ab8 <_svfprintf_r+0x5a0>
   16ab4:	02e0106f          	j	17ae2 <_svfprintf_r+0x15ca>
   16ab8:	02d00793          	li	a5,45
   16abc:	0cf10fa3          	sb	a5,223(sp)
   16ac0:	4c01                	li	s8,0
   16ac2:	2905                	addiw	s2,s2,1
   16ac4:	bec9                	j	16696 <_svfprintf_r+0x17e>
   16ac6:	0a10                	addi	a2,sp,272
   16ac8:	85d2                	mv	a1,s4
   16aca:	854e                	mv	a0,s3
   16acc:	f816                	sd	t0,48(sp)
   16ace:	0e8030ef          	jal	ra,19bb6 <__ssprint_r>
   16ad2:	5c051163          	bnez	a0,17094 <_svfprintf_r+0xb7c>
   16ad6:	7792                	ld	a5,288(sp)
   16ad8:	72c2                	ld	t0,48(sp)
   16ada:	835a                	mv	t1,s6
   16adc:	b119                	j	166e2 <_svfprintf_r+0x1ca>
   16ade:	11812603          	lw	a2,280(sp)
   16ae2:	00178c13          	addi	s8,a5,1
   16ae6:	7782                	ld	a5,32(sp)
   16ae8:	0016071b          	addiw	a4,a2,1
   16aec:	4585                	li	a1,1
   16aee:	01a33023          	sd	s10,0(t1)
   16af2:	86ba                	mv	a3,a4
   16af4:	01030b93          	addi	s7,t1,16
   16af8:	02f5d1e3          	bge	a1,a5,1731a <_svfprintf_r+0xe02>
   16afc:	4605                	li	a2,1
   16afe:	10d12c23          	sw	a3,280(sp)
   16b02:	00c33423          	sd	a2,8(t1)
   16b06:	f262                	sd	s8,288(sp)
   16b08:	469d                	li	a3,7
   16b0a:	0ae6c4e3          	blt	a3,a4,173b2 <_svfprintf_r+0xe9a>
   16b0e:	77a6                	ld	a5,104(sp)
   16b10:	0017069b          	addiw	a3,a4,1
   16b14:	7746                	ld	a4,112(sp)
   16b16:	9c3e                	add	s8,s8,a5
   16b18:	00fbb423          	sd	a5,8(s7)
   16b1c:	00ebb023          	sd	a4,0(s7)
   16b20:	10d12c23          	sw	a3,280(sp)
   16b24:	0006871b          	sext.w	a4,a3
   16b28:	f262                	sd	s8,288(sp)
   16b2a:	469d                	li	a3,7
   16b2c:	0bc1                	addi	s7,s7,16
   16b2e:	08e6cfe3          	blt	a3,a4,173cc <_svfprintf_r+0xeb4>
   16b32:	6512                	ld	a0,256(sp)
   16b34:	65b2                	ld	a1,264(sp)
   16b36:	00170e1b          	addiw	t3,a4,1
   16b3a:	4601                	li	a2,0
   16b3c:	4681                	li	a3,0
   16b3e:	f872                	sd	t3,48(sp)
   16b40:	fc3a                	sd	a4,56(sp)
   16b42:	0be040ef          	jal	ra,1ac00 <__eqtf2>
   16b46:	7e42                	ld	t3,48(sp)
   16b48:	7782                	ld	a5,32(sp)
   16b4a:	010b8313          	addi	t1,s7,16
   16b4e:	000e061b          	sext.w	a2,t3
   16b52:	fff78c9b          	addiw	s9,a5,-1
   16b56:	7e050363          	beqz	a0,1733c <_svfprintf_r+0xe24>
   16b5a:	001d0813          	addi	a6,s10,1
   16b5e:	9c66                	add	s8,s8,s9
   16b60:	010bb023          	sd	a6,0(s7)
   16b64:	019bb423          	sd	s9,8(s7)
   16b68:	f262                	sd	s8,288(sp)
   16b6a:	11c12c23          	sw	t3,280(sp)
   16b6e:	469d                	li	a3,7
   16b70:	38c6c6e3          	blt	a3,a2,176fc <_svfprintf_r+0x11e4>
   16b74:	7762                	ld	a4,56(sp)
   16b76:	020b8693          	addi	a3,s7,32
   16b7a:	8b9a                	mv	s7,t1
   16b7c:	0027061b          	addiw	a2,a4,2
   16b80:	8336                	mv	t1,a3
   16b82:	76e6                	ld	a3,120(sp)
   16b84:	1998                	addi	a4,sp,240
   16b86:	00ebb023          	sd	a4,0(s7)
   16b8a:	018687b3          	add	a5,a3,s8
   16b8e:	00dbb423          	sd	a3,8(s7)
   16b92:	f23e                	sd	a5,288(sp)
   16b94:	10c12c23          	sw	a2,280(sp)
   16b98:	471d                	li	a4,7
   16b9a:	bac756e3          	bge	a4,a2,16746 <_svfprintf_r+0x22e>
   16b9e:	0a10                	addi	a2,sp,272
   16ba0:	85d2                	mv	a1,s4
   16ba2:	854e                	mv	a0,s3
   16ba4:	012030ef          	jal	ra,19bb6 <__ssprint_r>
   16ba8:	4e051663          	bnez	a0,17094 <_svfprintf_r+0xb7c>
   16bac:	7792                	ld	a5,288(sp)
   16bae:	835a                	mv	t1,s6
   16bb0:	be59                	j	16746 <_svfprintf_r+0x22e>
   16bb2:	0104f793          	andi	a5,s1,16
   16bb6:	060794e3          	bnez	a5,1741e <_svfprintf_r+0xf06>
   16bba:	66e2                	ld	a3,24(sp)
   16bbc:	0404f793          	andi	a5,s1,64
   16bc0:	0006a903          	lw	s2,0(a3)
   16bc4:	56078fe3          	beqz	a5,17942 <_svfprintf_r+0x142a>
   16bc8:	1942                	slli	s2,s2,0x30
   16bca:	03095913          	srli	s2,s2,0x30
   16bce:	b159                	j	16854 <_svfprintf_r+0x33c>
   16bd0:	0104f793          	andi	a5,s1,16
   16bd4:	00079ee3          	bnez	a5,173f0 <_svfprintf_r+0xed8>
   16bd8:	0404f793          	andi	a5,s1,64
   16bdc:	580783e3          	beqz	a5,17962 <_svfprintf_r+0x144a>
   16be0:	67e2                	ld	a5,24(sp)
   16be2:	00079903          	lh	s2,0(a5)
   16be6:	87ca                	mv	a5,s2
   16be8:	c007d9e3          	bgez	a5,167fa <_svfprintf_r+0x2e2>
   16bec:	02d00793          	li	a5,45
   16bf0:	0cf10fa3          	sb	a5,223(sp)
   16bf4:	ec3a                	sd	a4,24(sp)
   16bf6:	577d                	li	a4,-1
   16bf8:	41200933          	neg	s2,s2
   16bfc:	8da6                	mv	s11,s1
   16bfe:	4785                	li	a5,1
   16c00:	c6ec15e3          	bne	s8,a4,1686a <_svfprintf_r+0x352>
   16c04:	4705                	li	a4,1
   16c06:	4ae78463          	beq	a5,a4,170ae <_svfprintf_r+0xb96>
   16c0a:	4709                	li	a4,2
   16c0c:	32e78e63          	beq	a5,a4,16f48 <_svfprintf_r+0xa30>
   16c10:	18c10b93          	addi	s7,sp,396
   16c14:	8d5e                	mv	s10,s7
   16c16:	00797793          	andi	a5,s2,7
   16c1a:	03078793          	addi	a5,a5,48
   16c1e:	fefd0fa3          	sb	a5,-1(s10)
   16c22:	00395913          	srli	s2,s2,0x3
   16c26:	876a                	mv	a4,s10
   16c28:	1d7d                	addi	s10,s10,-1
   16c2a:	fe0916e3          	bnez	s2,16c16 <_svfprintf_r+0x6fe>
   16c2e:	001df693          	andi	a3,s11,1
   16c32:	32068b63          	beqz	a3,16f68 <_svfprintf_r+0xa50>
   16c36:	03000693          	li	a3,48
   16c3a:	32d78763          	beq	a5,a3,16f68 <_svfprintf_r+0xa50>
   16c3e:	1779                	addi	a4,a4,-2
   16c40:	fedd0fa3          	sb	a3,-1(s10)
   16c44:	40eb8bbb          	subw	s7,s7,a4
   16c48:	84ee                	mv	s1,s11
   16c4a:	8d3a                	mv	s10,a4
   16c4c:	bec1                	j	1681c <_svfprintf_r+0x304>
   16c4e:	6762                	ld	a4,24(sp)
   16c50:	0c010fa3          	sb	zero,223(sp)
   16c54:	4905                	li	s2,1
   16c56:	431c                	lw	a5,0(a4)
   16c58:	0721                	addi	a4,a4,8
   16c5a:	ec3a                	sd	a4,24(sp)
   16c5c:	12f10423          	sb	a5,296(sp)
   16c60:	4b85                	li	s7,1
   16c62:	12810d13          	addi	s10,sp,296
   16c66:	b41d                	j	1668c <_svfprintf_r+0x174>
   16c68:	67e2                	ld	a5,24(sp)
   16c6a:	0c010fa3          	sb	zero,223(sp)
   16c6e:	0007bd03          	ld	s10,0(a5)
   16c72:	00878d93          	addi	s11,a5,8
   16c76:	0e0d09e3          	beqz	s10,17568 <_svfprintf_r+0x1050>
   16c7a:	57fd                	li	a5,-1
   16c7c:	46fc03e3          	beq	s8,a5,178e2 <_svfprintf_r+0x13ca>
   16c80:	8662                	mv	a2,s8
   16c82:	4581                	li	a1,0
   16c84:	856a                	mv	a0,s10
   16c86:	ec1a                	sd	t1,24(sp)
   16c88:	fe2fe0ef          	jal	ra,1546a <memchr>
   16c8c:	e82a                	sd	a0,16(sp)
   16c8e:	6362                	ld	t1,24(sp)
   16c90:	e119                	bnez	a0,16c96 <_svfprintf_r+0x77e>
   16c92:	73d0006f          	j	17bce <_svfprintf_r+0x16b6>
   16c96:	67c2                	ld	a5,16(sp)
   16c98:	ec6e                	sd	s11,24(sp)
   16c9a:	e802                	sd	zero,16(sp)
   16c9c:	41a78bbb          	subw	s7,a5,s10
   16ca0:	fffbc913          	not	s2,s7
   16ca4:	0df14783          	lbu	a5,223(sp)
   16ca8:	43f95913          	srai	s2,s2,0x3f
   16cac:	012bf933          	and	s2,s7,s2
   16cb0:	e482                	sd	zero,72(sp)
   16cb2:	ec82                	sd	zero,88(sp)
   16cb4:	e882                	sd	zero,80(sp)
   16cb6:	2901                	sext.w	s2,s2
   16cb8:	4c01                	li	s8,0
   16cba:	b6079fe3          	bnez	a5,16838 <_svfprintf_r+0x320>
   16cbe:	bae1                	j	16696 <_svfprintf_r+0x17e>
   16cc0:	00044e83          	lbu	t4,0(s0)
   16cc4:	0044e493          	ori	s1,s1,4
   16cc8:	2481                	sext.w	s1,s1
   16cca:	baa9                	j	16624 <_svfprintf_r+0x10c>
   16ccc:	0084e493          	ori	s1,s1,8
   16cd0:	00044e83          	lbu	t4,0(s0)
   16cd4:	2481                	sext.w	s1,s1
   16cd6:	b2b9                	j	16624 <_svfprintf_r+0x10c>
   16cd8:	02b00793          	li	a5,43
   16cdc:	00044e83          	lbu	t4,0(s0)
   16ce0:	0cf10fa3          	sb	a5,223(sp)
   16ce4:	b281                	j	16624 <_svfprintf_r+0x10c>
   16ce6:	0804e493          	ori	s1,s1,128
   16cea:	00044e83          	lbu	t4,0(s0)
   16cee:	2481                	sext.w	s1,s1
   16cf0:	ba15                	j	16624 <_svfprintf_r+0x10c>
   16cf2:	00044c83          	lbu	s9,0(s0)
   16cf6:	00140793          	addi	a5,s0,1
   16cfa:	00dc9463          	bne	s9,a3,16d02 <_svfprintf_r+0x7ea>
   16cfe:	3340106f          	j	18032 <_svfprintf_r+0x1b1a>
   16d02:	fd0c871b          	addiw	a4,s9,-48
   16d06:	843e                	mv	s0,a5
   16d08:	4c01                	li	s8,0
   16d0a:	92ede2e3          	bltu	s11,a4,1662e <_svfprintf_r+0x116>
   16d0e:	00044c83          	lbu	s9,0(s0)
   16d12:	002c179b          	slliw	a5,s8,0x2
   16d16:	01878e3b          	addw	t3,a5,s8
   16d1a:	001e1e1b          	slliw	t3,t3,0x1
   16d1e:	00ee0c3b          	addw	s8,t3,a4
   16d22:	fd0c871b          	addiw	a4,s9,-48
   16d26:	0405                	addi	s0,s0,1
   16d28:	feedf3e3          	bgeu	s11,a4,16d0e <_svfprintf_r+0x7f6>
   16d2c:	b209                	j	1662e <_svfprintf_r+0x116>
   16d2e:	67e2                	ld	a5,24(sp)
   16d30:	00044e83          	lbu	t4,0(s0)
   16d34:	0007aa83          	lw	s5,0(a5)
   16d38:	07a1                	addi	a5,a5,8
   16d3a:	ec3e                	sd	a5,24(sp)
   16d3c:	8e0ad4e3          	bgez	s5,16624 <_svfprintf_r+0x10c>
   16d40:	41500abb          	negw	s5,s5
   16d44:	b741                	j	16cc4 <_svfprintf_r+0x7ac>
   16d46:	854e                	mv	a0,s3
   16d48:	e81a                	sd	t1,16(sp)
   16d4a:	f1bfd0ef          	jal	ra,14c64 <_localeconv_r>
   16d4e:	651c                	ld	a5,8(a0)
   16d50:	853e                	mv	a0,a5
   16d52:	e53e                	sd	a5,136(sp)
   16d54:	ec2ff0ef          	jal	ra,16416 <strlen>
   16d58:	87aa                	mv	a5,a0
   16d5a:	854e                	mv	a0,s3
   16d5c:	8cbe                	mv	s9,a5
   16d5e:	e13e                	sd	a5,128(sp)
   16d60:	f05fd0ef          	jal	ra,14c64 <_localeconv_r>
   16d64:	691c                	ld	a5,16(a0)
   16d66:	6342                	ld	t1,16(sp)
   16d68:	00044e83          	lbu	t4,0(s0)
   16d6c:	f0be                	sd	a5,96(sp)
   16d6e:	8a0c8be3          	beqz	s9,16624 <_svfprintf_r+0x10c>
   16d72:	8a0789e3          	beqz	a5,16624 <_svfprintf_r+0x10c>
   16d76:	0007c783          	lbu	a5,0(a5)
   16d7a:	8a0785e3          	beqz	a5,16624 <_svfprintf_r+0x10c>
   16d7e:	4004e493          	ori	s1,s1,1024
   16d82:	2481                	sext.w	s1,s1
   16d84:	b045                	j	16624 <_svfprintf_r+0x10c>
   16d86:	0014e493          	ori	s1,s1,1
   16d8a:	00044e83          	lbu	t4,0(s0)
   16d8e:	2481                	sext.w	s1,s1
   16d90:	b851                	j	16624 <_svfprintf_r+0x10c>
   16d92:	0df14783          	lbu	a5,223(sp)
   16d96:	00044e83          	lbu	t4,0(s0)
   16d9a:	880795e3          	bnez	a5,16624 <_svfprintf_r+0x10c>
   16d9e:	02000793          	li	a5,32
   16da2:	0cf10fa3          	sb	a5,223(sp)
   16da6:	b8bd                	j	16624 <_svfprintf_r+0x10c>
   16da8:	0104e493          	ori	s1,s1,16
   16dac:	00048d9b          	sext.w	s11,s1
   16db0:	66e2                	ld	a3,24(sp)
   16db2:	020df793          	andi	a5,s11,32
   16db6:	00868713          	addi	a4,a3,8
   16dba:	5c078b63          	beqz	a5,17390 <_svfprintf_r+0xe78>
   16dbe:	0006b903          	ld	s2,0(a3)
   16dc2:	4785                	li	a5,1
   16dc4:	ec3a                	sd	a4,24(sp)
   16dc6:	bc69                	j	16860 <_svfprintf_r+0x348>
   16dc8:	0204e493          	ori	s1,s1,32
   16dcc:	00044e83          	lbu	t4,0(s0)
   16dd0:	2481                	sext.w	s1,s1
   16dd2:	b889                	j	16624 <_svfprintf_r+0x10c>
   16dd4:	6762                	ld	a4,24(sp)
   16dd6:	77e1                	lui	a5,0xffff8
   16dd8:	8307c793          	xori	a5,a5,-2000
   16ddc:	0ef11023          	sh	a5,224(sp)
   16de0:	00870793          	addi	a5,a4,8
   16de4:	ec3e                	sd	a5,24(sp)
   16de6:	67f1                	lui	a5,0x1c
   16de8:	12078793          	addi	a5,a5,288 # 1c120 <__clzdi2+0x12e>
   16dec:	0024e493          	ori	s1,s1,2
   16df0:	f43e                	sd	a5,40(sp)
   16df2:	00073903          	ld	s2,0(a4)
   16df6:	00048d9b          	sext.w	s11,s1
   16dfa:	4789                	li	a5,2
   16dfc:	07800c93          	li	s9,120
   16e00:	b485                	j	16860 <_svfprintf_r+0x348>
   16e02:	66e2                	ld	a3,24(sp)
   16e04:	0204f793          	andi	a5,s1,32
   16e08:	6298                	ld	a4,0(a3)
   16e0a:	06a1                	addi	a3,a3,8
   16e0c:	ec36                	sd	a3,24(sp)
   16e0e:	e395                	bnez	a5,16e32 <_svfprintf_r+0x91a>
   16e10:	0104f793          	andi	a5,s1,16
   16e14:	ef99                	bnez	a5,16e32 <_svfprintf_r+0x91a>
   16e16:	0404f793          	andi	a5,s1,64
   16e1a:	3e0796e3          	bnez	a5,17a06 <_svfprintf_r+0x14ee>
   16e1e:	2004f493          	andi	s1,s1,512
   16e22:	67a2                	ld	a5,8(sp)
   16e24:	e099                	bnez	s1,16e2a <_svfprintf_r+0x912>
   16e26:	0a40106f          	j	17eca <_svfprintf_r+0x19b2>
   16e2a:	00f70023          	sb	a5,0(a4)
   16e2e:	8d22                	mv	s10,s0
   16e30:	b2a1                	j	16778 <_svfprintf_r+0x260>
   16e32:	67a2                	ld	a5,8(sp)
   16e34:	8d22                	mv	s10,s0
   16e36:	e31c                	sd	a5,0(a4)
   16e38:	b281                	j	16778 <_svfprintf_r+0x260>
   16e3a:	00044e83          	lbu	t4,0(s0)
   16e3e:	06c00793          	li	a5,108
   16e42:	6cfe8b63          	beq	t4,a5,17518 <_svfprintf_r+0x1000>
   16e46:	0104e493          	ori	s1,s1,16
   16e4a:	2481                	sext.w	s1,s1
   16e4c:	fd8ff06f          	j	16624 <_svfprintf_r+0x10c>
   16e50:	00044e83          	lbu	t4,0(s0)
   16e54:	06800793          	li	a5,104
   16e58:	6afe8863          	beq	t4,a5,17508 <_svfprintf_r+0xff0>
   16e5c:	0404e493          	ori	s1,s1,64
   16e60:	2481                	sext.w	s1,s1
   16e62:	fc2ff06f          	j	16624 <_svfprintf_r+0x10c>
   16e66:	06500713          	li	a4,101
   16e6a:	c7975ae3          	bge	a4,s9,16ade <_svfprintf_r+0x5c6>
   16e6e:	6512                	ld	a0,256(sp)
   16e70:	65b2                	ld	a1,264(sp)
   16e72:	4601                	li	a2,0
   16e74:	4681                	li	a3,0
   16e76:	fc3e                	sd	a5,56(sp)
   16e78:	f81a                	sd	t1,48(sp)
   16e7a:	587030ef          	jal	ra,1ac00 <__eqtf2>
   16e7e:	7342                	ld	t1,48(sp)
   16e80:	77e2                	ld	a5,56(sp)
   16e82:	36051863          	bnez	a0,171f2 <_svfprintf_r+0xcda>
   16e86:	11812703          	lw	a4,280(sp)
   16e8a:	66f1                	lui	a3,0x1c
   16e8c:	14068693          	addi	a3,a3,320 # 1c140 <__clzdi2+0x14e>
   16e90:	2705                	addiw	a4,a4,1
   16e92:	00d33023          	sd	a3,0(t1)
   16e96:	0785                	addi	a5,a5,1
   16e98:	4685                	li	a3,1
   16e9a:	00d33423          	sd	a3,8(t1)
   16e9e:	10e12c23          	sw	a4,280(sp)
   16ea2:	0007069b          	sext.w	a3,a4
   16ea6:	f23e                	sd	a5,288(sp)
   16ea8:	471d                	li	a4,7
   16eaa:	0341                	addi	t1,t1,16
   16eac:	12d74be3          	blt	a4,a3,177e2 <_svfprintf_r+0x12ca>
   16eb0:	572e                	lw	a4,232(sp)
   16eb2:	7682                	ld	a3,32(sp)
   16eb4:	52d75963          	bge	a4,a3,173e6 <_svfprintf_r+0xece>
   16eb8:	7746                	ld	a4,112(sp)
   16eba:	76a6                	ld	a3,104(sp)
   16ebc:	0341                	addi	t1,t1,16
   16ebe:	fee33823          	sd	a4,-16(t1)
   16ec2:	11812703          	lw	a4,280(sp)
   16ec6:	97b6                	add	a5,a5,a3
   16ec8:	fed33c23          	sd	a3,-8(t1)
   16ecc:	2705                	addiw	a4,a4,1
   16ece:	0007069b          	sext.w	a3,a4
   16ed2:	10e12c23          	sw	a4,280(sp)
   16ed6:	f23e                	sd	a5,288(sp)
   16ed8:	471d                	li	a4,7
   16eda:	64d74c63          	blt	a4,a3,17532 <_svfprintf_r+0x101a>
   16ede:	7702                	ld	a4,32(sp)
   16ee0:	fff70b9b          	addiw	s7,a4,-1
   16ee4:	877051e3          	blez	s7,16746 <_svfprintf_r+0x22e>
   16ee8:	68f5                	lui	a7,0x1d
   16eea:	46c1                	li	a3,16
   16eec:	11812703          	lw	a4,280(sp)
   16ef0:	87088d93          	addi	s11,a7,-1936 # 1c870 <zeroes.4506>
   16ef4:	4cc1                	li	s9,16
   16ef6:	4c1d                	li	s8,7
   16ef8:	0176c763          	blt	a3,s7,16f06 <_svfprintf_r+0x9ee>
   16efc:	0fd0006f          	j	177f8 <_svfprintf_r+0x12e0>
   16f00:	3bc1                	addiw	s7,s7,-16
   16f02:	0f7cdbe3          	bge	s9,s7,177f8 <_svfprintf_r+0x12e0>
   16f06:	2705                	addiw	a4,a4,1
   16f08:	07c1                	addi	a5,a5,16
   16f0a:	01b33023          	sd	s11,0(t1)
   16f0e:	01933423          	sd	s9,8(t1)
   16f12:	f23e                	sd	a5,288(sp)
   16f14:	10e12c23          	sw	a4,280(sp)
   16f18:	0341                	addi	t1,t1,16
   16f1a:	feec53e3          	bge	s8,a4,16f00 <_svfprintf_r+0x9e8>
   16f1e:	0a10                	addi	a2,sp,272
   16f20:	85d2                	mv	a1,s4
   16f22:	854e                	mv	a0,s3
   16f24:	493020ef          	jal	ra,19bb6 <__ssprint_r>
   16f28:	16051663          	bnez	a0,17094 <_svfprintf_r+0xb7c>
   16f2c:	7792                	ld	a5,288(sp)
   16f2e:	11812703          	lw	a4,280(sp)
   16f32:	835a                	mv	t1,s6
   16f34:	b7f1                	j	16f00 <_svfprintf_r+0x9e8>
   16f36:	4705                	li	a4,1
   16f38:	00e79463          	bne	a5,a4,16f40 <_svfprintf_r+0xa28>
   16f3c:	74d0006f          	j	17e88 <_svfprintf_r+0x1970>
   16f40:	4709                	li	a4,2
   16f42:	8da6                	mv	s11,s1
   16f44:	cce796e3          	bne	a5,a4,16c10 <_svfprintf_r+0x6f8>
   16f48:	18c10b93          	addi	s7,sp,396
   16f4c:	8d5e                	mv	s10,s7
   16f4e:	7722                	ld	a4,40(sp)
   16f50:	00f97793          	andi	a5,s2,15
   16f54:	1d7d                	addi	s10,s10,-1
   16f56:	97ba                	add	a5,a5,a4
   16f58:	0007c783          	lbu	a5,0(a5)
   16f5c:	00495913          	srli	s2,s2,0x4
   16f60:	00fd0023          	sb	a5,0(s10)
   16f64:	fe0915e3          	bnez	s2,16f4e <_svfprintf_r+0xa36>
   16f68:	41ab8bbb          	subw	s7,s7,s10
   16f6c:	84ee                	mv	s1,s11
   16f6e:	b07d                	j	1681c <_svfprintf_r+0x304>
   16f70:	412a86bb          	subw	a3,s5,s2
   16f74:	fad05063          	blez	a3,16714 <_svfprintf_r+0x1fc>
   16f78:	68f5                	lui	a7,0x1d
   16f7a:	4641                	li	a2,16
   16f7c:	11812703          	lw	a4,280(sp)
   16f80:	87088d93          	addi	s11,a7,-1936 # 1c870 <zeroes.4506>
   16f84:	4f41                	li	t5,16
   16f86:	4f9d                	li	t6,7
   16f88:	00d64663          	blt	a2,a3,16f94 <_svfprintf_r+0xa7c>
   16f8c:	a089                	j	16fce <_svfprintf_r+0xab6>
   16f8e:	36c1                	addiw	a3,a3,-16
   16f90:	02df5f63          	bge	t5,a3,16fce <_svfprintf_r+0xab6>
   16f94:	2705                	addiw	a4,a4,1
   16f96:	07c1                	addi	a5,a5,16
   16f98:	01b33023          	sd	s11,0(t1)
   16f9c:	01e33423          	sd	t5,8(t1)
   16fa0:	f23e                	sd	a5,288(sp)
   16fa2:	10e12c23          	sw	a4,280(sp)
   16fa6:	0341                	addi	t1,t1,16
   16fa8:	feefd3e3          	bge	t6,a4,16f8e <_svfprintf_r+0xa76>
   16fac:	0a10                	addi	a2,sp,272
   16fae:	85d2                	mv	a1,s4
   16fb0:	854e                	mv	a0,s3
   16fb2:	f836                	sd	a3,48(sp)
   16fb4:	403020ef          	jal	ra,19bb6 <__ssprint_r>
   16fb8:	ed71                	bnez	a0,17094 <_svfprintf_r+0xb7c>
   16fba:	76c2                	ld	a3,48(sp)
   16fbc:	4f41                	li	t5,16
   16fbe:	7792                	ld	a5,288(sp)
   16fc0:	36c1                	addiw	a3,a3,-16
   16fc2:	11812703          	lw	a4,280(sp)
   16fc6:	835a                	mv	t1,s6
   16fc8:	4f9d                	li	t6,7
   16fca:	fcdf45e3          	blt	t5,a3,16f94 <_svfprintf_r+0xa7c>
   16fce:	2705                	addiw	a4,a4,1
   16fd0:	97b6                	add	a5,a5,a3
   16fd2:	00d33423          	sd	a3,8(t1)
   16fd6:	01b33023          	sd	s11,0(t1)
   16fda:	0007069b          	sext.w	a3,a4
   16fde:	10e12c23          	sw	a4,280(sp)
   16fe2:	f23e                	sd	a5,288(sp)
   16fe4:	471d                	li	a4,7
   16fe6:	0341                	addi	t1,t1,16
   16fe8:	f2d75663          	bge	a4,a3,16714 <_svfprintf_r+0x1fc>
   16fec:	0a10                	addi	a2,sp,272
   16fee:	85d2                	mv	a1,s4
   16ff0:	854e                	mv	a0,s3
   16ff2:	3c5020ef          	jal	ra,19bb6 <__ssprint_r>
   16ff6:	ed59                	bnez	a0,17094 <_svfprintf_r+0xb7c>
   16ff8:	417c0c3b          	subw	s8,s8,s7
   16ffc:	7792                	ld	a5,288(sp)
   16ffe:	835a                	mv	t1,s6
   17000:	f1805e63          	blez	s8,1671c <_svfprintf_r+0x204>
   17004:	68f5                	lui	a7,0x1d
   17006:	46c1                	li	a3,16
   17008:	11812703          	lw	a4,280(sp)
   1700c:	87088d93          	addi	s11,a7,-1936 # 1c870 <zeroes.4506>
   17010:	4f41                	li	t5,16
   17012:	4f9d                	li	t6,7
   17014:	0186c663          	blt	a3,s8,17020 <_svfprintf_r+0xb08>
   17018:	a83d                	j	17056 <_svfprintf_r+0xb3e>
   1701a:	3c41                	addiw	s8,s8,-16
   1701c:	038f5d63          	bge	t5,s8,17056 <_svfprintf_r+0xb3e>
   17020:	2705                	addiw	a4,a4,1
   17022:	07c1                	addi	a5,a5,16
   17024:	01b33023          	sd	s11,0(t1)
   17028:	01e33423          	sd	t5,8(t1)
   1702c:	f23e                	sd	a5,288(sp)
   1702e:	10e12c23          	sw	a4,280(sp)
   17032:	0341                	addi	t1,t1,16
   17034:	feefd3e3          	bge	t6,a4,1701a <_svfprintf_r+0xb02>
   17038:	0a10                	addi	a2,sp,272
   1703a:	85d2                	mv	a1,s4
   1703c:	854e                	mv	a0,s3
   1703e:	379020ef          	jal	ra,19bb6 <__ssprint_r>
   17042:	e929                	bnez	a0,17094 <_svfprintf_r+0xb7c>
   17044:	4f41                	li	t5,16
   17046:	3c41                	addiw	s8,s8,-16
   17048:	7792                	ld	a5,288(sp)
   1704a:	11812703          	lw	a4,280(sp)
   1704e:	835a                	mv	t1,s6
   17050:	4f9d                	li	t6,7
   17052:	fd8f47e3          	blt	t5,s8,17020 <_svfprintf_r+0xb08>
   17056:	0017069b          	addiw	a3,a4,1
   1705a:	97e2                	add	a5,a5,s8
   1705c:	01b33023          	sd	s11,0(t1)
   17060:	01833423          	sd	s8,8(t1)
   17064:	f23e                	sd	a5,288(sp)
   17066:	10d12c23          	sw	a3,280(sp)
   1706a:	471d                	li	a4,7
   1706c:	0341                	addi	t1,t1,16
   1706e:	ead75763          	bge	a4,a3,1671c <_svfprintf_r+0x204>
   17072:	0a10                	addi	a2,sp,272
   17074:	85d2                	mv	a1,s4
   17076:	854e                	mv	a0,s3
   17078:	33f020ef          	jal	ra,19bb6 <__ssprint_r>
   1707c:	ed01                	bnez	a0,17094 <_svfprintf_r+0xb7c>
   1707e:	7792                	ld	a5,288(sp)
   17080:	835a                	mv	t1,s6
   17082:	e9aff06f          	j	1671c <_svfprintf_r+0x204>
   17086:	0a10                	addi	a2,sp,272
   17088:	85d2                	mv	a1,s4
   1708a:	854e                	mv	a0,s3
   1708c:	32b020ef          	jal	ra,19bb6 <__ssprint_r>
   17090:	ec050a63          	beqz	a0,16764 <_svfprintf_r+0x24c>
   17094:	67c2                	ld	a5,16(sp)
   17096:	ee078963          	beqz	a5,16788 <_svfprintf_r+0x270>
   1709a:	65c2                	ld	a1,16(sp)
   1709c:	854e                	mv	a0,s3
   1709e:	ffcfb0ef          	jal	ra,1289a <_free_r>
   170a2:	ee6ff06f          	j	16788 <_svfprintf_r+0x270>
   170a6:	4705                	li	a4,1
   170a8:	8da6                	mv	s11,s1
   170aa:	b6e790e3          	bne	a5,a4,16c0a <_svfprintf_r+0x6f2>
   170ae:	47a5                	li	a5,9
   170b0:	3927e163          	bltu	a5,s2,17432 <_svfprintf_r+0xf1a>
   170b4:	0309091b          	addiw	s2,s2,48
   170b8:	192105a3          	sb	s2,395(sp)
   170bc:	84ee                	mv	s1,s11
   170be:	4b85                	li	s7,1
   170c0:	18b10d13          	addi	s10,sp,395
   170c4:	f58ff06f          	j	1681c <_svfprintf_r+0x304>
   170c8:	68f5                	lui	a7,0x1d
   170ca:	4641                	li	a2,16
   170cc:	11812703          	lw	a4,280(sp)
   170d0:	86088893          	addi	a7,a7,-1952 # 1c860 <blanks.4505>
   170d4:	4f41                	li	t5,16
   170d6:	439d                	li	t2,7
   170d8:	00d64663          	blt	a2,a3,170e4 <_svfprintf_r+0xbcc>
   170dc:	a0a9                	j	17126 <_svfprintf_r+0xc0e>
   170de:	36c1                	addiw	a3,a3,-16
   170e0:	04df5363          	bge	t5,a3,17126 <_svfprintf_r+0xc0e>
   170e4:	2705                	addiw	a4,a4,1
   170e6:	07c1                	addi	a5,a5,16
   170e8:	01133023          	sd	a7,0(t1)
   170ec:	01e33423          	sd	t5,8(t1)
   170f0:	f23e                	sd	a5,288(sp)
   170f2:	10e12c23          	sw	a4,280(sp)
   170f6:	0341                	addi	t1,t1,16
   170f8:	fee3d3e3          	bge	t2,a4,170de <_svfprintf_r+0xbc6>
   170fc:	0a10                	addi	a2,sp,272
   170fe:	85d2                	mv	a1,s4
   17100:	854e                	mv	a0,s3
   17102:	e0c6                	sd	a7,64(sp)
   17104:	fc16                	sd	t0,56(sp)
   17106:	f836                	sd	a3,48(sp)
   17108:	2af020ef          	jal	ra,19bb6 <__ssprint_r>
   1710c:	f541                	bnez	a0,17094 <_svfprintf_r+0xb7c>
   1710e:	76c2                	ld	a3,48(sp)
   17110:	4f41                	li	t5,16
   17112:	7792                	ld	a5,288(sp)
   17114:	36c1                	addiw	a3,a3,-16
   17116:	11812703          	lw	a4,280(sp)
   1711a:	6886                	ld	a7,64(sp)
   1711c:	72e2                	ld	t0,56(sp)
   1711e:	835a                	mv	t1,s6
   17120:	439d                	li	t2,7
   17122:	fcdf41e3          	blt	t5,a3,170e4 <_svfprintf_r+0xbcc>
   17126:	2705                	addiw	a4,a4,1
   17128:	97b6                	add	a5,a5,a3
   1712a:	00d33423          	sd	a3,8(t1)
   1712e:	01133023          	sd	a7,0(t1)
   17132:	0007069b          	sext.w	a3,a4
   17136:	10e12c23          	sw	a4,280(sp)
   1713a:	f23e                	sd	a5,288(sp)
   1713c:	471d                	li	a4,7
   1713e:	0341                	addi	t1,t1,16
   17140:	d6d75a63          	bge	a4,a3,166b4 <_svfprintf_r+0x19c>
   17144:	0a10                	addi	a2,sp,272
   17146:	85d2                	mv	a1,s4
   17148:	854e                	mv	a0,s3
   1714a:	f816                	sd	t0,48(sp)
   1714c:	26b020ef          	jal	ra,19bb6 <__ssprint_r>
   17150:	f131                	bnez	a0,17094 <_svfprintf_r+0xb7c>
   17152:	7792                	ld	a5,288(sp)
   17154:	72c2                	ld	t0,48(sp)
   17156:	835a                	mv	t1,s6
   17158:	d5cff06f          	j	166b4 <_svfprintf_r+0x19c>
   1715c:	0a10                	addi	a2,sp,272
   1715e:	85d2                	mv	a1,s4
   17160:	854e                	mv	a0,s3
   17162:	255020ef          	jal	ra,19bb6 <__ssprint_r>
   17166:	f51d                	bnez	a0,17094 <_svfprintf_r+0xb7c>
   17168:	7792                	ld	a5,288(sp)
   1716a:	835a                	mv	t1,s6
   1716c:	da0ff06f          	j	1670c <_svfprintf_r+0x1f4>
   17170:	68f5                	lui	a7,0x1d
   17172:	46c1                	li	a3,16
   17174:	11812703          	lw	a4,280(sp)
   17178:	86088893          	addi	a7,a7,-1952 # 1c860 <blanks.4505>
   1717c:	4bc1                	li	s7,16
   1717e:	4c1d                	li	s8,7
   17180:	0096c663          	blt	a3,s1,1718c <_svfprintf_r+0xc74>
   17184:	a081                	j	171c4 <_svfprintf_r+0xcac>
   17186:	34c1                	addiw	s1,s1,-16
   17188:	029bde63          	bge	s7,s1,171c4 <_svfprintf_r+0xcac>
   1718c:	2705                	addiw	a4,a4,1
   1718e:	07c1                	addi	a5,a5,16
   17190:	01133023          	sd	a7,0(t1)
   17194:	01733423          	sd	s7,8(t1)
   17198:	f23e                	sd	a5,288(sp)
   1719a:	10e12c23          	sw	a4,280(sp)
   1719e:	0341                	addi	t1,t1,16
   171a0:	feec53e3          	bge	s8,a4,17186 <_svfprintf_r+0xc6e>
   171a4:	0a10                	addi	a2,sp,272
   171a6:	85d2                	mv	a1,s4
   171a8:	854e                	mv	a0,s3
   171aa:	f846                	sd	a7,48(sp)
   171ac:	20b020ef          	jal	ra,19bb6 <__ssprint_r>
   171b0:	ee0512e3          	bnez	a0,17094 <_svfprintf_r+0xb7c>
   171b4:	34c1                	addiw	s1,s1,-16
   171b6:	7792                	ld	a5,288(sp)
   171b8:	11812703          	lw	a4,280(sp)
   171bc:	78c2                	ld	a7,48(sp)
   171be:	835a                	mv	t1,s6
   171c0:	fc9bc6e3          	blt	s7,s1,1718c <_svfprintf_r+0xc74>
   171c4:	0017069b          	addiw	a3,a4,1
   171c8:	97a6                	add	a5,a5,s1
   171ca:	01133023          	sd	a7,0(t1)
   171ce:	00933423          	sd	s1,8(t1)
   171d2:	f23e                	sd	a5,288(sp)
   171d4:	10d12c23          	sw	a3,280(sp)
   171d8:	471d                	li	a4,7
   171da:	d6d75c63          	bge	a4,a3,16752 <_svfprintf_r+0x23a>
   171de:	0a10                	addi	a2,sp,272
   171e0:	85d2                	mv	a1,s4
   171e2:	854e                	mv	a0,s3
   171e4:	1d3020ef          	jal	ra,19bb6 <__ssprint_r>
   171e8:	ea0516e3          	bnez	a0,17094 <_svfprintf_r+0xb7c>
   171ec:	7792                	ld	a5,288(sp)
   171ee:	d64ff06f          	j	16752 <_svfprintf_r+0x23a>
   171f2:	562e                	lw	a2,232(sp)
   171f4:	52c05e63          	blez	a2,17730 <_svfprintf_r+0x1218>
   171f8:	6746                	ld	a4,80(sp)
   171fa:	7682                	ld	a3,32(sp)
   171fc:	00070b9b          	sext.w	s7,a4
   17200:	2ae6ca63          	blt	a3,a4,174b4 <_svfprintf_r+0xf9c>
   17204:	03705263          	blez	s7,17228 <_svfprintf_r+0xd10>
   17208:	11812703          	lw	a4,280(sp)
   1720c:	97de                	add	a5,a5,s7
   1720e:	01a33023          	sd	s10,0(t1)
   17212:	0017069b          	addiw	a3,a4,1
   17216:	01733423          	sd	s7,8(t1)
   1721a:	f23e                	sd	a5,288(sp)
   1721c:	10d12c23          	sw	a3,280(sp)
   17220:	471d                	li	a4,7
   17222:	0341                	addi	t1,t1,16
   17224:	7ad74763          	blt	a4,a3,179d2 <_svfprintf_r+0x14ba>
   17228:	fffbc713          	not	a4,s7
   1722c:	977d                	srai	a4,a4,0x3f
   1722e:	00ebfbb3          	and	s7,s7,a4
   17232:	6746                	ld	a4,80(sp)
   17234:	41770bbb          	subw	s7,a4,s7
   17238:	35704463          	bgtz	s7,17580 <_svfprintf_r+0x1068>
   1723c:	66c6                	ld	a3,80(sp)
   1723e:	4004f713          	andi	a4,s1,1024
   17242:	00dd0c33          	add	s8,s10,a3
   17246:	38071363          	bnez	a4,175cc <_svfprintf_r+0x10b4>
   1724a:	572e                	lw	a4,232(sp)
   1724c:	7682                	ld	a3,32(sp)
   1724e:	00d74663          	blt	a4,a3,1725a <_svfprintf_r+0xd42>
   17252:	0014f693          	andi	a3,s1,1
   17256:	78068b63          	beqz	a3,179ec <_svfprintf_r+0x14d4>
   1725a:	76c6                	ld	a3,112(sp)
   1725c:	7626                	ld	a2,104(sp)
   1725e:	0341                	addi	t1,t1,16
   17260:	fed33823          	sd	a3,-16(t1)
   17264:	11812683          	lw	a3,280(sp)
   17268:	97b2                	add	a5,a5,a2
   1726a:	fec33c23          	sd	a2,-8(t1)
   1726e:	2685                	addiw	a3,a3,1
   17270:	0006861b          	sext.w	a2,a3
   17274:	10d12c23          	sw	a3,280(sp)
   17278:	f23e                	sd	a5,288(sp)
   1727a:	469d                	li	a3,7
   1727c:	10c6c0e3          	blt	a3,a2,17b7c <_svfprintf_r+0x1664>
   17280:	7682                	ld	a3,32(sp)
   17282:	40e6863b          	subw	a2,a3,a4
   17286:	96ea                	add	a3,a3,s10
   17288:	418686bb          	subw	a3,a3,s8
   1728c:	8732                	mv	a4,a2
   1728e:	00c6d363          	bge	a3,a2,17294 <_svfprintf_r+0xd7c>
   17292:	8736                	mv	a4,a3
   17294:	00070b9b          	sext.w	s7,a4
   17298:	03705263          	blez	s7,172bc <_svfprintf_r+0xda4>
   1729c:	11812703          	lw	a4,280(sp)
   172a0:	97de                	add	a5,a5,s7
   172a2:	01833023          	sd	s8,0(t1)
   172a6:	0017069b          	addiw	a3,a4,1
   172aa:	01733423          	sd	s7,8(t1)
   172ae:	f23e                	sd	a5,288(sp)
   172b0:	10d12c23          	sw	a3,280(sp)
   172b4:	471d                	li	a4,7
   172b6:	0341                	addi	t1,t1,16
   172b8:	14d74fe3          	blt	a4,a3,17c16 <_svfprintf_r+0x16fe>
   172bc:	fffbc713          	not	a4,s7
   172c0:	977d                	srai	a4,a4,0x3f
   172c2:	00ebfbb3          	and	s7,s7,a4
   172c6:	41760bbb          	subw	s7,a2,s7
   172ca:	c7705e63          	blez	s7,16746 <_svfprintf_r+0x22e>
   172ce:	68f5                	lui	a7,0x1d
   172d0:	46c1                	li	a3,16
   172d2:	11812703          	lw	a4,280(sp)
   172d6:	87088d93          	addi	s11,a7,-1936 # 1c870 <zeroes.4506>
   172da:	4cc1                	li	s9,16
   172dc:	4c1d                	li	s8,7
   172de:	0176c663          	blt	a3,s7,172ea <_svfprintf_r+0xdd2>
   172e2:	ab19                	j	177f8 <_svfprintf_r+0x12e0>
   172e4:	3bc1                	addiw	s7,s7,-16
   172e6:	517cd963          	bge	s9,s7,177f8 <_svfprintf_r+0x12e0>
   172ea:	2705                	addiw	a4,a4,1
   172ec:	07c1                	addi	a5,a5,16
   172ee:	01b33023          	sd	s11,0(t1)
   172f2:	01933423          	sd	s9,8(t1)
   172f6:	f23e                	sd	a5,288(sp)
   172f8:	10e12c23          	sw	a4,280(sp)
   172fc:	0341                	addi	t1,t1,16
   172fe:	feec53e3          	bge	s8,a4,172e4 <_svfprintf_r+0xdcc>
   17302:	0a10                	addi	a2,sp,272
   17304:	85d2                	mv	a1,s4
   17306:	854e                	mv	a0,s3
   17308:	0af020ef          	jal	ra,19bb6 <__ssprint_r>
   1730c:	d80514e3          	bnez	a0,17094 <_svfprintf_r+0xb7c>
   17310:	7792                	ld	a5,288(sp)
   17312:	11812703          	lw	a4,280(sp)
   17316:	835a                	mv	t1,s6
   17318:	b7f1                	j	172e4 <_svfprintf_r+0xdcc>
   1731a:	0014f513          	andi	a0,s1,1
   1731e:	fc051f63          	bnez	a0,16afc <_svfprintf_r+0x5e4>
   17322:	00b33423          	sd	a1,8(t1)
   17326:	f262                	sd	s8,288(sp)
   17328:	10e12c23          	sw	a4,280(sp)
   1732c:	469d                	li	a3,7
   1732e:	3ce6c763          	blt	a3,a4,176fc <_svfprintf_r+0x11e4>
   17332:	2609                	addiw	a2,a2,2
   17334:	02030313          	addi	t1,t1,32
   17338:	84bff06f          	j	16b82 <_svfprintf_r+0x66a>
   1733c:	859053e3          	blez	s9,16b82 <_svfprintf_r+0x66a>
   17340:	4741                	li	a4,16
   17342:	4b975ce3          	bge	a4,s9,17ffa <_svfprintf_r+0x1ae2>
   17346:	68f5                	lui	a7,0x1d
   17348:	87088d93          	addi	s11,a7,-1936 # 1c870 <zeroes.4506>
   1734c:	4841                	li	a6,16
   1734e:	4d1d                	li	s10,7
   17350:	a031                	j	1735c <_svfprintf_r+0xe44>
   17352:	3cc1                	addiw	s9,s9,-16
   17354:	5d985263          	bge	a6,s9,17918 <_svfprintf_r+0x1400>
   17358:	00170e1b          	addiw	t3,a4,1
   1735c:	0c41                	addi	s8,s8,16
   1735e:	01bbb023          	sd	s11,0(s7)
   17362:	010bb423          	sd	a6,8(s7)
   17366:	f262                	sd	s8,288(sp)
   17368:	000e071b          	sext.w	a4,t3
   1736c:	11c12c23          	sw	t3,280(sp)
   17370:	0bc1                	addi	s7,s7,16
   17372:	feed50e3          	bge	s10,a4,17352 <_svfprintf_r+0xe3a>
   17376:	0a10                	addi	a2,sp,272
   17378:	85d2                	mv	a1,s4
   1737a:	854e                	mv	a0,s3
   1737c:	03b020ef          	jal	ra,19bb6 <__ssprint_r>
   17380:	d0051ae3          	bnez	a0,17094 <_svfprintf_r+0xb7c>
   17384:	7c12                	ld	s8,288(sp)
   17386:	11812703          	lw	a4,280(sp)
   1738a:	8bda                	mv	s7,s6
   1738c:	4841                	li	a6,16
   1738e:	b7d1                	j	17352 <_svfprintf_r+0xe3a>
   17390:	010df793          	andi	a5,s11,16
   17394:	e3bd                	bnez	a5,173fa <_svfprintf_r+0xee2>
   17396:	66e2                	ld	a3,24(sp)
   17398:	040df793          	andi	a5,s11,64
   1739c:	0006a903          	lw	s2,0(a3)
   173a0:	5a078863          	beqz	a5,17950 <_svfprintf_r+0x1438>
   173a4:	1942                	slli	s2,s2,0x30
   173a6:	03095913          	srli	s2,s2,0x30
   173aa:	ec3a                	sd	a4,24(sp)
   173ac:	4785                	li	a5,1
   173ae:	cb2ff06f          	j	16860 <_svfprintf_r+0x348>
   173b2:	0a10                	addi	a2,sp,272
   173b4:	85d2                	mv	a1,s4
   173b6:	854e                	mv	a0,s3
   173b8:	7fe020ef          	jal	ra,19bb6 <__ssprint_r>
   173bc:	cc051ce3          	bnez	a0,17094 <_svfprintf_r+0xb7c>
   173c0:	7c12                	ld	s8,288(sp)
   173c2:	11812703          	lw	a4,280(sp)
   173c6:	8bda                	mv	s7,s6
   173c8:	f46ff06f          	j	16b0e <_svfprintf_r+0x5f6>
   173cc:	0a10                	addi	a2,sp,272
   173ce:	85d2                	mv	a1,s4
   173d0:	854e                	mv	a0,s3
   173d2:	7e4020ef          	jal	ra,19bb6 <__ssprint_r>
   173d6:	ca051fe3          	bnez	a0,17094 <_svfprintf_r+0xb7c>
   173da:	7c12                	ld	s8,288(sp)
   173dc:	11812703          	lw	a4,280(sp)
   173e0:	8bda                	mv	s7,s6
   173e2:	f50ff06f          	j	16b32 <_svfprintf_r+0x61a>
   173e6:	0014f713          	andi	a4,s1,1
   173ea:	b4070e63          	beqz	a4,16746 <_svfprintf_r+0x22e>
   173ee:	b4e9                	j	16eb8 <_svfprintf_r+0x9a0>
   173f0:	67e2                	ld	a5,24(sp)
   173f2:	639c                	ld	a5,0(a5)
   173f4:	893e                	mv	s2,a5
   173f6:	c00ff06f          	j	167f6 <_svfprintf_r+0x2de>
   173fa:	67e2                	ld	a5,24(sp)
   173fc:	ec3a                	sd	a4,24(sp)
   173fe:	0007b903          	ld	s2,0(a5)
   17402:	4785                	li	a5,1
   17404:	c5cff06f          	j	16860 <_svfprintf_r+0x348>
   17408:	67e2                	ld	a5,24(sp)
   1740a:	07bd                	addi	a5,a5,15
   1740c:	9bc1                	andi	a5,a5,-16
   1740e:	6398                	ld	a4,0(a5)
   17410:	6794                	ld	a3,8(a5)
   17412:	07c1                	addi	a5,a5,16
   17414:	ec3e                	sd	a5,24(sp)
   17416:	e23a                	sd	a4,256(sp)
   17418:	e636                	sd	a3,264(sp)
   1741a:	cb6ff06f          	j	168d0 <_svfprintf_r+0x3b8>
   1741e:	67e2                	ld	a5,24(sp)
   17420:	0007b903          	ld	s2,0(a5)
   17424:	c30ff06f          	j	16854 <_svfprintf_r+0x33c>
   17428:	ec3a                	sd	a4,24(sp)
   1742a:	47a5                	li	a5,9
   1742c:	8da6                	mv	s11,s1
   1742e:	c927f3e3          	bgeu	a5,s2,170b4 <_svfprintf_r+0xb9c>
   17432:	400df713          	andi	a4,s11,1024
   17436:	18c10b93          	addi	s7,sp,396
   1743a:	2701                	sext.w	a4,a4
   1743c:	f002                	sd	zero,32(sp)
   1743e:	865e                	mv	a2,s7
   17440:	44a9                	li	s1,10
   17442:	46a5                	li	a3,9
   17444:	0ff00893          	li	a7,255
   17448:	a039                	j	17456 <_svfprintf_r+0xf3e>
   1744a:	029957b3          	divu	a5,s2,s1
   1744e:	b126fde3          	bgeu	a3,s2,16f68 <_svfprintf_r+0xa50>
   17452:	893e                	mv	s2,a5
   17454:	866a                	mv	a2,s10
   17456:	7582                	ld	a1,32(sp)
   17458:	fff60d13          	addi	s10,a2,-1
   1745c:	2585                	addiw	a1,a1,1
   1745e:	f02e                	sd	a1,32(sp)
   17460:	029977b3          	remu	a5,s2,s1
   17464:	0307879b          	addiw	a5,a5,48
   17468:	fef60fa3          	sb	a5,-1(a2)
   1746c:	df79                	beqz	a4,1744a <_svfprintf_r+0xf32>
   1746e:	7786                	ld	a5,96(sp)
   17470:	0007c783          	lbu	a5,0(a5)
   17474:	fcf59be3          	bne	a1,a5,1744a <_svfprintf_r+0xf32>
   17478:	fd1789e3          	beq	a5,a7,1744a <_svfprintf_r+0xf32>
   1747c:	af26f6e3          	bgeu	a3,s2,16f68 <_svfprintf_r+0xa50>
   17480:	678a                	ld	a5,128(sp)
   17482:	65aa                	ld	a1,136(sp)
   17484:	f83a                	sd	a4,48(sp)
   17486:	40fd0d33          	sub	s10,s10,a5
   1748a:	863e                	mv	a2,a5
   1748c:	856a                	mv	a0,s10
   1748e:	e81a                	sd	t1,16(sp)
   17490:	816ff0ef          	jal	ra,164a6 <strncpy>
   17494:	7706                	ld	a4,96(sp)
   17496:	029957b3          	divu	a5,s2,s1
   1749a:	6342                	ld	t1,16(sp)
   1749c:	00174603          	lbu	a2,1(a4)
   174a0:	f002                	sd	zero,32(sp)
   174a2:	46a5                	li	a3,9
   174a4:	00c03633          	snez	a2,a2
   174a8:	9732                	add	a4,a4,a2
   174aa:	f0ba                	sd	a4,96(sp)
   174ac:	0ff00893          	li	a7,255
   174b0:	7742                	ld	a4,48(sp)
   174b2:	b745                	j	17452 <_svfprintf_r+0xf3a>
   174b4:	00068b9b          	sext.w	s7,a3
   174b8:	d57048e3          	bgtz	s7,17208 <_svfprintf_r+0xcf0>
   174bc:	b3b5                	j	17228 <_svfprintf_r+0xd10>
   174be:	8da6                	mv	s11,s1
   174c0:	b8c5                	j	16db0 <_svfprintf_r+0x898>
   174c2:	67f1                	lui	a5,0x1c
   174c4:	12078793          	addi	a5,a5,288 # 1c120 <__clzdi2+0x12e>
   174c8:	f43e                	sd	a5,40(sp)
   174ca:	66e2                	ld	a3,24(sp)
   174cc:	0204f793          	andi	a5,s1,32
   174d0:	00868713          	addi	a4,a3,8
   174d4:	20078d63          	beqz	a5,176ee <_svfprintf_r+0x11d6>
   174d8:	0006b903          	ld	s2,0(a3)
   174dc:	0014f793          	andi	a5,s1,1
   174e0:	cf81                	beqz	a5,174f8 <_svfprintf_r+0xfe0>
   174e2:	00090b63          	beqz	s2,174f8 <_svfprintf_r+0xfe0>
   174e6:	0024e493          	ori	s1,s1,2
   174ea:	03000793          	li	a5,48
   174ee:	0ef10023          	sb	a5,224(sp)
   174f2:	0f9100a3          	sb	s9,225(sp)
   174f6:	2481                	sext.w	s1,s1
   174f8:	bff4f493          	andi	s1,s1,-1025
   174fc:	00048d9b          	sext.w	s11,s1
   17500:	ec3a                	sd	a4,24(sp)
   17502:	4789                	li	a5,2
   17504:	b5cff06f          	j	16860 <_svfprintf_r+0x348>
   17508:	2004e493          	ori	s1,s1,512
   1750c:	00144e83          	lbu	t4,1(s0)
   17510:	2481                	sext.w	s1,s1
   17512:	0405                	addi	s0,s0,1
   17514:	910ff06f          	j	16624 <_svfprintf_r+0x10c>
   17518:	0204e493          	ori	s1,s1,32
   1751c:	00144e83          	lbu	t4,1(s0)
   17520:	2481                	sext.w	s1,s1
   17522:	0405                	addi	s0,s0,1
   17524:	900ff06f          	j	16624 <_svfprintf_r+0x10c>
   17528:	67f1                	lui	a5,0x1c
   1752a:	10878793          	addi	a5,a5,264 # 1c108 <__clzdi2+0x116>
   1752e:	f43e                	sd	a5,40(sp)
   17530:	bf69                	j	174ca <_svfprintf_r+0xfb2>
   17532:	0a10                	addi	a2,sp,272
   17534:	85d2                	mv	a1,s4
   17536:	854e                	mv	a0,s3
   17538:	67e020ef          	jal	ra,19bb6 <__ssprint_r>
   1753c:	b4051ce3          	bnez	a0,17094 <_svfprintf_r+0xb7c>
   17540:	7792                	ld	a5,288(sp)
   17542:	835a                	mv	t1,s6
   17544:	ba69                	j	16ede <_svfprintf_r+0x9c6>
   17546:	04000593          	li	a1,64
   1754a:	854e                	mv	a0,s3
   1754c:	8bffd0ef          	jal	ra,14e0a <_malloc_r>
   17550:	00aa3023          	sd	a0,0(s4)
   17554:	00aa3c23          	sd	a0,24(s4)
   17558:	300509e3          	beqz	a0,1806a <_svfprintf_r+0x1b52>
   1755c:	04000793          	li	a5,64
   17560:	02fa2023          	sw	a5,32(s4)
   17564:	81cff06f          	j	16580 <_svfprintf_r+0x68>
   17568:	4799                	li	a5,6
   1756a:	000c0b9b          	sext.w	s7,s8
   1756e:	4787ed63          	bltu	a5,s8,179e8 <_svfprintf_r+0x14d0>
   17572:	6871                	lui	a6,0x1c
   17574:	895e                	mv	s2,s7
   17576:	ec6e                	sd	s11,24(sp)
   17578:	13880d13          	addi	s10,a6,312 # 1c138 <__clzdi2+0x146>
   1757c:	910ff06f          	j	1668c <_svfprintf_r+0x174>
   17580:	68f5                	lui	a7,0x1d
   17582:	46c1                	li	a3,16
   17584:	11812703          	lw	a4,280(sp)
   17588:	87088d93          	addi	s11,a7,-1936 # 1c870 <zeroes.4506>
   1758c:	4cc1                	li	s9,16
   1758e:	4c1d                	li	s8,7
   17590:	0176c663          	blt	a3,s7,1759c <_svfprintf_r+0x1084>
   17594:	a119                	j	1799a <_svfprintf_r+0x1482>
   17596:	3bc1                	addiw	s7,s7,-16
   17598:	417cd163          	bge	s9,s7,1799a <_svfprintf_r+0x1482>
   1759c:	2705                	addiw	a4,a4,1
   1759e:	07c1                	addi	a5,a5,16
   175a0:	01b33023          	sd	s11,0(t1)
   175a4:	01933423          	sd	s9,8(t1)
   175a8:	f23e                	sd	a5,288(sp)
   175aa:	10e12c23          	sw	a4,280(sp)
   175ae:	0341                	addi	t1,t1,16
   175b0:	feec53e3          	bge	s8,a4,17596 <_svfprintf_r+0x107e>
   175b4:	0a10                	addi	a2,sp,272
   175b6:	85d2                	mv	a1,s4
   175b8:	854e                	mv	a0,s3
   175ba:	5fc020ef          	jal	ra,19bb6 <__ssprint_r>
   175be:	ac051be3          	bnez	a0,17094 <_svfprintf_r+0xb7c>
   175c2:	7792                	ld	a5,288(sp)
   175c4:	11812703          	lw	a4,280(sp)
   175c8:	835a                	mv	t1,s6
   175ca:	b7f1                	j	17596 <_svfprintf_r+0x107e>
   175cc:	7702                	ld	a4,32(sp)
   175ce:	6ef5                	lui	t4,0x1d
   175d0:	4b9d                	li	s7,7
   175d2:	976a                	add	a4,a4,s10
   175d4:	fc3a                	sd	a4,56(sp)
   175d6:	6766                	ld	a4,88(sp)
   175d8:	4dc1                	li	s11,16
   175da:	870e8c93          	addi	s9,t4,-1936 # 1c870 <zeroes.4506>
   175de:	cb51                	beqz	a4,17672 <_svfprintf_r+0x115a>
   175e0:	6726                	ld	a4,72(sp)
   175e2:	eb59                	bnez	a4,17678 <_svfprintf_r+0x1160>
   175e4:	7706                	ld	a4,96(sp)
   175e6:	177d                	addi	a4,a4,-1
   175e8:	f0ba                	sd	a4,96(sp)
   175ea:	6766                	ld	a4,88(sp)
   175ec:	377d                	addiw	a4,a4,-1
   175ee:	ecba                	sd	a4,88(sp)
   175f0:	672a                	ld	a4,136(sp)
   175f2:	668a                	ld	a3,128(sp)
   175f4:	0341                	addi	t1,t1,16
   175f6:	fee33823          	sd	a4,-16(t1)
   175fa:	11812703          	lw	a4,280(sp)
   175fe:	97b6                	add	a5,a5,a3
   17600:	fed33c23          	sd	a3,-8(t1)
   17604:	2705                	addiw	a4,a4,1
   17606:	f23e                	sd	a5,288(sp)
   17608:	0007069b          	sext.w	a3,a4
   1760c:	10e12c23          	sw	a4,280(sp)
   17610:	10dbc663          	blt	s7,a3,1771c <_svfprintf_r+0x1204>
   17614:	7706                	ld	a4,96(sp)
   17616:	00074583          	lbu	a1,0(a4)
   1761a:	7762                	ld	a4,56(sp)
   1761c:	0005869b          	sext.w	a3,a1
   17620:	4187063b          	subw	a2,a4,s8
   17624:	0006871b          	sext.w	a4,a3
   17628:	00d65463          	bge	a2,a3,17630 <_svfprintf_r+0x1118>
   1762c:	0006071b          	sext.w	a4,a2
   17630:	02e05663          	blez	a4,1765c <_svfprintf_r+0x1144>
   17634:	11812683          	lw	a3,280(sp)
   17638:	97ba                	add	a5,a5,a4
   1763a:	01833023          	sd	s8,0(t1)
   1763e:	0016861b          	addiw	a2,a3,1
   17642:	00e33423          	sd	a4,8(t1)
   17646:	f23e                	sd	a5,288(sp)
   17648:	10c12c23          	sw	a2,280(sp)
   1764c:	1acbce63          	blt	s7,a2,17808 <_svfprintf_r+0x12f0>
   17650:	7686                	ld	a3,96(sp)
   17652:	0341                	addi	t1,t1,16
   17654:	0006c583          	lbu	a1,0(a3)
   17658:	0005869b          	sext.w	a3,a1
   1765c:	fff74613          	not	a2,a4
   17660:	967d                	srai	a2,a2,0x3f
   17662:	8f71                	and	a4,a4,a2
   17664:	40e6873b          	subw	a4,a3,a4
   17668:	00e04c63          	bgtz	a4,17680 <_svfprintf_r+0x1168>
   1766c:	9c2e                	add	s8,s8,a1
   1766e:	6766                	ld	a4,88(sp)
   17670:	fb25                	bnez	a4,175e0 <_svfprintf_r+0x10c8>
   17672:	6726                	ld	a4,72(sp)
   17674:	40070563          	beqz	a4,17a7e <_svfprintf_r+0x1566>
   17678:	6726                	ld	a4,72(sp)
   1767a:	377d                	addiw	a4,a4,-1
   1767c:	e4ba                	sd	a4,72(sp)
   1767e:	bf8d                	j	175f0 <_svfprintf_r+0x10d8>
   17680:	11812683          	lw	a3,280(sp)
   17684:	00edc663          	blt	s11,a4,17690 <_svfprintf_r+0x1178>
   17688:	a081                	j	176c8 <_svfprintf_r+0x11b0>
   1768a:	3741                	addiw	a4,a4,-16
   1768c:	02edde63          	bge	s11,a4,176c8 <_svfprintf_r+0x11b0>
   17690:	2685                	addiw	a3,a3,1
   17692:	07c1                	addi	a5,a5,16
   17694:	01933023          	sd	s9,0(t1)
   17698:	01b33423          	sd	s11,8(t1)
   1769c:	f23e                	sd	a5,288(sp)
   1769e:	10d12c23          	sw	a3,280(sp)
   176a2:	0341                	addi	t1,t1,16
   176a4:	fedbd3e3          	bge	s7,a3,1768a <_svfprintf_r+0x1172>
   176a8:	0a10                	addi	a2,sp,272
   176aa:	85d2                	mv	a1,s4
   176ac:	854e                	mv	a0,s3
   176ae:	f83a                	sd	a4,48(sp)
   176b0:	506020ef          	jal	ra,19bb6 <__ssprint_r>
   176b4:	9e0510e3          	bnez	a0,17094 <_svfprintf_r+0xb7c>
   176b8:	7742                	ld	a4,48(sp)
   176ba:	7792                	ld	a5,288(sp)
   176bc:	11812683          	lw	a3,280(sp)
   176c0:	3741                	addiw	a4,a4,-16
   176c2:	835a                	mv	t1,s6
   176c4:	fcedc6e3          	blt	s11,a4,17690 <_svfprintf_r+0x1178>
   176c8:	2685                	addiw	a3,a3,1
   176ca:	97ba                	add	a5,a5,a4
   176cc:	00e33423          	sd	a4,8(t1)
   176d0:	01933023          	sd	s9,0(t1)
   176d4:	f23e                	sd	a5,288(sp)
   176d6:	0006871b          	sext.w	a4,a3
   176da:	10d12c23          	sw	a3,280(sp)
   176de:	40ebca63          	blt	s7,a4,17af2 <_svfprintf_r+0x15da>
   176e2:	7706                	ld	a4,96(sp)
   176e4:	0341                	addi	t1,t1,16
   176e6:	00074583          	lbu	a1,0(a4)
   176ea:	9c2e                	add	s8,s8,a1
   176ec:	b749                	j	1766e <_svfprintf_r+0x1156>
   176ee:	0104f793          	andi	a5,s1,16
   176f2:	cfe9                	beqz	a5,177cc <_svfprintf_r+0x12b4>
   176f4:	67e2                	ld	a5,24(sp)
   176f6:	0007b903          	ld	s2,0(a5)
   176fa:	b3cd                	j	174dc <_svfprintf_r+0xfc4>
   176fc:	0a10                	addi	a2,sp,272
   176fe:	85d2                	mv	a1,s4
   17700:	854e                	mv	a0,s3
   17702:	4b4020ef          	jal	ra,19bb6 <__ssprint_r>
   17706:	980517e3          	bnez	a0,17094 <_svfprintf_r+0xb7c>
   1770a:	11812603          	lw	a2,280(sp)
   1770e:	7c12                	ld	s8,288(sp)
   17710:	1a010313          	addi	t1,sp,416
   17714:	2605                	addiw	a2,a2,1
   17716:	8bda                	mv	s7,s6
   17718:	c6aff06f          	j	16b82 <_svfprintf_r+0x66a>
   1771c:	0a10                	addi	a2,sp,272
   1771e:	85d2                	mv	a1,s4
   17720:	854e                	mv	a0,s3
   17722:	494020ef          	jal	ra,19bb6 <__ssprint_r>
   17726:	960517e3          	bnez	a0,17094 <_svfprintf_r+0xb7c>
   1772a:	7792                	ld	a5,288(sp)
   1772c:	835a                	mv	t1,s6
   1772e:	b5dd                	j	17614 <_svfprintf_r+0x10fc>
   17730:	11812703          	lw	a4,280(sp)
   17734:	66f1                	lui	a3,0x1c
   17736:	14068693          	addi	a3,a3,320 # 1c140 <__clzdi2+0x14e>
   1773a:	2705                	addiw	a4,a4,1
   1773c:	00d33023          	sd	a3,0(t1)
   17740:	0785                	addi	a5,a5,1
   17742:	4685                	li	a3,1
   17744:	00d33423          	sd	a3,8(t1)
   17748:	10e12c23          	sw	a4,280(sp)
   1774c:	0007069b          	sext.w	a3,a4
   17750:	f23e                	sd	a5,288(sp)
   17752:	471d                	li	a4,7
   17754:	0341                	addi	t1,t1,16
   17756:	06d74063          	blt	a4,a3,177b6 <_svfprintf_r+0x129e>
   1775a:	10061963          	bnez	a2,1786c <_svfprintf_r+0x1354>
   1775e:	7682                	ld	a3,32(sp)
   17760:	0014f713          	andi	a4,s1,1
   17764:	8f55                	or	a4,a4,a3
   17766:	e319                	bnez	a4,1776c <_svfprintf_r+0x1254>
   17768:	fdffe06f          	j	16746 <_svfprintf_r+0x22e>
   1776c:	7746                	ld	a4,112(sp)
   1776e:	76a6                	ld	a3,104(sp)
   17770:	00e33023          	sd	a4,0(t1)
   17774:	11812703          	lw	a4,280(sp)
   17778:	97b6                	add	a5,a5,a3
   1777a:	00d33423          	sd	a3,8(t1)
   1777e:	2705                	addiw	a4,a4,1
   17780:	0007069b          	sext.w	a3,a4
   17784:	10e12c23          	sw	a4,280(sp)
   17788:	f23e                	sd	a5,288(sp)
   1778a:	471d                	li	a4,7
   1778c:	2cd74763          	blt	a4,a3,17a5a <_svfprintf_r+0x1542>
   17790:	0341                	addi	t1,t1,16
   17792:	7702                	ld	a4,32(sp)
   17794:	0016861b          	addiw	a2,a3,1
   17798:	01a33023          	sd	s10,0(t1)
   1779c:	97ba                	add	a5,a5,a4
   1779e:	00e33423          	sd	a4,8(t1)
   177a2:	f23e                	sd	a5,288(sp)
   177a4:	10c12c23          	sw	a2,280(sp)
   177a8:	471d                	li	a4,7
   177aa:	00c74463          	blt	a4,a2,177b2 <_svfprintf_r+0x129a>
   177ae:	f97fe06f          	j	16744 <_svfprintf_r+0x22c>
   177b2:	becff06f          	j	16b9e <_svfprintf_r+0x686>
   177b6:	0a10                	addi	a2,sp,272
   177b8:	85d2                	mv	a1,s4
   177ba:	854e                	mv	a0,s3
   177bc:	3fa020ef          	jal	ra,19bb6 <__ssprint_r>
   177c0:	8c051ae3          	bnez	a0,17094 <_svfprintf_r+0xb7c>
   177c4:	562e                	lw	a2,232(sp)
   177c6:	7792                	ld	a5,288(sp)
   177c8:	835a                	mv	t1,s6
   177ca:	bf41                	j	1775a <_svfprintf_r+0x1242>
   177cc:	66e2                	ld	a3,24(sp)
   177ce:	0404f793          	andi	a5,s1,64
   177d2:	0006a903          	lw	s2,0(a3)
   177d6:	18078f63          	beqz	a5,17974 <_svfprintf_r+0x145c>
   177da:	1942                	slli	s2,s2,0x30
   177dc:	03095913          	srli	s2,s2,0x30
   177e0:	b9f5                	j	174dc <_svfprintf_r+0xfc4>
   177e2:	0a10                	addi	a2,sp,272
   177e4:	85d2                	mv	a1,s4
   177e6:	854e                	mv	a0,s3
   177e8:	3ce020ef          	jal	ra,19bb6 <__ssprint_r>
   177ec:	8a0514e3          	bnez	a0,17094 <_svfprintf_r+0xb7c>
   177f0:	7792                	ld	a5,288(sp)
   177f2:	835a                	mv	t1,s6
   177f4:	ebcff06f          	j	16eb0 <_svfprintf_r+0x998>
   177f8:	0017069b          	addiw	a3,a4,1
   177fc:	8736                	mv	a4,a3
   177fe:	97de                	add	a5,a5,s7
   17800:	01b33023          	sd	s11,0(t1)
   17804:	f31fe06f          	j	16734 <_svfprintf_r+0x21c>
   17808:	0a10                	addi	a2,sp,272
   1780a:	85d2                	mv	a1,s4
   1780c:	854e                	mv	a0,s3
   1780e:	f83a                	sd	a4,48(sp)
   17810:	3a6020ef          	jal	ra,19bb6 <__ssprint_r>
   17814:	880510e3          	bnez	a0,17094 <_svfprintf_r+0xb7c>
   17818:	7786                	ld	a5,96(sp)
   1781a:	7742                	ld	a4,48(sp)
   1781c:	835a                	mv	t1,s6
   1781e:	0007c583          	lbu	a1,0(a5)
   17822:	7792                	ld	a5,288(sp)
   17824:	0005869b          	sext.w	a3,a1
   17828:	bd15                	j	1765c <_svfprintf_r+0x1144>
   1782a:	6512                	ld	a0,256(sp)
   1782c:	65b2                	ld	a1,264(sp)
   1782e:	4601                	li	a2,0
   17830:	4681                	li	a3,0
   17832:	50a030ef          	jal	ra,1ad3c <__letf2>
   17836:	6342                	ld	t1,16(sp)
   17838:	2c054b63          	bltz	a0,17b0e <_svfprintf_r+0x15f6>
   1783c:	0df14783          	lbu	a5,223(sp)
   17840:	04700713          	li	a4,71
   17844:	19975363          	bge	a4,s9,179ca <_svfprintf_r+0x14b2>
   17848:	6871                	lui	a6,0x1c
   1784a:	0f080d13          	addi	s10,a6,240 # 1c0f0 <__clzdi2+0xfe>
   1784e:	f7f4f493          	andi	s1,s1,-129
   17852:	e802                	sd	zero,16(sp)
   17854:	e482                	sd	zero,72(sp)
   17856:	ec82                	sd	zero,88(sp)
   17858:	e882                	sd	zero,80(sp)
   1785a:	2481                	sext.w	s1,s1
   1785c:	490d                	li	s2,3
   1785e:	4b8d                	li	s7,3
   17860:	4c01                	li	s8,0
   17862:	c399                	beqz	a5,17868 <_svfprintf_r+0x1350>
   17864:	fd5fe06f          	j	16838 <_svfprintf_r+0x320>
   17868:	e2ffe06f          	j	16696 <_svfprintf_r+0x17e>
   1786c:	7746                	ld	a4,112(sp)
   1786e:	76a6                	ld	a3,104(sp)
   17870:	0341                	addi	t1,t1,16
   17872:	fee33823          	sd	a4,-16(t1)
   17876:	11812703          	lw	a4,280(sp)
   1787a:	97b6                	add	a5,a5,a3
   1787c:	fed33c23          	sd	a3,-8(t1)
   17880:	2705                	addiw	a4,a4,1
   17882:	0007069b          	sext.w	a3,a4
   17886:	10e12c23          	sw	a4,280(sp)
   1788a:	f23e                	sd	a5,288(sp)
   1788c:	471d                	li	a4,7
   1788e:	1cd74663          	blt	a4,a3,17a5a <_svfprintf_r+0x1542>
   17892:	f00650e3          	bgez	a2,17792 <_svfprintf_r+0x127a>
   17896:	68f5                	lui	a7,0x1d
   17898:	5741                	li	a4,-16
   1789a:	40c00c3b          	negw	s8,a2
   1789e:	87088d93          	addi	s11,a7,-1936 # 1c870 <zeroes.4506>
   178a2:	4bc1                	li	s7,16
   178a4:	4c9d                	li	s9,7
   178a6:	00e64663          	blt	a2,a4,178b2 <_svfprintf_r+0x139a>
   178aa:	a345                	j	17e4a <_svfprintf_r+0x1932>
   178ac:	3c41                	addiw	s8,s8,-16
   178ae:	598bde63          	bge	s7,s8,17e4a <_svfprintf_r+0x1932>
   178b2:	2685                	addiw	a3,a3,1
   178b4:	07c1                	addi	a5,a5,16
   178b6:	01b33023          	sd	s11,0(t1)
   178ba:	01733423          	sd	s7,8(t1)
   178be:	f23e                	sd	a5,288(sp)
   178c0:	10d12c23          	sw	a3,280(sp)
   178c4:	0341                	addi	t1,t1,16
   178c6:	fedcd3e3          	bge	s9,a3,178ac <_svfprintf_r+0x1394>
   178ca:	0a10                	addi	a2,sp,272
   178cc:	85d2                	mv	a1,s4
   178ce:	854e                	mv	a0,s3
   178d0:	2e6020ef          	jal	ra,19bb6 <__ssprint_r>
   178d4:	fc051063          	bnez	a0,17094 <_svfprintf_r+0xb7c>
   178d8:	7792                	ld	a5,288(sp)
   178da:	11812683          	lw	a3,280(sp)
   178de:	835a                	mv	t1,s6
   178e0:	b7f1                	j	178ac <_svfprintf_r+0x1394>
   178e2:	856a                	mv	a0,s10
   178e4:	f81a                	sd	t1,48(sp)
   178e6:	b31fe0ef          	jal	ra,16416 <strlen>
   178ea:	00050b9b          	sext.w	s7,a0
   178ee:	fffbc913          	not	s2,s7
   178f2:	0df14783          	lbu	a5,223(sp)
   178f6:	43f95913          	srai	s2,s2,0x3f
   178fa:	012bf933          	and	s2,s7,s2
   178fe:	ec6e                	sd	s11,24(sp)
   17900:	e802                	sd	zero,16(sp)
   17902:	e482                	sd	zero,72(sp)
   17904:	ec82                	sd	zero,88(sp)
   17906:	e882                	sd	zero,80(sp)
   17908:	7342                	ld	t1,48(sp)
   1790a:	2901                	sext.w	s2,s2
   1790c:	4c01                	li	s8,0
   1790e:	c399                	beqz	a5,17914 <_svfprintf_r+0x13fc>
   17910:	f29fe06f          	j	16838 <_svfprintf_r+0x320>
   17914:	d83fe06f          	j	16696 <_svfprintf_r+0x17e>
   17918:	0017061b          	addiw	a2,a4,1
   1791c:	010b8713          	addi	a4,s7,16
   17920:	9c66                	add	s8,s8,s9
   17922:	01bbb023          	sd	s11,0(s7)
   17926:	019bb423          	sd	s9,8(s7)
   1792a:	f262                	sd	s8,288(sp)
   1792c:	10c12c23          	sw	a2,280(sp)
   17930:	469d                	li	a3,7
   17932:	dcc6c5e3          	blt	a3,a2,176fc <_svfprintf_r+0x11e4>
   17936:	2605                	addiw	a2,a2,1
   17938:	01070313          	addi	t1,a4,16
   1793c:	8bba                	mv	s7,a4
   1793e:	a44ff06f          	j	16b82 <_svfprintf_r+0x66a>
   17942:	2004f793          	andi	a5,s1,512
   17946:	c7fd                	beqz	a5,17a34 <_svfprintf_r+0x151c>
   17948:	0ff97913          	andi	s2,s2,255
   1794c:	f09fe06f          	j	16854 <_svfprintf_r+0x33c>
   17950:	200df793          	andi	a5,s11,512
   17954:	cbe9                	beqz	a5,17a26 <_svfprintf_r+0x150e>
   17956:	0ff97913          	andi	s2,s2,255
   1795a:	ec3a                	sd	a4,24(sp)
   1795c:	4785                	li	a5,1
   1795e:	f03fe06f          	j	16860 <_svfprintf_r+0x348>
   17962:	2004f793          	andi	a5,s1,512
   17966:	cbd5                	beqz	a5,17a1a <_svfprintf_r+0x1502>
   17968:	67e2                	ld	a5,24(sp)
   1796a:	00078903          	lb	s2,0(a5)
   1796e:	87ca                	mv	a5,s2
   17970:	e87fe06f          	j	167f6 <_svfprintf_r+0x2de>
   17974:	2004f793          	andi	a5,s1,512
   17978:	cfc9                	beqz	a5,17a12 <_svfprintf_r+0x14fa>
   1797a:	0ff97913          	andi	s2,s2,255
   1797e:	beb9                	j	174dc <_svfprintf_r+0xfc4>
   17980:	67b2                	ld	a5,264(sp)
   17982:	0c07c763          	bltz	a5,17a50 <_svfprintf_r+0x1538>
   17986:	0df14783          	lbu	a5,223(sp)
   1798a:	04700713          	li	a4,71
   1798e:	2b975363          	bge	a4,s9,17c34 <_svfprintf_r+0x171c>
   17992:	6871                	lui	a6,0x1c
   17994:	10080d13          	addi	s10,a6,256 # 1c100 <__clzdi2+0x10e>
   17998:	bd5d                	j	1784e <_svfprintf_r+0x1336>
   1799a:	0017069b          	addiw	a3,a4,1
   1799e:	97de                	add	a5,a5,s7
   179a0:	01b33023          	sd	s11,0(t1)
   179a4:	01733423          	sd	s7,8(t1)
   179a8:	f23e                	sd	a5,288(sp)
   179aa:	10d12c23          	sw	a3,280(sp)
   179ae:	471d                	li	a4,7
   179b0:	0341                	addi	t1,t1,16
   179b2:	88d755e3          	bge	a4,a3,1723c <_svfprintf_r+0xd24>
   179b6:	0a10                	addi	a2,sp,272
   179b8:	85d2                	mv	a1,s4
   179ba:	854e                	mv	a0,s3
   179bc:	1fa020ef          	jal	ra,19bb6 <__ssprint_r>
   179c0:	ec051a63          	bnez	a0,17094 <_svfprintf_r+0xb7c>
   179c4:	7792                	ld	a5,288(sp)
   179c6:	835a                	mv	t1,s6
   179c8:	b895                	j	1723c <_svfprintf_r+0xd24>
   179ca:	6871                	lui	a6,0x1c
   179cc:	0e880d13          	addi	s10,a6,232 # 1c0e8 <__clzdi2+0xf6>
   179d0:	bdbd                	j	1784e <_svfprintf_r+0x1336>
   179d2:	0a10                	addi	a2,sp,272
   179d4:	85d2                	mv	a1,s4
   179d6:	854e                	mv	a0,s3
   179d8:	1de020ef          	jal	ra,19bb6 <__ssprint_r>
   179dc:	ea051c63          	bnez	a0,17094 <_svfprintf_r+0xb7c>
   179e0:	7792                	ld	a5,288(sp)
   179e2:	835a                	mv	t1,s6
   179e4:	845ff06f          	j	17228 <_svfprintf_r+0xd10>
   179e8:	4b99                	li	s7,6
   179ea:	b661                	j	17572 <_svfprintf_r+0x105a>
   179ec:	7682                	ld	a3,32(sp)
   179ee:	00dd0833          	add	a6,s10,a3
   179f2:	40e6863b          	subw	a2,a3,a4
   179f6:	41880f3b          	subw	t5,a6,s8
   179fa:	8bb2                	mv	s7,a2
   179fc:	8ccf50e3          	bge	t5,a2,172bc <_svfprintf_r+0xda4>
   17a00:	000f0b9b          	sext.w	s7,t5
   17a04:	b865                	j	172bc <_svfprintf_r+0xda4>
   17a06:	67a2                	ld	a5,8(sp)
   17a08:	8d22                	mv	s10,s0
   17a0a:	00f71023          	sh	a5,0(a4)
   17a0e:	d6bfe06f          	j	16778 <_svfprintf_r+0x260>
   17a12:	1902                	slli	s2,s2,0x20
   17a14:	02095913          	srli	s2,s2,0x20
   17a18:	b4d1                	j	174dc <_svfprintf_r+0xfc4>
   17a1a:	67e2                	ld	a5,24(sp)
   17a1c:	0007a903          	lw	s2,0(a5)
   17a20:	87ca                	mv	a5,s2
   17a22:	dd5fe06f          	j	167f6 <_svfprintf_r+0x2de>
   17a26:	1902                	slli	s2,s2,0x20
   17a28:	02095913          	srli	s2,s2,0x20
   17a2c:	ec3a                	sd	a4,24(sp)
   17a2e:	4785                	li	a5,1
   17a30:	e31fe06f          	j	16860 <_svfprintf_r+0x348>
   17a34:	1902                	slli	s2,s2,0x20
   17a36:	02095913          	srli	s2,s2,0x20
   17a3a:	e1bfe06f          	j	16854 <_svfprintf_r+0x33c>
   17a3e:	0a10                	addi	a2,sp,272
   17a40:	85d2                	mv	a1,s4
   17a42:	854e                	mv	a0,s3
   17a44:	172020ef          	jal	ra,19bb6 <__ssprint_r>
   17a48:	010a5783          	lhu	a5,16(s4)
   17a4c:	d41fe06f          	j	1678c <_svfprintf_r+0x274>
   17a50:	02d00793          	li	a5,45
   17a54:	0cf10fa3          	sb	a5,223(sp)
   17a58:	bf0d                	j	1798a <_svfprintf_r+0x1472>
   17a5a:	0a10                	addi	a2,sp,272
   17a5c:	85d2                	mv	a1,s4
   17a5e:	854e                	mv	a0,s3
   17a60:	156020ef          	jal	ra,19bb6 <__ssprint_r>
   17a64:	e2051863          	bnez	a0,17094 <_svfprintf_r+0xb7c>
   17a68:	562e                	lw	a2,232(sp)
   17a6a:	7792                	ld	a5,288(sp)
   17a6c:	11812683          	lw	a3,280(sp)
   17a70:	835a                	mv	t1,s6
   17a72:	d20650e3          	bgez	a2,17792 <_svfprintf_r+0x127a>
   17a76:	b505                	j	17896 <_svfprintf_r+0x137e>
   17a78:	4c19                	li	s8,6
   17a7a:	ea7fe06f          	j	16920 <_svfprintf_r+0x408>
   17a7e:	7702                	ld	a4,32(sp)
   17a80:	976a                	add	a4,a4,s10
   17a82:	fd877463          	bgeu	a4,s8,1724a <_svfprintf_r+0xd32>
   17a86:	8c3a                	mv	s8,a4
   17a88:	fc2ff06f          	j	1724a <_svfprintf_r+0xd32>
   17a8c:	6746                	ld	a4,80(sp)
   17a8e:	57f5                	li	a5,-3
   17a90:	00f74463          	blt	a4,a5,17a98 <_svfprintf_r+0x1580>
   17a94:	00ec5863          	bge	s8,a4,17aa4 <_svfprintf_r+0x158c>
   17a98:	3cf9                	addiw	s9,s9,-2
   17a9a:	fdfcf793          	andi	a5,s9,-33
   17a9e:	ecbe                	sd	a5,88(sp)
   17aa0:	f2ffe06f          	j	169ce <_svfprintf_r+0x4b6>
   17aa4:	7782                	ld	a5,32(sp)
   17aa6:	6746                	ld	a4,80(sp)
   17aa8:	14f74163          	blt	a4,a5,17bea <_svfprintf_r+0x16d2>
   17aac:	77aa                	ld	a5,168(sp)
   17aae:	8bba                	mv	s7,a4
   17ab0:	8b85                	andi	a5,a5,1
   17ab2:	c781                	beqz	a5,17aba <_svfprintf_r+0x15a2>
   17ab4:	77a6                	ld	a5,104(sp)
   17ab6:	00e78bbb          	addw	s7,a5,a4
   17aba:	77aa                	ld	a5,168(sp)
   17abc:	4007f793          	andi	a5,a5,1024
   17ac0:	c781                	beqz	a5,17ac8 <_svfprintf_r+0x15b0>
   17ac2:	67c6                	ld	a5,80(sp)
   17ac4:	48f04763          	bgtz	a5,17f52 <_svfprintf_r+0x1a3a>
   17ac8:	fffbc913          	not	s2,s7
   17acc:	43f95913          	srai	s2,s2,0x3f
   17ad0:	012bf933          	and	s2,s7,s2
   17ad4:	2901                	sext.w	s2,s2
   17ad6:	06700c93          	li	s9,103
   17ada:	e482                	sd	zero,72(sp)
   17adc:	ec82                	sd	zero,88(sp)
   17ade:	fd3fe06f          	j	16ab0 <_svfprintf_r+0x598>
   17ae2:	0df14783          	lbu	a5,223(sp)
   17ae6:	4c01                	li	s8,0
   17ae8:	c399                	beqz	a5,17aee <_svfprintf_r+0x15d6>
   17aea:	d4ffe06f          	j	16838 <_svfprintf_r+0x320>
   17aee:	ba9fe06f          	j	16696 <_svfprintf_r+0x17e>
   17af2:	0a10                	addi	a2,sp,272
   17af4:	85d2                	mv	a1,s4
   17af6:	854e                	mv	a0,s3
   17af8:	0be020ef          	jal	ra,19bb6 <__ssprint_r>
   17afc:	d8051c63          	bnez	a0,17094 <_svfprintf_r+0xb7c>
   17b00:	7786                	ld	a5,96(sp)
   17b02:	835a                	mv	t1,s6
   17b04:	0007c583          	lbu	a1,0(a5)
   17b08:	7792                	ld	a5,288(sp)
   17b0a:	9c2e                	add	s8,s8,a1
   17b0c:	b68d                	j	1766e <_svfprintf_r+0x1156>
   17b0e:	02d00793          	li	a5,45
   17b12:	0cf10fa3          	sb	a5,223(sp)
   17b16:	b32d                	j	17840 <_svfprintf_r+0x1328>
   17b18:	0f810893          	addi	a7,sp,248
   17b1c:	0ec10813          	addi	a6,sp,236
   17b20:	11bc                	addi	a5,sp,232
   17b22:	8762                	mv	a4,s8
   17b24:	468d                	li	a3,3
   17b26:	85ee                	mv	a1,s11
   17b28:	865e                	mv	a2,s7
   17b2a:	854e                	mv	a0,s3
   17b2c:	f01a                	sd	t1,32(sp)
   17b2e:	ac0fc0ef          	jal	ra,13dee <_ldtoa_r>
   17b32:	7302                	ld	t1,32(sp)
   17b34:	8d2a                	mv	s10,a0
   17b36:	6766                	ld	a4,88(sp)
   17b38:	04600793          	li	a5,70
   17b3c:	018d0933          	add	s2,s10,s8
   17b40:	00f70463          	beq	a4,a5,17b48 <_svfprintf_r+0x1630>
   17b44:	e37fe06f          	j	1697a <_svfprintf_r+0x462>
   17b48:	000d4703          	lbu	a4,0(s10)
   17b4c:	03000793          	li	a5,48
   17b50:	00f70663          	beq	a4,a5,17b5c <_svfprintf_r+0x1644>
   17b54:	572e                	lw	a4,232(sp)
   17b56:	993a                	add	s2,s2,a4
   17b58:	e23fe06f          	j	1697a <_svfprintf_r+0x462>
   17b5c:	4601                	li	a2,0
   17b5e:	4681                	li	a3,0
   17b60:	856e                	mv	a0,s11
   17b62:	85de                	mv	a1,s7
   17b64:	f01a                	sd	t1,32(sp)
   17b66:	09a030ef          	jal	ra,1ac00 <__eqtf2>
   17b6a:	7302                	ld	t1,32(sp)
   17b6c:	d565                	beqz	a0,17b54 <_svfprintf_r+0x163c>
   17b6e:	4785                	li	a5,1
   17b70:	4187873b          	subw	a4,a5,s8
   17b74:	d5ba                	sw	a4,232(sp)
   17b76:	993a                	add	s2,s2,a4
   17b78:	e03fe06f          	j	1697a <_svfprintf_r+0x462>
   17b7c:	0a10                	addi	a2,sp,272
   17b7e:	85d2                	mv	a1,s4
   17b80:	854e                	mv	a0,s3
   17b82:	034020ef          	jal	ra,19bb6 <__ssprint_r>
   17b86:	d0051763          	bnez	a0,17094 <_svfprintf_r+0xb7c>
   17b8a:	572e                	lw	a4,232(sp)
   17b8c:	7792                	ld	a5,288(sp)
   17b8e:	835a                	mv	t1,s6
   17b90:	ef0ff06f          	j	17280 <_svfprintf_r+0xd68>
   17b94:	11bc                	addi	a5,sp,232
   17b96:	8762                	mv	a4,s8
   17b98:	0f810893          	addi	a7,sp,248
   17b9c:	0ec10813          	addi	a6,sp,236
   17ba0:	4689                	li	a3,2
   17ba2:	85ee                	mv	a1,s11
   17ba4:	865e                	mv	a2,s7
   17ba6:	854e                	mv	a0,s3
   17ba8:	a46fc0ef          	jal	ra,13dee <_ldtoa_r>
   17bac:	6766                	ld	a4,88(sp)
   17bae:	04700793          	li	a5,71
   17bb2:	7302                	ld	t1,32(sp)
   17bb4:	8d2a                	mv	s10,a0
   17bb6:	f8f710e3          	bne	a4,a5,17b36 <_svfprintf_r+0x161e>
   17bba:	77aa                	ld	a5,168(sp)
   17bbc:	8b85                	andi	a5,a5,1
   17bbe:	2a079e63          	bnez	a5,17e7a <_svfprintf_r+0x1962>
   17bc2:	04700793          	li	a5,71
   17bc6:	76ee                	ld	a3,248(sp)
   17bc8:	ecbe                	sd	a5,88(sp)
   17bca:	ddffe06f          	j	169a8 <_svfprintf_r+0x490>
   17bce:	0df14783          	lbu	a5,223(sp)
   17bd2:	ec6e                	sd	s11,24(sp)
   17bd4:	e482                	sd	zero,72(sp)
   17bd6:	ec82                	sd	zero,88(sp)
   17bd8:	e882                	sd	zero,80(sp)
   17bda:	8962                	mv	s2,s8
   17bdc:	8be2                	mv	s7,s8
   17bde:	4c01                	li	s8,0
   17be0:	c399                	beqz	a5,17be6 <_svfprintf_r+0x16ce>
   17be2:	c57fe06f          	j	16838 <_svfprintf_r+0x320>
   17be6:	ab1fe06f          	j	16696 <_svfprintf_r+0x17e>
   17bea:	7702                	ld	a4,32(sp)
   17bec:	77a6                	ld	a5,104(sp)
   17bee:	06700c93          	li	s9,103
   17bf2:	00e78bbb          	addw	s7,a5,a4
   17bf6:	6746                	ld	a4,80(sp)
   17bf8:	3ce05c63          	blez	a4,17fd0 <_svfprintf_r+0x1ab8>
   17bfc:	77aa                	ld	a5,168(sp)
   17bfe:	4007f793          	andi	a5,a5,1024
   17c02:	34079a63          	bnez	a5,17f56 <_svfprintf_r+0x1a3e>
   17c06:	fffbc913          	not	s2,s7
   17c0a:	43f95913          	srai	s2,s2,0x3f
   17c0e:	012bf933          	and	s2,s7,s2
   17c12:	2901                	sext.w	s2,s2
   17c14:	b5d9                	j	17ada <_svfprintf_r+0x15c2>
   17c16:	0a10                	addi	a2,sp,272
   17c18:	85d2                	mv	a1,s4
   17c1a:	854e                	mv	a0,s3
   17c1c:	79b010ef          	jal	ra,19bb6 <__ssprint_r>
   17c20:	c6051a63          	bnez	a0,17094 <_svfprintf_r+0xb7c>
   17c24:	562e                	lw	a2,232(sp)
   17c26:	7702                	ld	a4,32(sp)
   17c28:	7792                	ld	a5,288(sp)
   17c2a:	835a                	mv	t1,s6
   17c2c:	40c7063b          	subw	a2,a4,a2
   17c30:	e8cff06f          	j	172bc <_svfprintf_r+0xda4>
   17c34:	6871                	lui	a6,0x1c
   17c36:	0f880d13          	addi	s10,a6,248 # 1c0f8 <__clzdi2+0x106>
   17c3a:	b911                	j	1784e <_svfprintf_r+0x1336>
   17c3c:	77aa                	ld	a5,168(sp)
   17c3e:	6746                	ld	a4,80(sp)
   17c40:	8b85                	andi	a5,a5,1
   17c42:	00fc67b3          	or	a5,s8,a5
   17c46:	3ae05f63          	blez	a4,18004 <_svfprintf_r+0x1aec>
   17c4a:	2e079c63          	bnez	a5,17f42 <_svfprintf_r+0x1a2a>
   17c4e:	6bc6                	ld	s7,80(sp)
   17c50:	06600c93          	li	s9,102
   17c54:	b765                	j	17bfc <_svfprintf_r+0x16e4>
   17c56:	03000793          	li	a5,48
   17c5a:	0ef10023          	sb	a5,224(sp)
   17c5e:	05800713          	li	a4,88
   17c62:	0024e793          	ori	a5,s1,2
   17c66:	2781                	sext.w	a5,a5
   17c68:	0ee100a3          	sb	a4,225(sp)
   17c6c:	f53e                	sd	a5,168(sp)
   17c6e:	06300713          	li	a4,99
   17c72:	e802                	sd	zero,16(sp)
   17c74:	12810d13          	addi	s10,sp,296
   17c78:	1b874663          	blt	a4,s8,17e24 <_svfprintf_r+0x190c>
   17c7c:	6bb2                	ld	s7,264(sp)
   17c7e:	fdfcf713          	andi	a4,s9,-33
   17c82:	1024e493          	ori	s1,s1,258
   17c86:	ecba                	sd	a4,88(sp)
   17c88:	e582                	sd	zero,200(sp)
   17c8a:	6d92                	ld	s11,256(sp)
   17c8c:	2481                	sext.w	s1,s1
   17c8e:	120bcc63          	bltz	s7,17dc6 <_svfprintf_r+0x18ae>
   17c92:	06100793          	li	a5,97
   17c96:	24fc8263          	beq	s9,a5,17eda <_svfprintf_r+0x19c2>
   17c9a:	04100793          	li	a5,65
   17c9e:	00fc8463          	beq	s9,a5,17ca6 <_svfprintf_r+0x178e>
   17ca2:	c99fe06f          	j	1693a <_svfprintf_r+0x422>
   17ca6:	85de                	mv	a1,s7
   17ca8:	856e                	mv	a0,s11
   17caa:	fc1a                	sd	t1,56(sp)
   17cac:	116040ef          	jal	ra,1bdc2 <__trunctfdf2>
   17cb0:	11a8                	addi	a0,sp,232
   17cb2:	bfcfe0ef          	jal	ra,160ae <frexp>
   17cb6:	04c040ef          	jal	ra,1bd02 <__extenddftf2>
   17cba:	00fff7b7          	lui	a5,0xfff
   17cbe:	02679693          	slli	a3,a5,0x26
   17cc2:	4601                	li	a2,0
   17cc4:	120030ef          	jal	ra,1ade4 <__multf3>
   17cc8:	4601                	li	a2,0
   17cca:	4681                	li	a3,0
   17ccc:	f82a                	sd	a0,48(sp)
   17cce:	f02e                	sd	a1,32(sp)
   17cd0:	731020ef          	jal	ra,1ac00 <__eqtf2>
   17cd4:	7f82                	ld	t6,32(sp)
   17cd6:	7f42                	ld	t5,48(sp)
   17cd8:	7362                	ld	t1,56(sp)
   17cda:	e119                	bnez	a0,17ce0 <_svfprintf_r+0x17c8>
   17cdc:	4785                	li	a5,1
   17cde:	d5be                	sw	a5,232(sp)
   17ce0:	6bf1                	lui	s7,0x1c
   17ce2:	108b8793          	addi	a5,s7,264 # 1c108 <__clzdi2+0x116>
   17ce6:	e4be                	sd	a5,72(sp)
   17ce8:	020c1793          	slli	a5,s8,0x20
   17cec:	9381                	srli	a5,a5,0x20
   17cee:	0785                	addi	a5,a5,1
   17cf0:	97ea                	add	a5,a5,s10
   17cf2:	f93e                	sd	a5,176(sp)
   17cf4:	018d07bb          	addw	a5,s10,s8
   17cf8:	8dea                	mv	s11,s10
   17cfa:	c3be                	sw	a5,196(sp)
   17cfc:	a819                	j	17d12 <_svfprintf_r+0x17fa>
   17cfe:	4601                	li	a2,0
   17d00:	4681                	li	a3,0
   17d02:	e0aa                	sd	a0,64(sp)
   17d04:	6fd020ef          	jal	ra,1ac00 <__eqtf2>
   17d08:	7342                	ld	t1,48(sp)
   17d0a:	6886                	ld	a7,64(sp)
   17d0c:	7f82                	ld	t6,32(sp)
   17d0e:	7f62                	ld	t5,56(sp)
   17d10:	cd31                	beqz	a0,17d6c <_svfprintf_r+0x1854>
   17d12:	66ca                	ld	a3,144(sp)
   17d14:	4601                	li	a2,0
   17d16:	857a                	mv	a0,t5
   17d18:	85fe                	mv	a1,t6
   17d1a:	f81a                	sd	t1,48(sp)
   17d1c:	0c8030ef          	jal	ra,1ade4 <__multf3>
   17d20:	8bae                	mv	s7,a1
   17d22:	f02a                	sd	a0,32(sp)
   17d24:	6ed030ef          	jal	ra,1bc10 <__fixtfsi>
   17d28:	0005091b          	sext.w	s2,a0
   17d2c:	854a                	mv	a0,s2
   17d2e:	77b030ef          	jal	ra,1bca8 <__floatsitf>
   17d32:	7782                	ld	a5,32(sp)
   17d34:	86ae                	mv	a3,a1
   17d36:	862a                	mv	a2,a0
   17d38:	85de                	mv	a1,s7
   17d3a:	853e                	mv	a0,a5
   17d3c:	6bc030ef          	jal	ra,1b3f8 <__subtf3>
   17d40:	67a6                	ld	a5,72(sp)
   17d42:	fd6e                	sd	s11,184(sp)
   17d44:	0d85                	addi	s11,s11,1
   17d46:	97ca                	add	a5,a5,s2
   17d48:	0007c683          	lbu	a3,0(a5) # fff000 <__BSS_END__+0xfe0010>
   17d4c:	479e                	lw	a5,196(sp)
   17d4e:	fc2a                	sd	a0,56(sp)
   17d50:	fedd8fa3          	sb	a3,-1(s11)
   17d54:	41b787bb          	subw	a5,a5,s11
   17d58:	e8be                	sd	a5,80(sp)
   17d5a:	77ca                	ld	a5,176(sp)
   17d5c:	f02e                	sd	a1,32(sp)
   17d5e:	7342                	ld	t1,48(sp)
   17d60:	88aa                	mv	a7,a0
   17d62:	8bae                	mv	s7,a1
   17d64:	f9b79de3          	bne	a5,s11,17cfe <_svfprintf_r+0x17e6>
   17d68:	57fd                	li	a5,-1
   17d6a:	e8be                	sd	a5,80(sp)
   17d6c:	66ea                	ld	a3,152(sp)
   17d6e:	4601                	li	a2,0
   17d70:	8546                	mv	a0,a7
   17d72:	85de                	mv	a1,s7
   17d74:	f01a                	sd	t1,32(sp)
   17d76:	f846                	sd	a7,48(sp)
   17d78:	71d020ef          	jal	ra,1ac94 <__getf2>
   17d7c:	7302                	ld	t1,32(sp)
   17d7e:	04a04c63          	bgtz	a0,17dd6 <_svfprintf_r+0x18be>
   17d82:	78c2                	ld	a7,48(sp)
   17d84:	66ea                	ld	a3,152(sp)
   17d86:	4601                	li	a2,0
   17d88:	8546                	mv	a0,a7
   17d8a:	85de                	mv	a1,s7
   17d8c:	675020ef          	jal	ra,1ac00 <__eqtf2>
   17d90:	7302                	ld	t1,32(sp)
   17d92:	e509                	bnez	a0,17d9c <_svfprintf_r+0x1884>
   17d94:	00197913          	andi	s2,s2,1
   17d98:	02091f63          	bnez	s2,17dd6 <_svfprintf_r+0x18be>
   17d9c:	6746                	ld	a4,80(sp)
   17d9e:	03000693          	li	a3,48
   17da2:	00170793          	addi	a5,a4,1
   17da6:	97ee                	add	a5,a5,s11
   17da8:	00074763          	bltz	a4,17db6 <_svfprintf_r+0x189e>
   17dac:	0d85                	addi	s11,s11,1
   17dae:	fedd8fa3          	sb	a3,-1(s11)
   17db2:	ffb79de3          	bne	a5,s11,17dac <_svfprintf_r+0x1894>
   17db6:	41ad87bb          	subw	a5,s11,s10
   17dba:	f03e                	sd	a5,32(sp)
   17dbc:	bf3fe06f          	j	169ae <_svfprintf_r+0x496>
   17dc0:	f526                	sd	s1,168(sp)
   17dc2:	e802                	sd	zero,16(sp)
   17dc4:	84ca                	mv	s1,s2
   17dc6:	57fd                	li	a5,-1
   17dc8:	17fe                	slli	a5,a5,0x3f
   17dca:	00fbcbb3          	xor	s7,s7,a5
   17dce:	02d00793          	li	a5,45
   17dd2:	e5be                	sd	a5,200(sp)
   17dd4:	bd7d                	j	17c92 <_svfprintf_r+0x177a>
   17dd6:	77ea                	ld	a5,184(sp)
   17dd8:	fdbe                	sd	a5,248(sp)
   17dda:	67a6                	ld	a5,72(sp)
   17ddc:	fffdc683          	lbu	a3,-1(s11)
   17de0:	00f7c603          	lbu	a2,15(a5)
   17de4:	87ee                	mv	a5,s11
   17de6:	00d61e63          	bne	a2,a3,17e02 <_svfprintf_r+0x18ea>
   17dea:	03000593          	li	a1,48
   17dee:	feb78fa3          	sb	a1,-1(a5)
   17df2:	77ee                	ld	a5,248(sp)
   17df4:	fff78693          	addi	a3,a5,-1
   17df8:	fdb6                	sd	a3,248(sp)
   17dfa:	fff7c683          	lbu	a3,-1(a5)
   17dfe:	fed608e3          	beq	a2,a3,17dee <_svfprintf_r+0x18d6>
   17e02:	0016861b          	addiw	a2,a3,1
   17e06:	03900593          	li	a1,57
   17e0a:	0ff67613          	andi	a2,a2,255
   17e0e:	00b68563          	beq	a3,a1,17e18 <_svfprintf_r+0x1900>
   17e12:	fec78fa3          	sb	a2,-1(a5)
   17e16:	b745                	j	17db6 <_svfprintf_r+0x189e>
   17e18:	6726                	ld	a4,72(sp)
   17e1a:	00a74603          	lbu	a2,10(a4)
   17e1e:	fec78fa3          	sb	a2,-1(a5)
   17e22:	bf51                	j	17db6 <_svfprintf_r+0x189e>
   17e24:	001c059b          	addiw	a1,s8,1
   17e28:	854e                	mv	a0,s3
   17e2a:	e81a                	sd	t1,16(sp)
   17e2c:	fdffc0ef          	jal	ra,14e0a <_malloc_r>
   17e30:	6342                	ld	t1,16(sp)
   17e32:	8d2a                	mv	s10,a0
   17e34:	22050263          	beqz	a0,18058 <_svfprintf_r+0x1b40>
   17e38:	e82a                	sd	a0,16(sp)
   17e3a:	b589                	j	17c7c <_svfprintf_r+0x1764>
   17e3c:	03000793          	li	a5,48
   17e40:	0ef10023          	sb	a5,224(sp)
   17e44:	07800713          	li	a4,120
   17e48:	bd29                	j	17c62 <_svfprintf_r+0x174a>
   17e4a:	2685                	addiw	a3,a3,1
   17e4c:	97e2                	add	a5,a5,s8
   17e4e:	01b33023          	sd	s11,0(t1)
   17e52:	01833423          	sd	s8,8(t1)
   17e56:	f23e                	sd	a5,288(sp)
   17e58:	10d12c23          	sw	a3,280(sp)
   17e5c:	471d                	li	a4,7
   17e5e:	92d759e3          	bge	a4,a3,17790 <_svfprintf_r+0x1278>
   17e62:	0a10                	addi	a2,sp,272
   17e64:	85d2                	mv	a1,s4
   17e66:	854e                	mv	a0,s3
   17e68:	54f010ef          	jal	ra,19bb6 <__ssprint_r>
   17e6c:	a2051463          	bnez	a0,17094 <_svfprintf_r+0xb7c>
   17e70:	7792                	ld	a5,288(sp)
   17e72:	11812683          	lw	a3,280(sp)
   17e76:	835a                	mv	t1,s6
   17e78:	ba29                	j	17792 <_svfprintf_r+0x127a>
   17e7a:	04700793          	li	a5,71
   17e7e:	018d0933          	add	s2,s10,s8
   17e82:	ecbe                	sd	a5,88(sp)
   17e84:	af7fe06f          	j	1697a <_svfprintf_r+0x462>
   17e88:	8da6                	mv	s11,s1
   17e8a:	a2aff06f          	j	170b4 <_svfprintf_r+0xb9c>
   17e8e:	000c1363          	bnez	s8,17e94 <_svfprintf_r+0x197c>
   17e92:	4c05                	li	s8,1
   17e94:	6bb2                	ld	s7,264(sp)
   17e96:	1004e913          	ori	s2,s1,256
   17e9a:	6d92                	ld	s11,256(sp)
   17e9c:	2901                	sext.w	s2,s2
   17e9e:	f20bc1e3          	bltz	s7,17dc0 <_svfprintf_r+0x18a8>
   17ea2:	0f810893          	addi	a7,sp,248
   17ea6:	0ec10813          	addi	a6,sp,236
   17eaa:	11bc                	addi	a5,sp,232
   17eac:	8762                	mv	a4,s8
   17eae:	4689                	li	a3,2
   17eb0:	85ee                	mv	a1,s11
   17eb2:	865e                	mv	a2,s7
   17eb4:	854e                	mv	a0,s3
   17eb6:	f01a                	sd	t1,32(sp)
   17eb8:	f37fb0ef          	jal	ra,13dee <_ldtoa_r>
   17ebc:	7302                	ld	t1,32(sp)
   17ebe:	f526                	sd	s1,168(sp)
   17ec0:	8d2a                	mv	s10,a0
   17ec2:	84ca                	mv	s1,s2
   17ec4:	e802                	sd	zero,16(sp)
   17ec6:	e582                	sd	zero,200(sp)
   17ec8:	b9cd                	j	17bba <_svfprintf_r+0x16a2>
   17eca:	c31c                	sw	a5,0(a4)
   17ecc:	8d22                	mv	s10,s0
   17ece:	8abfe06f          	j	16778 <_svfprintf_r+0x260>
   17ed2:	57fd                	li	a5,-1
   17ed4:	e43e                	sd	a5,8(sp)
   17ed6:	8c1fe06f          	j	16796 <_svfprintf_r+0x27e>
   17eda:	85de                	mv	a1,s7
   17edc:	856e                	mv	a0,s11
   17ede:	fc1a                	sd	t1,56(sp)
   17ee0:	6e3030ef          	jal	ra,1bdc2 <__trunctfdf2>
   17ee4:	11a8                	addi	a0,sp,232
   17ee6:	9c8fe0ef          	jal	ra,160ae <frexp>
   17eea:	619030ef          	jal	ra,1bd02 <__extenddftf2>
   17eee:	768a                	ld	a3,160(sp)
   17ef0:	4601                	li	a2,0
   17ef2:	6f3020ef          	jal	ra,1ade4 <__multf3>
   17ef6:	4601                	li	a2,0
   17ef8:	4681                	li	a3,0
   17efa:	f82a                	sd	a0,48(sp)
   17efc:	f02e                	sd	a1,32(sp)
   17efe:	503020ef          	jal	ra,1ac00 <__eqtf2>
   17f02:	7f82                	ld	t6,32(sp)
   17f04:	7f42                	ld	t5,48(sp)
   17f06:	7362                	ld	t1,56(sp)
   17f08:	e119                	bnez	a0,17f0e <_svfprintf_r+0x19f6>
   17f0a:	4785                	li	a5,1
   17f0c:	d5be                	sw	a5,232(sp)
   17f0e:	6bf1                	lui	s7,0x1c
   17f10:	120b8793          	addi	a5,s7,288 # 1c120 <__clzdi2+0x12e>
   17f14:	e4be                	sd	a5,72(sp)
   17f16:	bbc9                	j	17ce8 <_svfprintf_r+0x17d0>
   17f18:	0f210713          	addi	a4,sp,242
   17f1c:	e699                	bnez	a3,17f2a <_svfprintf_r+0x1a12>
   17f1e:	03000713          	li	a4,48
   17f22:	0ee10923          	sb	a4,242(sp)
   17f26:	0f310713          	addi	a4,sp,243
   17f2a:	0c14                	addi	a3,sp,528
   17f2c:	0307879b          	addiw	a5,a5,48
   17f30:	40d706b3          	sub	a3,a4,a3
   17f34:	00f70023          	sb	a5,0(a4)
   17f38:	1216879b          	addiw	a5,a3,289
   17f3c:	fcbe                	sd	a5,120(sp)
   17f3e:	b39fe06f          	j	16a76 <_svfprintf_r+0x55e>
   17f42:	77a6                	ld	a5,104(sp)
   17f44:	06600c93          	li	s9,102
   17f48:	00e78bbb          	addw	s7,a5,a4
   17f4c:	018b8bbb          	addw	s7,s7,s8
   17f50:	b175                	j	17bfc <_svfprintf_r+0x16e4>
   17f52:	06700c93          	li	s9,103
   17f56:	7786                	ld	a5,96(sp)
   17f58:	0ff00713          	li	a4,255
   17f5c:	e482                	sd	zero,72(sp)
   17f5e:	0007c783          	lbu	a5,0(a5)
   17f62:	ec82                	sd	zero,88(sp)
   17f64:	02e78863          	beq	a5,a4,17f94 <_svfprintf_r+0x1a7c>
   17f68:	0ff00693          	li	a3,255
   17f6c:	6646                	ld	a2,80(sp)
   17f6e:	0007871b          	sext.w	a4,a5
   17f72:	02c7d163          	bge	a5,a2,17f94 <_svfprintf_r+0x1a7c>
   17f76:	7586                	ld	a1,96(sp)
   17f78:	40e6073b          	subw	a4,a2,a4
   17f7c:	e8ba                	sd	a4,80(sp)
   17f7e:	0015c783          	lbu	a5,1(a1)
   17f82:	cf8d                	beqz	a5,17fbc <_svfprintf_r+0x1aa4>
   17f84:	6766                	ld	a4,88(sp)
   17f86:	2705                	addiw	a4,a4,1
   17f88:	ecba                	sd	a4,88(sp)
   17f8a:	00158713          	addi	a4,a1,1
   17f8e:	f0ba                	sd	a4,96(sp)
   17f90:	fcd79ee3          	bne	a5,a3,17f6c <_svfprintf_r+0x1a54>
   17f94:	6766                	ld	a4,88(sp)
   17f96:	67a6                	ld	a5,72(sp)
   17f98:	9fb9                	addw	a5,a5,a4
   17f9a:	670a                	ld	a4,128(sp)
   17f9c:	02e787bb          	mulw	a5,a5,a4
   17fa0:	017787bb          	addw	a5,a5,s7
   17fa4:	00078b9b          	sext.w	s7,a5
   17fa8:	fffbc913          	not	s2,s7
   17fac:	43f95913          	srai	s2,s2,0x3f
   17fb0:	0127f7b3          	and	a5,a5,s2
   17fb4:	0007891b          	sext.w	s2,a5
   17fb8:	af9fe06f          	j	16ab0 <_svfprintf_r+0x598>
   17fbc:	6726                	ld	a4,72(sp)
   17fbe:	7786                	ld	a5,96(sp)
   17fc0:	2705                	addiw	a4,a4,1
   17fc2:	0007c783          	lbu	a5,0(a5)
   17fc6:	e4ba                	sd	a4,72(sp)
   17fc8:	b7e1                	j	17f90 <_svfprintf_r+0x1a78>
   17fca:	e802                	sd	zero,16(sp)
   17fcc:	84be                	mv	s1,a5
   17fce:	bbe5                	j	17dc6 <_svfprintf_r+0x18ae>
   17fd0:	40eb87bb          	subw	a5,s7,a4
   17fd4:	2785                	addiw	a5,a5,1
   17fd6:	00078b9b          	sext.w	s7,a5
   17fda:	fffbc913          	not	s2,s7
   17fde:	43f95913          	srai	s2,s2,0x3f
   17fe2:	0127f7b3          	and	a5,a5,s2
   17fe6:	0007891b          	sext.w	s2,a5
   17fea:	bcc5                	j	17ada <_svfprintf_r+0x15c2>
   17fec:	772a                	ld	a4,168(sp)
   17fee:	8b05                	andi	a4,a4,1
   17ff0:	e319                	bnez	a4,17ff6 <_svfprintf_r+0x1ade>
   17ff2:	a9ffe06f          	j	16a90 <_svfprintf_r+0x578>
   17ff6:	a95fe06f          	j	16a8a <_svfprintf_r+0x572>
   17ffa:	68f5                	lui	a7,0x1d
   17ffc:	871a                	mv	a4,t1
   17ffe:	87088d93          	addi	s11,a7,-1936 # 1c870 <zeroes.4506>
   18002:	ba39                	j	17920 <_svfprintf_r+0x1408>
   18004:	e791                	bnez	a5,18010 <_svfprintf_r+0x1af8>
   18006:	4905                	li	s2,1
   18008:	06600c93          	li	s9,102
   1800c:	4b85                	li	s7,1
   1800e:	b4f1                	j	17ada <_svfprintf_r+0x15c2>
   18010:	77a6                	ld	a5,104(sp)
   18012:	06600c93          	li	s9,102
   18016:	2785                	addiw	a5,a5,1
   18018:	01878e3b          	addw	t3,a5,s8
   1801c:	000e0b9b          	sext.w	s7,t3
   18020:	fffbc913          	not	s2,s7
   18024:	43f95913          	srai	s2,s2,0x3f
   18028:	012e7e33          	and	t3,t3,s2
   1802c:	000e091b          	sext.w	s2,t3
   18030:	b46d                	j	17ada <_svfprintf_r+0x15c2>
   18032:	66e2                	ld	a3,24(sp)
   18034:	4298                	lw	a4,0(a3)
   18036:	06a1                	addi	a3,a3,8
   18038:	8e3a                	mv	t3,a4
   1803a:	00075363          	bgez	a4,18040 <_svfprintf_r+0x1b28>
   1803e:	5e7d                	li	t3,-1
   18040:	00144e83          	lbu	t4,1(s0)
   18044:	000e0c1b          	sext.w	s8,t3
   18048:	ec36                	sd	a3,24(sp)
   1804a:	843e                	mv	s0,a5
   1804c:	dd8fe06f          	j	16624 <_svfprintf_r+0x10c>
   18050:	4789                	li	a5,2
   18052:	fcbe                	sd	a5,120(sp)
   18054:	a23fe06f          	j	16a76 <_svfprintf_r+0x55e>
   18058:	010a5783          	lhu	a5,16(s4)
   1805c:	0407e713          	ori	a4,a5,64
   18060:	87ba                	mv	a5,a4
   18062:	00ea1823          	sh	a4,16(s4)
   18066:	f26fe06f          	j	1678c <_svfprintf_r+0x274>
   1806a:	47b1                	li	a5,12
   1806c:	00f9a023          	sw	a5,0(s3)
   18070:	57fd                	li	a5,-1
   18072:	e43e                	sd	a5,8(sp)
   18074:	f22fe06f          	j	16796 <_svfprintf_r+0x27e>

0000000000018078 <__sprint_r.part.0>:
   18078:	0ac5a783          	lw	a5,172(a1)
   1807c:	715d                	addi	sp,sp,-80
   1807e:	ec56                	sd	s5,24(sp)
   18080:	e486                	sd	ra,72(sp)
   18082:	e0a2                	sd	s0,64(sp)
   18084:	fc26                	sd	s1,56(sp)
   18086:	f84a                	sd	s2,48(sp)
   18088:	f44e                	sd	s3,40(sp)
   1808a:	f052                	sd	s4,32(sp)
   1808c:	e85a                	sd	s6,16(sp)
   1808e:	e45e                	sd	s7,8(sp)
   18090:	03279713          	slli	a4,a5,0x32
   18094:	8ab2                	mv	s5,a2
   18096:	08075063          	bgez	a4,18116 <__sprint_r.part.0+0x9e>
   1809a:	6a18                	ld	a4,16(a2)
   1809c:	00063b03          	ld	s6,0(a2)
   180a0:	892e                	mv	s2,a1
   180a2:	89aa                	mv	s3,a0
   180a4:	5a7d                	li	s4,-1
   180a6:	c735                	beqz	a4,18112 <__sprint_r.part.0+0x9a>
   180a8:	008b3783          	ld	a5,8(s6)
   180ac:	000b3403          	ld	s0,0(s6)
   180b0:	8389                	srli	a5,a5,0x2
   180b2:	00078b9b          	sext.w	s7,a5
   180b6:	05705763          	blez	s7,18104 <__sprint_r.part.0+0x8c>
   180ba:	fff7849b          	addiw	s1,a5,-1
   180be:	1482                	slli	s1,s1,0x20
   180c0:	80f9                	srli	s1,s1,0x1e
   180c2:	00440793          	addi	a5,s0,4
   180c6:	94be                	add	s1,s1,a5
   180c8:	a019                	j	180ce <__sprint_r.part.0+0x56>
   180ca:	02848b63          	beq	s1,s0,18100 <__sprint_r.part.0+0x88>
   180ce:	400c                	lw	a1,0(s0)
   180d0:	864a                	mv	a2,s2
   180d2:	854e                	mv	a0,s3
   180d4:	7d5000ef          	jal	ra,190a8 <_fputwc_r>
   180d8:	2501                	sext.w	a0,a0
   180da:	0411                	addi	s0,s0,4
   180dc:	ff4517e3          	bne	a0,s4,180ca <__sprint_r.part.0+0x52>
   180e0:	557d                	li	a0,-1
   180e2:	60a6                	ld	ra,72(sp)
   180e4:	6406                	ld	s0,64(sp)
   180e6:	000ab823          	sd	zero,16(s5)
   180ea:	000aa423          	sw	zero,8(s5)
   180ee:	74e2                	ld	s1,56(sp)
   180f0:	7942                	ld	s2,48(sp)
   180f2:	79a2                	ld	s3,40(sp)
   180f4:	7a02                	ld	s4,32(sp)
   180f6:	6ae2                	ld	s5,24(sp)
   180f8:	6b42                	ld	s6,16(sp)
   180fa:	6ba2                	ld	s7,8(sp)
   180fc:	6161                	addi	sp,sp,80
   180fe:	8082                	ret
   18100:	010ab703          	ld	a4,16(s5)
   18104:	0b8a                	slli	s7,s7,0x2
   18106:	41770733          	sub	a4,a4,s7
   1810a:	00eab823          	sd	a4,16(s5)
   1810e:	0b41                	addi	s6,s6,16
   18110:	ff41                	bnez	a4,180a8 <__sprint_r.part.0+0x30>
   18112:	4501                	li	a0,0
   18114:	b7f9                	j	180e2 <__sprint_r.part.0+0x6a>
   18116:	03e010ef          	jal	ra,19154 <__sfvwrite_r>
   1811a:	b7e1                	j	180e2 <__sprint_r.part.0+0x6a>

000000000001811c <__sprint_r>:
   1811c:	6a18                	ld	a4,16(a2)
   1811e:	c311                	beqz	a4,18122 <__sprint_r+0x6>
   18120:	bfa1                	j	18078 <__sprint_r.part.0>
   18122:	00062423          	sw	zero,8(a2)
   18126:	4501                	li	a0,0
   18128:	8082                	ret

000000000001812a <_vfiprintf_r>:
   1812a:	7145                	addi	sp,sp,-464
   1812c:	f74e                	sd	s3,424(sp)
   1812e:	ef56                	sd	s5,408(sp)
   18130:	e362                	sd	s8,384(sp)
   18132:	faea                	sd	s10,368(sp)
   18134:	e786                	sd	ra,456(sp)
   18136:	e3a2                	sd	s0,448(sp)
   18138:	ff26                	sd	s1,440(sp)
   1813a:	fb4a                	sd	s2,432(sp)
   1813c:	f352                	sd	s4,416(sp)
   1813e:	eb5a                	sd	s6,400(sp)
   18140:	e75e                	sd	s7,392(sp)
   18142:	fee6                	sd	s9,376(sp)
   18144:	f6ee                	sd	s11,360(sp)
   18146:	8aaa                	mv	s5,a0
   18148:	89ae                	mv	s3,a1
   1814a:	8d32                	mv	s10,a2
   1814c:	8c36                	mv	s8,a3
   1814e:	c501                	beqz	a0,18156 <_vfiprintf_r+0x2c>
   18150:	493c                	lw	a5,80(a0)
   18152:	40078663          	beqz	a5,1855e <_vfiprintf_r+0x434>
   18156:	01099703          	lh	a4,16(s3)
   1815a:	03071793          	slli	a5,a4,0x30
   1815e:	03271693          	slli	a3,a4,0x32
   18162:	93c1                	srli	a5,a5,0x30
   18164:	0206c363          	bltz	a3,1818a <_vfiprintf_r+0x60>
   18168:	6789                	lui	a5,0x2
   1816a:	0ac9a683          	lw	a3,172(s3)
   1816e:	8fd9                	or	a5,a5,a4
   18170:	0107979b          	slliw	a5,a5,0x10
   18174:	7779                	lui	a4,0xffffe
   18176:	4107d79b          	sraiw	a5,a5,0x10
   1817a:	177d                	addi	a4,a4,-1
   1817c:	8f75                	and	a4,a4,a3
   1817e:	00f99823          	sh	a5,16(s3)
   18182:	17c2                	slli	a5,a5,0x30
   18184:	0ae9a623          	sw	a4,172(s3)
   18188:	93c1                	srli	a5,a5,0x30
   1818a:	0087f713          	andi	a4,a5,8
   1818e:	2a070263          	beqz	a4,18432 <_vfiprintf_r+0x308>
   18192:	0189b703          	ld	a4,24(s3)
   18196:	28070e63          	beqz	a4,18432 <_vfiprintf_r+0x308>
   1819a:	8be9                	andi	a5,a5,26
   1819c:	4729                	li	a4,10
   1819e:	2ae78663          	beq	a5,a4,1844a <_vfiprintf_r+0x320>
   181a2:	67f5                	lui	a5,0x1d
   181a4:	1180                	addi	s0,sp,224
   181a6:	88078793          	addi	a5,a5,-1920 # 1c880 <zeroes.4506+0x10>
   181aa:	6b75                	lui	s6,0x1d
   181ac:	6975                	lui	s2,0x1d
   181ae:	f0a2                	sd	s0,96(sp)
   181b0:	f882                	sd	zero,112(sp)
   181b2:	d482                	sw	zero,104(sp)
   181b4:	8722                	mv	a4,s0
   181b6:	e802                	sd	zero,16(sp)
   181b8:	fc02                	sd	zero,56(sp)
   181ba:	e482                	sd	zero,72(sp)
   181bc:	e082                	sd	zero,64(sp)
   181be:	e002                	sd	zero,0(sp)
   181c0:	ec3e                	sd	a5,24(sp)
   181c2:	9f0b0b13          	addi	s6,s6,-1552 # 1c9f0 <blanks.4496>
   181c6:	a0090913          	addi	s2,s2,-1536 # 1ca00 <zeroes.4497>
   181ca:	000d4783          	lbu	a5,0(s10)
   181ce:	1c078563          	beqz	a5,18398 <_vfiprintf_r+0x26e>
   181d2:	8a6a                	mv	s4,s10
   181d4:	02500693          	li	a3,37
   181d8:	2ed78163          	beq	a5,a3,184ba <_vfiprintf_r+0x390>
   181dc:	001a4783          	lbu	a5,1(s4)
   181e0:	0a05                	addi	s4,s4,1
   181e2:	fbfd                	bnez	a5,181d8 <_vfiprintf_r+0xae>
   181e4:	41aa04bb          	subw	s1,s4,s10
   181e8:	1a048863          	beqz	s1,18398 <_vfiprintf_r+0x26e>
   181ec:	57a6                	lw	a5,104(sp)
   181ee:	76c6                	ld	a3,112(sp)
   181f0:	01a73023          	sd	s10,0(a4) # ffffffffffffe000 <__BSS_END__+0xfffffffffffdf010>
   181f4:	0017861b          	addiw	a2,a5,1
   181f8:	96a6                	add	a3,a3,s1
   181fa:	e704                	sd	s1,8(a4)
   181fc:	f8b6                	sd	a3,112(sp)
   181fe:	d4b2                	sw	a2,104(sp)
   18200:	479d                	li	a5,7
   18202:	0741                	addi	a4,a4,16
   18204:	00c7dc63          	bge	a5,a2,1821c <_vfiprintf_r+0xf2>
   18208:	0c0681e3          	beqz	a3,18aca <_vfiprintf_r+0x9a0>
   1820c:	1090                	addi	a2,sp,96
   1820e:	85ce                	mv	a1,s3
   18210:	8556                	mv	a0,s5
   18212:	e67ff0ef          	jal	ra,18078 <__sprint_r.part.0>
   18216:	18051463          	bnez	a0,1839e <_vfiprintf_r+0x274>
   1821a:	8722                	mv	a4,s0
   1821c:	6682                	ld	a3,0(sp)
   1821e:	000a4783          	lbu	a5,0(s4)
   18222:	9ea5                	addw	a3,a3,s1
   18224:	e036                	sd	a3,0(sp)
   18226:	16078963          	beqz	a5,18398 <_vfiprintf_r+0x26e>
   1822a:	001a4683          	lbu	a3,1(s4)
   1822e:	001a0d13          	addi	s10,s4,1
   18232:	04010ba3          	sb	zero,87(sp)
   18236:	58fd                	li	a7,-1
   18238:	4481                	li	s1,0
   1823a:	4d81                	li	s11,0
   1823c:	05a00a13          	li	s4,90
   18240:	4ba5                	li	s7,9
   18242:	0d05                	addi	s10,s10,1
   18244:	2681                	sext.w	a3,a3
   18246:	02a00593          	li	a1,42
   1824a:	fe06879b          	addiw	a5,a3,-32
   1824e:	0007861b          	sext.w	a2,a5
   18252:	04ca6063          	bltu	s4,a2,18292 <_vfiprintf_r+0x168>
   18256:	6662                	ld	a2,24(sp)
   18258:	1782                	slli	a5,a5,0x20
   1825a:	83f9                	srli	a5,a5,0x1e
   1825c:	97b2                	add	a5,a5,a2
   1825e:	439c                	lw	a5,0(a5)
   18260:	8782                	jr	a5
   18262:	4481                	li	s1,0
   18264:	000d4603          	lbu	a2,0(s10)
   18268:	0024979b          	slliw	a5,s1,0x2
   1826c:	9cbd                	addw	s1,s1,a5
   1826e:	fd06869b          	addiw	a3,a3,-48
   18272:	0014949b          	slliw	s1,s1,0x1
   18276:	fd06079b          	addiw	a5,a2,-48
   1827a:	9cb5                	addw	s1,s1,a3
   1827c:	0d05                	addi	s10,s10,1
   1827e:	0006069b          	sext.w	a3,a2
   18282:	fefbf1e3          	bgeu	s7,a5,18264 <_vfiprintf_r+0x13a>
   18286:	fe06879b          	addiw	a5,a3,-32
   1828a:	0007861b          	sext.w	a2,a5
   1828e:	fcca74e3          	bgeu	s4,a2,18256 <_vfiprintf_r+0x12c>
   18292:	10068363          	beqz	a3,18398 <_vfiprintf_r+0x26e>
   18296:	06d10c23          	sb	a3,120(sp)
   1829a:	04010ba3          	sb	zero,87(sp)
   1829e:	4b85                	li	s7,1
   182a0:	4a05                	li	s4,1
   182a2:	07810c93          	addi	s9,sp,120
   182a6:	4881                	li	a7,0
   182a8:	002df793          	andi	a5,s11,2
   182ac:	00078f9b          	sext.w	t6,a5
   182b0:	c391                	beqz	a5,182b4 <_vfiprintf_r+0x18a>
   182b2:	2b89                	addiw	s7,s7,2
   182b4:	56a6                	lw	a3,104(sp)
   182b6:	084dff13          	andi	t5,s11,132
   182ba:	77c6                	ld	a5,112(sp)
   182bc:	0016861b          	addiw	a2,a3,1
   182c0:	85b2                	mv	a1,a2
   182c2:	000f1663          	bnez	t5,182ce <_vfiprintf_r+0x1a4>
   182c6:	41748ebb          	subw	t4,s1,s7
   182ca:	6bd04763          	bgtz	t4,18978 <_vfiprintf_r+0x84e>
   182ce:	05714503          	lbu	a0,87(sp)
   182d2:	01070593          	addi	a1,a4,16
   182d6:	c105                	beqz	a0,182f6 <_vfiprintf_r+0x1cc>
   182d8:	05710693          	addi	a3,sp,87
   182dc:	e314                	sd	a3,0(a4)
   182de:	0785                	addi	a5,a5,1
   182e0:	4685                	li	a3,1
   182e2:	e714                	sd	a3,8(a4)
   182e4:	f8be                	sd	a5,112(sp)
   182e6:	d4b2                	sw	a2,104(sp)
   182e8:	471d                	li	a4,7
   182ea:	5ec74f63          	blt	a4,a2,188e8 <_vfiprintf_r+0x7be>
   182ee:	86b2                	mv	a3,a2
   182f0:	872e                	mv	a4,a1
   182f2:	2605                	addiw	a2,a2,1
   182f4:	05c1                	addi	a1,a1,16
   182f6:	020f8e63          	beqz	t6,18332 <_vfiprintf_r+0x208>
   182fa:	08b4                	addi	a3,sp,88
   182fc:	e314                	sd	a3,0(a4)
   182fe:	0789                	addi	a5,a5,2
   18300:	4689                	li	a3,2
   18302:	e714                	sd	a3,8(a4)
   18304:	f8be                	sd	a5,112(sp)
   18306:	d4b2                	sw	a2,104(sp)
   18308:	471d                	li	a4,7
   1830a:	60c75b63          	bge	a4,a2,18920 <_vfiprintf_r+0x7f6>
   1830e:	7c078b63          	beqz	a5,18ae4 <_vfiprintf_r+0x9ba>
   18312:	1090                	addi	a2,sp,96
   18314:	85ce                	mv	a1,s3
   18316:	8556                	mv	a0,s5
   18318:	f046                	sd	a7,32(sp)
   1831a:	e47a                	sd	t5,8(sp)
   1831c:	d5dff0ef          	jal	ra,18078 <__sprint_r.part.0>
   18320:	ed3d                	bnez	a0,1839e <_vfiprintf_r+0x274>
   18322:	56a6                	lw	a3,104(sp)
   18324:	77c6                	ld	a5,112(sp)
   18326:	7882                	ld	a7,32(sp)
   18328:	6f22                	ld	t5,8(sp)
   1832a:	198c                	addi	a1,sp,240
   1832c:	0016861b          	addiw	a2,a3,1
   18330:	8722                	mv	a4,s0
   18332:	08000513          	li	a0,128
   18336:	46af0863          	beq	t5,a0,187a6 <_vfiprintf_r+0x67c>
   1833a:	414888bb          	subw	a7,a7,s4
   1833e:	51104863          	bgtz	a7,1884e <_vfiprintf_r+0x724>
   18342:	97d2                	add	a5,a5,s4
   18344:	01973023          	sd	s9,0(a4)
   18348:	01473423          	sd	s4,8(a4)
   1834c:	f8be                	sd	a5,112(sp)
   1834e:	d4b2                	sw	a2,104(sp)
   18350:	471d                	li	a4,7
   18352:	00c75c63          	bge	a4,a2,1836a <_vfiprintf_r+0x240>
   18356:	6a078863          	beqz	a5,18a06 <_vfiprintf_r+0x8dc>
   1835a:	1090                	addi	a2,sp,96
   1835c:	85ce                	mv	a1,s3
   1835e:	8556                	mv	a0,s5
   18360:	d19ff0ef          	jal	ra,18078 <__sprint_r.part.0>
   18364:	ed0d                	bnez	a0,1839e <_vfiprintf_r+0x274>
   18366:	77c6                	ld	a5,112(sp)
   18368:	85a2                	mv	a1,s0
   1836a:	004df313          	andi	t1,s11,4
   1836e:	00030663          	beqz	t1,1837a <_vfiprintf_r+0x250>
   18372:	41748a3b          	subw	s4,s1,s7
   18376:	6b404263          	bgtz	s4,18a1a <_vfiprintf_r+0x8f0>
   1837a:	8726                	mv	a4,s1
   1837c:	0174d363          	bge	s1,s7,18382 <_vfiprintf_r+0x258>
   18380:	875e                	mv	a4,s7
   18382:	6682                	ld	a3,0(sp)
   18384:	9f35                	addw	a4,a4,a3
   18386:	e03a                	sd	a4,0(sp)
   18388:	54079463          	bnez	a5,188d0 <_vfiprintf_r+0x7a6>
   1838c:	000d4783          	lbu	a5,0(s10)
   18390:	d482                	sw	zero,104(sp)
   18392:	8722                	mv	a4,s0
   18394:	e2079fe3          	bnez	a5,181d2 <_vfiprintf_r+0xa8>
   18398:	77c6                	ld	a5,112(sp)
   1839a:	160793e3          	bnez	a5,18d00 <_vfiprintf_r+0xbd6>
   1839e:	0109d783          	lhu	a5,16(s3)
   183a2:	0407f793          	andi	a5,a5,64
   183a6:	16079de3          	bnez	a5,18d20 <_vfiprintf_r+0xbf6>
   183aa:	60be                	ld	ra,456(sp)
   183ac:	641e                	ld	s0,448(sp)
   183ae:	6502                	ld	a0,0(sp)
   183b0:	74fa                	ld	s1,440(sp)
   183b2:	795a                	ld	s2,432(sp)
   183b4:	79ba                	ld	s3,424(sp)
   183b6:	7a1a                	ld	s4,416(sp)
   183b8:	6afa                	ld	s5,408(sp)
   183ba:	6b5a                	ld	s6,400(sp)
   183bc:	6bba                	ld	s7,392(sp)
   183be:	6c1a                	ld	s8,384(sp)
   183c0:	7cf6                	ld	s9,376(sp)
   183c2:	7d56                	ld	s10,368(sp)
   183c4:	7db6                	ld	s11,360(sp)
   183c6:	6179                	addi	sp,sp,464
   183c8:	8082                	ret
   183ca:	010de313          	ori	t1,s11,16
   183ce:	000d4683          	lbu	a3,0(s10)
   183d2:	00030d9b          	sext.w	s11,t1
   183d6:	b5b5                	j	18242 <_vfiprintf_r+0x118>
   183d8:	010de313          	ori	t1,s11,16
   183dc:	00030d9b          	sext.w	s11,t1
   183e0:	020df793          	andi	a5,s11,32
   183e4:	008c0613          	addi	a2,s8,8
   183e8:	0e078d63          	beqz	a5,184e2 <_vfiprintf_r+0x3b8>
   183ec:	000c3783          	ld	a5,0(s8)
   183f0:	8bbe                	mv	s7,a5
   183f2:	1007c563          	bltz	a5,184fc <_vfiprintf_r+0x3d2>
   183f6:	57fd                	li	a5,-1
   183f8:	86ee                	mv	a3,s11
   183fa:	8c32                	mv	s8,a2
   183fc:	52f88d63          	beq	a7,a5,18936 <_vfiprintf_r+0x80c>
   18400:	f7fdf693          	andi	a3,s11,-129
   18404:	2681                	sext.w	a3,a3
   18406:	720b9763          	bnez	s7,18b34 <_vfiprintf_r+0xa0a>
   1840a:	52089963          	bnez	a7,1893c <_vfiprintf_r+0x812>
   1840e:	8db6                	mv	s11,a3
   18410:	4881                	li	a7,0
   18412:	4a01                	li	s4,0
   18414:	0dc10c93          	addi	s9,sp,220
   18418:	87c6                	mv	a5,a7
   1841a:	0148d363          	bge	a7,s4,18420 <_vfiprintf_r+0x2f6>
   1841e:	87d2                	mv	a5,s4
   18420:	05714683          	lbu	a3,87(sp)
   18424:	00078b9b          	sext.w	s7,a5
   18428:	e80680e3          	beqz	a3,182a8 <_vfiprintf_r+0x17e>
   1842c:	00178b9b          	addiw	s7,a5,1
   18430:	bda5                	j	182a8 <_vfiprintf_r+0x17e>
   18432:	85ce                	mv	a1,s3
   18434:	8556                	mv	a0,s5
   18436:	d6df90ef          	jal	ra,121a2 <__swsetup_r>
   1843a:	0e0513e3          	bnez	a0,18d20 <_vfiprintf_r+0xbf6>
   1843e:	0109d783          	lhu	a5,16(s3)
   18442:	4729                	li	a4,10
   18444:	8be9                	andi	a5,a5,26
   18446:	d4e79ee3          	bne	a5,a4,181a2 <_vfiprintf_r+0x78>
   1844a:	01299783          	lh	a5,18(s3)
   1844e:	d407cae3          	bltz	a5,181a2 <_vfiprintf_r+0x78>
   18452:	86e2                	mv	a3,s8
   18454:	866a                	mv	a2,s10
   18456:	85ce                	mv	a1,s3
   18458:	8556                	mv	a0,s5
   1845a:	105000ef          	jal	ra,18d5e <__sbprintf>
   1845e:	e02a                	sd	a0,0(sp)
   18460:	b7a9                	j	183aa <_vfiprintf_r+0x280>
   18462:	010de313          	ori	t1,s11,16
   18466:	00030d9b          	sext.w	s11,t1
   1846a:	020df793          	andi	a5,s11,32
   1846e:	008c0613          	addi	a2,s8,8
   18472:	cbb9                	beqz	a5,184c8 <_vfiprintf_r+0x39e>
   18474:	000c3b83          	ld	s7,0(s8)
   18478:	bffdf313          	andi	t1,s11,-1025
   1847c:	0003069b          	sext.w	a3,t1
   18480:	8c32                	mv	s8,a2
   18482:	4781                	li	a5,0
   18484:	04010ba3          	sb	zero,87(sp)
   18488:	567d                	li	a2,-1
   1848a:	08c88563          	beq	a7,a2,18514 <_vfiprintf_r+0x3ea>
   1848e:	f7f6f313          	andi	t1,a3,-129
   18492:	00030d9b          	sext.w	s11,t1
   18496:	480b9c63          	bnez	s7,1892e <_vfiprintf_r+0x804>
   1849a:	78089363          	bnez	a7,18c20 <_vfiprintf_r+0xaf6>
   1849e:	fbad                	bnez	a5,18410 <_vfiprintf_r+0x2e6>
   184a0:	0016fa13          	andi	s4,a3,1
   184a4:	0dc10c93          	addi	s9,sp,220
   184a8:	f60a08e3          	beqz	s4,18418 <_vfiprintf_r+0x2ee>
   184ac:	03000793          	li	a5,48
   184b0:	0cf10da3          	sb	a5,219(sp)
   184b4:	0db10c93          	addi	s9,sp,219
   184b8:	b785                	j	18418 <_vfiprintf_r+0x2ee>
   184ba:	41aa04bb          	subw	s1,s4,s10
   184be:	d20497e3          	bnez	s1,181ec <_vfiprintf_r+0xc2>
   184c2:	000a4783          	lbu	a5,0(s4)
   184c6:	b385                	j	18226 <_vfiprintf_r+0xfc>
   184c8:	010df793          	andi	a5,s11,16
   184cc:	f7c5                	bnez	a5,18474 <_vfiprintf_r+0x34a>
   184ce:	040df793          	andi	a5,s11,64
   184d2:	000c2b83          	lw	s7,0(s8)
   184d6:	7a078b63          	beqz	a5,18c8c <_vfiprintf_r+0xb62>
   184da:	1bc2                	slli	s7,s7,0x30
   184dc:	030bdb93          	srli	s7,s7,0x30
   184e0:	bf61                	j	18478 <_vfiprintf_r+0x34e>
   184e2:	010df793          	andi	a5,s11,16
   184e6:	f00793e3          	bnez	a5,183ec <_vfiprintf_r+0x2c2>
   184ea:	040df793          	andi	a5,s11,64
   184ee:	78078763          	beqz	a5,18c7c <_vfiprintf_r+0xb52>
   184f2:	000c1b83          	lh	s7,0(s8)
   184f6:	87de                	mv	a5,s7
   184f8:	ee07dfe3          	bgez	a5,183f6 <_vfiprintf_r+0x2cc>
   184fc:	02d00793          	li	a5,45
   18500:	04f10ba3          	sb	a5,87(sp)
   18504:	8c32                	mv	s8,a2
   18506:	567d                	li	a2,-1
   18508:	41700bb3          	neg	s7,s7
   1850c:	86ee                	mv	a3,s11
   1850e:	4785                	li	a5,1
   18510:	f6c89fe3          	bne	a7,a2,1848e <_vfiprintf_r+0x364>
   18514:	4605                	li	a2,1
   18516:	42c78063          	beq	a5,a2,18936 <_vfiprintf_r+0x80c>
   1851a:	4609                	li	a2,2
   1851c:	42c78a63          	beq	a5,a2,18950 <_vfiprintf_r+0x826>
   18520:	0dc10a13          	addi	s4,sp,220
   18524:	8cd2                	mv	s9,s4
   18526:	007bf793          	andi	a5,s7,7
   1852a:	03078793          	addi	a5,a5,48
   1852e:	fefc8fa3          	sb	a5,-1(s9)
   18532:	003bdb93          	srli	s7,s7,0x3
   18536:	8666                	mv	a2,s9
   18538:	1cfd                	addi	s9,s9,-1
   1853a:	fe0b96e3          	bnez	s7,18526 <_vfiprintf_r+0x3fc>
   1853e:	0016f593          	andi	a1,a3,1
   18542:	24058e63          	beqz	a1,1879e <_vfiprintf_r+0x674>
   18546:	03000593          	li	a1,48
   1854a:	24b78a63          	beq	a5,a1,1879e <_vfiprintf_r+0x674>
   1854e:	1679                	addi	a2,a2,-2
   18550:	febc8fa3          	sb	a1,-1(s9)
   18554:	40ca0a3b          	subw	s4,s4,a2
   18558:	8db6                	mv	s11,a3
   1855a:	8cb2                	mv	s9,a2
   1855c:	bd75                	j	18418 <_vfiprintf_r+0x2ee>
   1855e:	a10fa0ef          	jal	ra,1276e <__sinit>
   18562:	bed5                	j	18156 <_vfiprintf_r+0x2c>
   18564:	000c3c83          	ld	s9,0(s8)
   18568:	04010ba3          	sb	zero,87(sp)
   1856c:	0c21                	addi	s8,s8,8
   1856e:	6e0c8363          	beqz	s9,18c54 <_vfiprintf_r+0xb2a>
   18572:	57fd                	li	a5,-1
   18574:	62f88b63          	beq	a7,a5,18baa <_vfiprintf_r+0xa80>
   18578:	8646                	mv	a2,a7
   1857a:	4581                	li	a1,0
   1857c:	8566                	mv	a0,s9
   1857e:	f03a                	sd	a4,32(sp)
   18580:	e446                	sd	a7,8(sp)
   18582:	ee9fc0ef          	jal	ra,1546a <memchr>
   18586:	68a2                	ld	a7,8(sp)
   18588:	7702                	ld	a4,32(sp)
   1858a:	78050263          	beqz	a0,18d0e <_vfiprintf_r+0xbe4>
   1858e:	41950a3b          	subw	s4,a0,s9
   18592:	4881                	li	a7,0
   18594:	b551                	j	18418 <_vfiprintf_r+0x2ee>
   18596:	000c2783          	lw	a5,0(s8)
   1859a:	04010ba3          	sb	zero,87(sp)
   1859e:	0c21                	addi	s8,s8,8
   185a0:	06f10c23          	sb	a5,120(sp)
   185a4:	4b85                	li	s7,1
   185a6:	4a05                	li	s4,1
   185a8:	07810c93          	addi	s9,sp,120
   185ac:	b9ed                	j	182a6 <_vfiprintf_r+0x17c>
   185ae:	020de313          	ori	t1,s11,32
   185b2:	000d4683          	lbu	a3,0(s10)
   185b6:	00030d9b          	sext.w	s11,t1
   185ba:	b161                	j	18242 <_vfiprintf_r+0x118>
   185bc:	77e1                	lui	a5,0xffff8
   185be:	002de693          	ori	a3,s11,2
   185c2:	8307c793          	xori	a5,a5,-2000
   185c6:	6df1                	lui	s11,0x1c
   185c8:	04f11c23          	sh	a5,88(sp)
   185cc:	120d8793          	addi	a5,s11,288 # 1c120 <__clzdi2+0x12e>
   185d0:	000c3b83          	ld	s7,0(s8)
   185d4:	e83e                	sd	a5,16(sp)
   185d6:	2681                	sext.w	a3,a3
   185d8:	0c21                	addi	s8,s8,8
   185da:	4789                	li	a5,2
   185dc:	b565                	j	18484 <_vfiprintf_r+0x35a>
   185de:	020df793          	andi	a5,s11,32
   185e2:	000c3683          	ld	a3,0(s8)
   185e6:	0c21                	addi	s8,s8,8
   185e8:	e385                	bnez	a5,18608 <_vfiprintf_r+0x4de>
   185ea:	010df793          	andi	a5,s11,16
   185ee:	ef89                	bnez	a5,18608 <_vfiprintf_r+0x4de>
   185f0:	040df793          	andi	a5,s11,64
   185f4:	6c079c63          	bnez	a5,18ccc <_vfiprintf_r+0xba2>
   185f8:	200df313          	andi	t1,s11,512
   185fc:	6782                	ld	a5,0(sp)
   185fe:	72030863          	beqz	t1,18d2e <_vfiprintf_r+0xc04>
   18602:	00f68023          	sb	a5,0(a3)
   18606:	b6d1                	j	181ca <_vfiprintf_r+0xa0>
   18608:	6782                	ld	a5,0(sp)
   1860a:	e29c                	sd	a5,0(a3)
   1860c:	be7d                	j	181ca <_vfiprintf_r+0xa0>
   1860e:	000d4683          	lbu	a3,0(s10)
   18612:	06c00793          	li	a5,108
   18616:	62f68663          	beq	a3,a5,18c42 <_vfiprintf_r+0xb18>
   1861a:	010de313          	ori	t1,s11,16
   1861e:	00030d9b          	sext.w	s11,t1
   18622:	b105                	j	18242 <_vfiprintf_r+0x118>
   18624:	000d4683          	lbu	a3,0(s10)
   18628:	06800793          	li	a5,104
   1862c:	60f68263          	beq	a3,a5,18c30 <_vfiprintf_r+0xb06>
   18630:	040de313          	ori	t1,s11,64
   18634:	00030d9b          	sext.w	s11,t1
   18638:	b129                	j	18242 <_vfiprintf_r+0x118>
   1863a:	010de693          	ori	a3,s11,16
   1863e:	2681                	sext.w	a3,a3
   18640:	0206f793          	andi	a5,a3,32
   18644:	008c0613          	addi	a2,s8,8
   18648:	e385                	bnez	a5,18668 <_vfiprintf_r+0x53e>
   1864a:	0106f793          	andi	a5,a3,16
   1864e:	ef89                	bnez	a5,18668 <_vfiprintf_r+0x53e>
   18650:	0406f793          	andi	a5,a3,64
   18654:	000c2b83          	lw	s7,0(s8)
   18658:	60078963          	beqz	a5,18c6a <_vfiprintf_r+0xb40>
   1865c:	1bc2                	slli	s7,s7,0x30
   1865e:	030bdb93          	srli	s7,s7,0x30
   18662:	8c32                	mv	s8,a2
   18664:	4785                	li	a5,1
   18666:	bd39                	j	18484 <_vfiprintf_r+0x35a>
   18668:	000c3b83          	ld	s7,0(s8)
   1866c:	4785                	li	a5,1
   1866e:	8c32                	mv	s8,a2
   18670:	bd11                	j	18484 <_vfiprintf_r+0x35a>
   18672:	080de313          	ori	t1,s11,128
   18676:	000d4683          	lbu	a3,0(s10)
   1867a:	00030d9b          	sext.w	s11,t1
   1867e:	b6d1                	j	18242 <_vfiprintf_r+0x118>
   18680:	000d4683          	lbu	a3,0(s10)
   18684:	001d0793          	addi	a5,s10,1
   18688:	6ab68663          	beq	a3,a1,18d34 <_vfiprintf_r+0xc0a>
   1868c:	fd06861b          	addiw	a2,a3,-48
   18690:	8d3e                	mv	s10,a5
   18692:	4881                	li	a7,0
   18694:	bacbebe3          	bltu	s7,a2,1824a <_vfiprintf_r+0x120>
   18698:	000d4683          	lbu	a3,0(s10)
   1869c:	0028979b          	slliw	a5,a7,0x2
   186a0:	011788bb          	addw	a7,a5,a7
   186a4:	0018989b          	slliw	a7,a7,0x1
   186a8:	00c888bb          	addw	a7,a7,a2
   186ac:	fd06861b          	addiw	a2,a3,-48
   186b0:	0d05                	addi	s10,s10,1
   186b2:	fecbf3e3          	bgeu	s7,a2,18698 <_vfiprintf_r+0x56e>
   186b6:	be51                	j	1824a <_vfiprintf_r+0x120>
   186b8:	000d4683          	lbu	a3,0(s10)
   186bc:	004de313          	ori	t1,s11,4
   186c0:	00030d9b          	sext.w	s11,t1
   186c4:	bebd                	j	18242 <_vfiprintf_r+0x118>
   186c6:	02b00793          	li	a5,43
   186ca:	000d4683          	lbu	a3,0(s10)
   186ce:	04f10ba3          	sb	a5,87(sp)
   186d2:	be85                	j	18242 <_vfiprintf_r+0x118>
   186d4:	000c2483          	lw	s1,0(s8)
   186d8:	000d4683          	lbu	a3,0(s10)
   186dc:	0c21                	addi	s8,s8,8
   186de:	b604d2e3          	bgez	s1,18242 <_vfiprintf_r+0x118>
   186e2:	409004bb          	negw	s1,s1
   186e6:	bfd9                	j	186bc <_vfiprintf_r+0x592>
   186e8:	8556                	mv	a0,s5
   186ea:	f03a                	sd	a4,32(sp)
   186ec:	e446                	sd	a7,8(sp)
   186ee:	d76fc0ef          	jal	ra,14c64 <_localeconv_r>
   186f2:	651c                	ld	a5,8(a0)
   186f4:	853e                	mv	a0,a5
   186f6:	e0be                	sd	a5,64(sp)
   186f8:	d1ffd0ef          	jal	ra,16416 <strlen>
   186fc:	87aa                	mv	a5,a0
   186fe:	8556                	mv	a0,s5
   18700:	8cbe                	mv	s9,a5
   18702:	e4be                	sd	a5,72(sp)
   18704:	d60fc0ef          	jal	ra,14c64 <_localeconv_r>
   18708:	6910                	ld	a2,16(a0)
   1870a:	68a2                	ld	a7,8(sp)
   1870c:	7702                	ld	a4,32(sp)
   1870e:	fc32                	sd	a2,56(sp)
   18710:	000d4683          	lbu	a3,0(s10)
   18714:	b20c87e3          	beqz	s9,18242 <_vfiprintf_r+0x118>
   18718:	b20605e3          	beqz	a2,18242 <_vfiprintf_r+0x118>
   1871c:	00064783          	lbu	a5,0(a2)
   18720:	b20781e3          	beqz	a5,18242 <_vfiprintf_r+0x118>
   18724:	400de313          	ori	t1,s11,1024
   18728:	00030d9b          	sext.w	s11,t1
   1872c:	be19                	j	18242 <_vfiprintf_r+0x118>
   1872e:	001de313          	ori	t1,s11,1
   18732:	000d4683          	lbu	a3,0(s10)
   18736:	00030d9b          	sext.w	s11,t1
   1873a:	b621                	j	18242 <_vfiprintf_r+0x118>
   1873c:	05714783          	lbu	a5,87(sp)
   18740:	000d4683          	lbu	a3,0(s10)
   18744:	ae079fe3          	bnez	a5,18242 <_vfiprintf_r+0x118>
   18748:	02000793          	li	a5,32
   1874c:	04f10ba3          	sb	a5,87(sp)
   18750:	bccd                	j	18242 <_vfiprintf_r+0x118>
   18752:	4006fe93          	andi	t4,a3,1024
   18756:	0dc10a13          	addi	s4,sp,220
   1875a:	2e81                	sext.w	t4,t4
   1875c:	4581                	li	a1,0
   1875e:	8652                	mv	a2,s4
   18760:	4329                	li	t1,10
   18762:	4f25                	li	t5,9
   18764:	0ff00d93          	li	s11,255
   18768:	a039                	j	18776 <_vfiprintf_r+0x64c>
   1876a:	026bd7b3          	divu	a5,s7,t1
   1876e:	037f7863          	bgeu	t5,s7,1879e <_vfiprintf_r+0x674>
   18772:	8bbe                	mv	s7,a5
   18774:	8666                	mv	a2,s9
   18776:	fff60c93          	addi	s9,a2,-1
   1877a:	2585                	addiw	a1,a1,1
   1877c:	026bf7b3          	remu	a5,s7,t1
   18780:	0307879b          	addiw	a5,a5,48
   18784:	fef60fa3          	sb	a5,-1(a2)
   18788:	fe0e81e3          	beqz	t4,1876a <_vfiprintf_r+0x640>
   1878c:	77e2                	ld	a5,56(sp)
   1878e:	0007c783          	lbu	a5,0(a5) # ffffffffffff8000 <__BSS_END__+0xfffffffffffd9010>
   18792:	fcb79ce3          	bne	a5,a1,1876a <_vfiprintf_r+0x640>
   18796:	fdb78ae3          	beq	a5,s11,1876a <_vfiprintf_r+0x640>
   1879a:	437f6d63          	bltu	t5,s7,18bd4 <_vfiprintf_r+0xaaa>
   1879e:	419a0a3b          	subw	s4,s4,s9
   187a2:	8db6                	mv	s11,a3
   187a4:	b995                	j	18418 <_vfiprintf_r+0x2ee>
   187a6:	41748ebb          	subw	t4,s1,s7
   187aa:	b9d058e3          	blez	t4,1833a <_vfiprintf_r+0x210>
   187ae:	4541                	li	a0,16
   187b0:	57d55c63          	bge	a0,t4,18d28 <_vfiprintf_r+0xbfe>
   187b4:	4f41                	li	t5,16
   187b6:	4f9d                	li	t6,7
   187b8:	a801                	j	187c8 <_vfiprintf_r+0x69e>
   187ba:	0026851b          	addiw	a0,a3,2
   187be:	0741                	addi	a4,a4,16
   187c0:	86ae                	mv	a3,a1
   187c2:	3ec1                	addiw	t4,t4,-16
   187c4:	05df5463          	bge	t5,t4,1880c <_vfiprintf_r+0x6e2>
   187c8:	0016859b          	addiw	a1,a3,1
   187cc:	07c1                	addi	a5,a5,16
   187ce:	01273023          	sd	s2,0(a4)
   187d2:	01e73423          	sd	t5,8(a4)
   187d6:	f8be                	sd	a5,112(sp)
   187d8:	d4ae                	sw	a1,104(sp)
   187da:	febfd0e3          	bge	t6,a1,187ba <_vfiprintf_r+0x690>
   187de:	10078163          	beqz	a5,188e0 <_vfiprintf_r+0x7b6>
   187e2:	1090                	addi	a2,sp,96
   187e4:	85ce                	mv	a1,s3
   187e6:	8556                	mv	a0,s5
   187e8:	f046                	sd	a7,32(sp)
   187ea:	e476                	sd	t4,8(sp)
   187ec:	88dff0ef          	jal	ra,18078 <__sprint_r.part.0>
   187f0:	ba0517e3          	bnez	a0,1839e <_vfiprintf_r+0x274>
   187f4:	6ea2                	ld	t4,8(sp)
   187f6:	56a6                	lw	a3,104(sp)
   187f8:	4f41                	li	t5,16
   187fa:	3ec1                	addiw	t4,t4,-16
   187fc:	77c6                	ld	a5,112(sp)
   187fe:	7882                	ld	a7,32(sp)
   18800:	8722                	mv	a4,s0
   18802:	0016851b          	addiw	a0,a3,1
   18806:	4f9d                	li	t6,7
   18808:	fddf40e3          	blt	t5,t4,187c8 <_vfiprintf_r+0x69e>
   1880c:	01070f13          	addi	t5,a4,16
   18810:	97f6                	add	a5,a5,t4
   18812:	01273023          	sd	s2,0(a4)
   18816:	01d73423          	sd	t4,8(a4)
   1881a:	f8be                	sd	a5,112(sp)
   1881c:	d4aa                	sw	a0,104(sp)
   1881e:	471d                	li	a4,7
   18820:	2ea75c63          	bge	a4,a0,18b18 <_vfiprintf_r+0x9ee>
   18824:	48078363          	beqz	a5,18caa <_vfiprintf_r+0xb80>
   18828:	1090                	addi	a2,sp,96
   1882a:	85ce                	mv	a1,s3
   1882c:	8556                	mv	a0,s5
   1882e:	e446                	sd	a7,8(sp)
   18830:	849ff0ef          	jal	ra,18078 <__sprint_r.part.0>
   18834:	b60515e3          	bnez	a0,1839e <_vfiprintf_r+0x274>
   18838:	68a2                	ld	a7,8(sp)
   1883a:	56a6                	lw	a3,104(sp)
   1883c:	77c6                	ld	a5,112(sp)
   1883e:	414888bb          	subw	a7,a7,s4
   18842:	198c                	addi	a1,sp,240
   18844:	0016861b          	addiw	a2,a3,1
   18848:	8722                	mv	a4,s0
   1884a:	af105ce3          	blez	a7,18342 <_vfiprintf_r+0x218>
   1884e:	4541                	li	a0,16
   18850:	45155b63          	bge	a0,a7,18ca6 <_vfiprintf_r+0xb7c>
   18854:	4ec1                	li	t4,16
   18856:	4f1d                	li	t5,7
   18858:	a801                	j	18868 <_vfiprintf_r+0x73e>
   1885a:	0026861b          	addiw	a2,a3,2
   1885e:	0741                	addi	a4,a4,16
   18860:	86ae                	mv	a3,a1
   18862:	38c1                	addiw	a7,a7,-16
   18864:	051ed163          	bge	t4,a7,188a6 <_vfiprintf_r+0x77c>
   18868:	0016859b          	addiw	a1,a3,1
   1886c:	07c1                	addi	a5,a5,16
   1886e:	01273023          	sd	s2,0(a4)
   18872:	01d73423          	sd	t4,8(a4)
   18876:	f8be                	sd	a5,112(sp)
   18878:	d4ae                	sw	a1,104(sp)
   1887a:	febf50e3          	bge	t5,a1,1885a <_vfiprintf_r+0x730>
   1887e:	c7a9                	beqz	a5,188c8 <_vfiprintf_r+0x79e>
   18880:	1090                	addi	a2,sp,96
   18882:	85ce                	mv	a1,s3
   18884:	8556                	mv	a0,s5
   18886:	e446                	sd	a7,8(sp)
   18888:	ff0ff0ef          	jal	ra,18078 <__sprint_r.part.0>
   1888c:	b00519e3          	bnez	a0,1839e <_vfiprintf_r+0x274>
   18890:	68a2                	ld	a7,8(sp)
   18892:	56a6                	lw	a3,104(sp)
   18894:	4ec1                	li	t4,16
   18896:	38c1                	addiw	a7,a7,-16
   18898:	77c6                	ld	a5,112(sp)
   1889a:	8722                	mv	a4,s0
   1889c:	0016861b          	addiw	a2,a3,1
   188a0:	4f1d                	li	t5,7
   188a2:	fd1ec3e3          	blt	t4,a7,18868 <_vfiprintf_r+0x73e>
   188a6:	01070693          	addi	a3,a4,16
   188aa:	97c6                	add	a5,a5,a7
   188ac:	01273023          	sd	s2,0(a4)
   188b0:	01173423          	sd	a7,8(a4)
   188b4:	f8be                	sd	a5,112(sp)
   188b6:	d4b2                	sw	a2,104(sp)
   188b8:	471d                	li	a4,7
   188ba:	1ec74963          	blt	a4,a2,18aac <_vfiprintf_r+0x982>
   188be:	2605                	addiw	a2,a2,1
   188c0:	01068593          	addi	a1,a3,16
   188c4:	8736                	mv	a4,a3
   188c6:	bcb5                	j	18342 <_vfiprintf_r+0x218>
   188c8:	4605                	li	a2,1
   188ca:	4681                	li	a3,0
   188cc:	8722                	mv	a4,s0
   188ce:	bf51                	j	18862 <_vfiprintf_r+0x738>
   188d0:	1090                	addi	a2,sp,96
   188d2:	85ce                	mv	a1,s3
   188d4:	8556                	mv	a0,s5
   188d6:	fa2ff0ef          	jal	ra,18078 <__sprint_r.part.0>
   188da:	aa0509e3          	beqz	a0,1838c <_vfiprintf_r+0x262>
   188de:	b4c1                	j	1839e <_vfiprintf_r+0x274>
   188e0:	4505                	li	a0,1
   188e2:	4681                	li	a3,0
   188e4:	8722                	mv	a4,s0
   188e6:	bdf1                	j	187c2 <_vfiprintf_r+0x698>
   188e8:	1e078563          	beqz	a5,18ad2 <_vfiprintf_r+0x9a8>
   188ec:	1090                	addi	a2,sp,96
   188ee:	85ce                	mv	a1,s3
   188f0:	8556                	mv	a0,s5
   188f2:	f446                	sd	a7,40(sp)
   188f4:	f07a                	sd	t5,32(sp)
   188f6:	e47e                	sd	t6,8(sp)
   188f8:	f80ff0ef          	jal	ra,18078 <__sprint_r.part.0>
   188fc:	aa0511e3          	bnez	a0,1839e <_vfiprintf_r+0x274>
   18900:	56a6                	lw	a3,104(sp)
   18902:	77c6                	ld	a5,112(sp)
   18904:	78a2                	ld	a7,40(sp)
   18906:	7f02                	ld	t5,32(sp)
   18908:	6fa2                	ld	t6,8(sp)
   1890a:	198c                	addi	a1,sp,240
   1890c:	0016861b          	addiw	a2,a3,1
   18910:	8722                	mv	a4,s0
   18912:	b2d5                	j	182f6 <_vfiprintf_r+0x1cc>
   18914:	08bc                	addi	a5,sp,88
   18916:	f1be                	sd	a5,224(sp)
   18918:	4789                	li	a5,2
   1891a:	f5be                	sd	a5,232(sp)
   1891c:	4605                	li	a2,1
   1891e:	198c                	addi	a1,sp,240
   18920:	86b2                	mv	a3,a2
   18922:	872e                	mv	a4,a1
   18924:	0016861b          	addiw	a2,a3,1
   18928:	01070593          	addi	a1,a4,16
   1892c:	b419                	j	18332 <_vfiprintf_r+0x208>
   1892e:	4605                	li	a2,1
   18930:	86ee                	mv	a3,s11
   18932:	bec794e3          	bne	a5,a2,1851a <_vfiprintf_r+0x3f0>
   18936:	47a5                	li	a5,9
   18938:	e177ede3          	bltu	a5,s7,18752 <_vfiprintf_r+0x628>
   1893c:	030b8b9b          	addiw	s7,s7,48
   18940:	0d710da3          	sb	s7,219(sp)
   18944:	8db6                	mv	s11,a3
   18946:	4a05                	li	s4,1
   18948:	0db10c93          	addi	s9,sp,219
   1894c:	b4f1                	j	18418 <_vfiprintf_r+0x2ee>
   1894e:	86ee                	mv	a3,s11
   18950:	0dc10a13          	addi	s4,sp,220
   18954:	8cd2                	mv	s9,s4
   18956:	6642                	ld	a2,16(sp)
   18958:	00fbf793          	andi	a5,s7,15
   1895c:	1cfd                	addi	s9,s9,-1
   1895e:	97b2                	add	a5,a5,a2
   18960:	0007c783          	lbu	a5,0(a5)
   18964:	004bdb93          	srli	s7,s7,0x4
   18968:	00fc8023          	sb	a5,0(s9)
   1896c:	fe0b95e3          	bnez	s7,18956 <_vfiprintf_r+0x82c>
   18970:	419a0a3b          	subw	s4,s4,s9
   18974:	8db6                	mv	s11,a3
   18976:	b44d                	j	18418 <_vfiprintf_r+0x2ee>
   18978:	4541                	li	a0,16
   1897a:	07d55363          	bge	a0,t4,189e0 <_vfiprintf_r+0x8b6>
   1897e:	42c1                	li	t0,16
   18980:	439d                	li	t2,7
   18982:	a811                	j	18996 <_vfiprintf_r+0x86c>
   18984:	0026859b          	addiw	a1,a3,2
   18988:	0741                	addi	a4,a4,16
   1898a:	86b2                	mv	a3,a2
   1898c:	3ec1                	addiw	t4,t4,-16
   1898e:	05d2d963          	bge	t0,t4,189e0 <_vfiprintf_r+0x8b6>
   18992:	0016859b          	addiw	a1,a3,1
   18996:	07c1                	addi	a5,a5,16
   18998:	01673023          	sd	s6,0(a4)
   1899c:	00573423          	sd	t0,8(a4)
   189a0:	f8be                	sd	a5,112(sp)
   189a2:	0005861b          	sext.w	a2,a1
   189a6:	d4ae                	sw	a1,104(sp)
   189a8:	fcc3dee3          	bge	t2,a2,18984 <_vfiprintf_r+0x85a>
   189ac:	cba9                	beqz	a5,189fe <_vfiprintf_r+0x8d4>
   189ae:	1090                	addi	a2,sp,96
   189b0:	85ce                	mv	a1,s3
   189b2:	8556                	mv	a0,s5
   189b4:	f876                	sd	t4,48(sp)
   189b6:	f446                	sd	a7,40(sp)
   189b8:	f07a                	sd	t5,32(sp)
   189ba:	e47e                	sd	t6,8(sp)
   189bc:	ebcff0ef          	jal	ra,18078 <__sprint_r.part.0>
   189c0:	9c051fe3          	bnez	a0,1839e <_vfiprintf_r+0x274>
   189c4:	7ec2                	ld	t4,48(sp)
   189c6:	56a6                	lw	a3,104(sp)
   189c8:	42c1                	li	t0,16
   189ca:	3ec1                	addiw	t4,t4,-16
   189cc:	77c6                	ld	a5,112(sp)
   189ce:	78a2                	ld	a7,40(sp)
   189d0:	7f02                	ld	t5,32(sp)
   189d2:	6fa2                	ld	t6,8(sp)
   189d4:	8722                	mv	a4,s0
   189d6:	0016859b          	addiw	a1,a3,1
   189da:	439d                	li	t2,7
   189dc:	fbd2cbe3          	blt	t0,t4,18992 <_vfiprintf_r+0x868>
   189e0:	97f6                	add	a5,a5,t4
   189e2:	01673023          	sd	s6,0(a4)
   189e6:	01d73423          	sd	t4,8(a4)
   189ea:	f8be                	sd	a5,112(sp)
   189ec:	d4ae                	sw	a1,104(sp)
   189ee:	469d                	li	a3,7
   189f0:	0eb6cf63          	blt	a3,a1,18aee <_vfiprintf_r+0x9c4>
   189f4:	0741                	addi	a4,a4,16
   189f6:	0015861b          	addiw	a2,a1,1
   189fa:	86ae                	mv	a3,a1
   189fc:	b8c9                	j	182ce <_vfiprintf_r+0x1a4>
   189fe:	4681                	li	a3,0
   18a00:	4585                	li	a1,1
   18a02:	8722                	mv	a4,s0
   18a04:	b761                	j	1898c <_vfiprintf_r+0x862>
   18a06:	d482                	sw	zero,104(sp)
   18a08:	004df313          	andi	t1,s11,4
   18a0c:	08030863          	beqz	t1,18a9c <_vfiprintf_r+0x972>
   18a10:	41748a3b          	subw	s4,s1,s7
   18a14:	09405463          	blez	s4,18a9c <_vfiprintf_r+0x972>
   18a18:	85a2                	mv	a1,s0
   18a1a:	4741                	li	a4,16
   18a1c:	56a6                	lw	a3,104(sp)
   18a1e:	2f475c63          	bge	a4,s4,18d16 <_vfiprintf_r+0xbec>
   18a22:	4dc1                	li	s11,16
   18a24:	4c9d                	li	s9,7
   18a26:	a801                	j	18a36 <_vfiprintf_r+0x90c>
   18a28:	0026871b          	addiw	a4,a3,2
   18a2c:	05c1                	addi	a1,a1,16
   18a2e:	86b2                	mv	a3,a2
   18a30:	3a41                	addiw	s4,s4,-16
   18a32:	034ddd63          	bge	s11,s4,18a6c <_vfiprintf_r+0x942>
   18a36:	0016861b          	addiw	a2,a3,1
   18a3a:	07c1                	addi	a5,a5,16
   18a3c:	0165b023          	sd	s6,0(a1)
   18a40:	01b5b423          	sd	s11,8(a1)
   18a44:	f8be                	sd	a5,112(sp)
   18a46:	d4b2                	sw	a2,104(sp)
   18a48:	feccd0e3          	bge	s9,a2,18a28 <_vfiprintf_r+0x8fe>
   18a4c:	c7a1                	beqz	a5,18a94 <_vfiprintf_r+0x96a>
   18a4e:	1090                	addi	a2,sp,96
   18a50:	85ce                	mv	a1,s3
   18a52:	8556                	mv	a0,s5
   18a54:	e24ff0ef          	jal	ra,18078 <__sprint_r.part.0>
   18a58:	940513e3          	bnez	a0,1839e <_vfiprintf_r+0x274>
   18a5c:	56a6                	lw	a3,104(sp)
   18a5e:	3a41                	addiw	s4,s4,-16
   18a60:	77c6                	ld	a5,112(sp)
   18a62:	85a2                	mv	a1,s0
   18a64:	0016871b          	addiw	a4,a3,1
   18a68:	fd4dc7e3          	blt	s11,s4,18a36 <_vfiprintf_r+0x90c>
   18a6c:	97d2                	add	a5,a5,s4
   18a6e:	0165b023          	sd	s6,0(a1)
   18a72:	0145b423          	sd	s4,8(a1)
   18a76:	f8be                	sd	a5,112(sp)
   18a78:	d4ba                	sw	a4,104(sp)
   18a7a:	469d                	li	a3,7
   18a7c:	8ee6dfe3          	bge	a3,a4,1837a <_vfiprintf_r+0x250>
   18a80:	cf91                	beqz	a5,18a9c <_vfiprintf_r+0x972>
   18a82:	1090                	addi	a2,sp,96
   18a84:	85ce                	mv	a1,s3
   18a86:	8556                	mv	a0,s5
   18a88:	df0ff0ef          	jal	ra,18078 <__sprint_r.part.0>
   18a8c:	900519e3          	bnez	a0,1839e <_vfiprintf_r+0x274>
   18a90:	77c6                	ld	a5,112(sp)
   18a92:	b0e5                	j	1837a <_vfiprintf_r+0x250>
   18a94:	4705                	li	a4,1
   18a96:	4681                	li	a3,0
   18a98:	85a2                	mv	a1,s0
   18a9a:	bf59                	j	18a30 <_vfiprintf_r+0x906>
   18a9c:	87a6                	mv	a5,s1
   18a9e:	0174d363          	bge	s1,s7,18aa4 <_vfiprintf_r+0x97a>
   18aa2:	87de                	mv	a5,s7
   18aa4:	6702                	ld	a4,0(sp)
   18aa6:	9fb9                	addw	a5,a5,a4
   18aa8:	e03e                	sd	a5,0(sp)
   18aaa:	b0cd                	j	1838c <_vfiprintf_r+0x262>
   18aac:	16078163          	beqz	a5,18c0e <_vfiprintf_r+0xae4>
   18ab0:	1090                	addi	a2,sp,96
   18ab2:	85ce                	mv	a1,s3
   18ab4:	8556                	mv	a0,s5
   18ab6:	dc2ff0ef          	jal	ra,18078 <__sprint_r.part.0>
   18aba:	8e0512e3          	bnez	a0,1839e <_vfiprintf_r+0x274>
   18abe:	5626                	lw	a2,104(sp)
   18ac0:	77c6                	ld	a5,112(sp)
   18ac2:	198c                	addi	a1,sp,240
   18ac4:	2605                	addiw	a2,a2,1
   18ac6:	8722                	mv	a4,s0
   18ac8:	b8ad                	j	18342 <_vfiprintf_r+0x218>
   18aca:	d482                	sw	zero,104(sp)
   18acc:	8722                	mv	a4,s0
   18ace:	f4eff06f          	j	1821c <_vfiprintf_r+0xf2>
   18ad2:	040f8b63          	beqz	t6,18b28 <_vfiprintf_r+0x9fe>
   18ad6:	08bc                	addi	a5,sp,88
   18ad8:	f1be                	sd	a5,224(sp)
   18ada:	4789                	li	a5,2
   18adc:	f5be                	sd	a5,232(sp)
   18ade:	4685                	li	a3,1
   18ae0:	1998                	addi	a4,sp,240
   18ae2:	b589                	j	18924 <_vfiprintf_r+0x7fa>
   18ae4:	198c                	addi	a1,sp,240
   18ae6:	4605                	li	a2,1
   18ae8:	4681                	li	a3,0
   18aea:	8722                	mv	a4,s0
   18aec:	b099                	j	18332 <_vfiprintf_r+0x208>
   18aee:	c7f9                	beqz	a5,18bbc <_vfiprintf_r+0xa92>
   18af0:	1090                	addi	a2,sp,96
   18af2:	85ce                	mv	a1,s3
   18af4:	8556                	mv	a0,s5
   18af6:	f446                	sd	a7,40(sp)
   18af8:	f07a                	sd	t5,32(sp)
   18afa:	e47e                	sd	t6,8(sp)
   18afc:	d7cff0ef          	jal	ra,18078 <__sprint_r.part.0>
   18b00:	88051fe3          	bnez	a0,1839e <_vfiprintf_r+0x274>
   18b04:	56a6                	lw	a3,104(sp)
   18b06:	77c6                	ld	a5,112(sp)
   18b08:	78a2                	ld	a7,40(sp)
   18b0a:	7f02                	ld	t5,32(sp)
   18b0c:	6fa2                	ld	t6,8(sp)
   18b0e:	8722                	mv	a4,s0
   18b10:	0016861b          	addiw	a2,a3,1
   18b14:	fbaff06f          	j	182ce <_vfiprintf_r+0x1a4>
   18b18:	0015061b          	addiw	a2,a0,1
   18b1c:	010f0593          	addi	a1,t5,16
   18b20:	86aa                	mv	a3,a0
   18b22:	877a                	mv	a4,t5
   18b24:	817ff06f          	j	1833a <_vfiprintf_r+0x210>
   18b28:	4681                	li	a3,0
   18b2a:	198c                	addi	a1,sp,240
   18b2c:	4605                	li	a2,1
   18b2e:	8722                	mv	a4,s0
   18b30:	803ff06f          	j	18332 <_vfiprintf_r+0x208>
   18b34:	8c32                	mv	s8,a2
   18b36:	b501                	j	18936 <_vfiprintf_r+0x80c>
   18b38:	86ee                	mv	a3,s11
   18b3a:	b619                	j	18640 <_vfiprintf_r+0x516>
   18b3c:	67f1                	lui	a5,0x1c
   18b3e:	10878793          	addi	a5,a5,264 # 1c108 <__clzdi2+0x116>
   18b42:	e83e                	sd	a5,16(sp)
   18b44:	020df793          	andi	a5,s11,32
   18b48:	008c0613          	addi	a2,s8,8
   18b4c:	efa1                	bnez	a5,18ba4 <_vfiprintf_r+0xa7a>
   18b4e:	010df793          	andi	a5,s11,16
   18b52:	eba9                	bnez	a5,18ba4 <_vfiprintf_r+0xa7a>
   18b54:	040df793          	andi	a5,s11,64
   18b58:	000c2b83          	lw	s7,0(s8)
   18b5c:	12078f63          	beqz	a5,18c9a <_vfiprintf_r+0xb70>
   18b60:	1bc2                	slli	s7,s7,0x30
   18b62:	030bdb93          	srli	s7,s7,0x30
   18b66:	001df793          	andi	a5,s11,1
   18b6a:	cf89                	beqz	a5,18b84 <_vfiprintf_r+0xa5a>
   18b6c:	000b8c63          	beqz	s7,18b84 <_vfiprintf_r+0xa5a>
   18b70:	002de313          	ori	t1,s11,2
   18b74:	03000793          	li	a5,48
   18b78:	04f10c23          	sb	a5,88(sp)
   18b7c:	04d10ca3          	sb	a3,89(sp)
   18b80:	00030d9b          	sext.w	s11,t1
   18b84:	bffdf313          	andi	t1,s11,-1025
   18b88:	0003069b          	sext.w	a3,t1
   18b8c:	8c32                	mv	s8,a2
   18b8e:	4789                	li	a5,2
   18b90:	b8d5                	j	18484 <_vfiprintf_r+0x35a>
   18b92:	67f1                	lui	a5,0x1c
   18b94:	12078793          	addi	a5,a5,288 # 1c120 <__clzdi2+0x12e>
   18b98:	e83e                	sd	a5,16(sp)
   18b9a:	020df793          	andi	a5,s11,32
   18b9e:	008c0613          	addi	a2,s8,8
   18ba2:	d7d5                	beqz	a5,18b4e <_vfiprintf_r+0xa24>
   18ba4:	000c3b83          	ld	s7,0(s8)
   18ba8:	bf7d                	j	18b66 <_vfiprintf_r+0xa3c>
   18baa:	8566                	mv	a0,s9
   18bac:	e43a                	sd	a4,8(sp)
   18bae:	869fd0ef          	jal	ra,16416 <strlen>
   18bb2:	6722                	ld	a4,8(sp)
   18bb4:	00050a1b          	sext.w	s4,a0
   18bb8:	4881                	li	a7,0
   18bba:	b8b9                	j	18418 <_vfiprintf_r+0x2ee>
   18bbc:	05714703          	lbu	a4,87(sp)
   18bc0:	0e071d63          	bnez	a4,18cba <_vfiprintf_r+0xb90>
   18bc4:	d40f98e3          	bnez	t6,18914 <_vfiprintf_r+0x7ea>
   18bc8:	4681                	li	a3,0
   18bca:	4605                	li	a2,1
   18bcc:	198c                	addi	a1,sp,240
   18bce:	8722                	mv	a4,s0
   18bd0:	f62ff06f          	j	18332 <_vfiprintf_r+0x208>
   18bd4:	67a6                	ld	a5,72(sp)
   18bd6:	6586                	ld	a1,64(sp)
   18bd8:	f876                	sd	t4,48(sp)
   18bda:	40fc8cb3          	sub	s9,s9,a5
   18bde:	863e                	mv	a2,a5
   18be0:	8566                	mv	a0,s9
   18be2:	f43a                	sd	a4,40(sp)
   18be4:	f046                	sd	a7,32(sp)
   18be6:	e436                	sd	a3,8(sp)
   18be8:	8bffd0ef          	jal	ra,164a6 <strncpy>
   18bec:	7762                	ld	a4,56(sp)
   18bee:	4329                	li	t1,10
   18bf0:	026bd7b3          	divu	a5,s7,t1
   18bf4:	00174603          	lbu	a2,1(a4)
   18bf8:	66a2                	ld	a3,8(sp)
   18bfa:	7882                	ld	a7,32(sp)
   18bfc:	00c03633          	snez	a2,a2
   18c00:	9732                	add	a4,a4,a2
   18c02:	fc3a                	sd	a4,56(sp)
   18c04:	7ec2                	ld	t4,48(sp)
   18c06:	7722                	ld	a4,40(sp)
   18c08:	4581                	li	a1,0
   18c0a:	4f25                	li	t5,9
   18c0c:	b69d                	j	18772 <_vfiprintf_r+0x648>
   18c0e:	4705                	li	a4,1
   18c10:	87d2                	mv	a5,s4
   18c12:	f1e6                	sd	s9,224(sp)
   18c14:	f5d2                	sd	s4,232(sp)
   18c16:	f8d2                	sd	s4,112(sp)
   18c18:	d4ba                	sw	a4,104(sp)
   18c1a:	198c                	addi	a1,sp,240
   18c1c:	f4eff06f          	j	1836a <_vfiprintf_r+0x240>
   18c20:	4685                	li	a3,1
   18c22:	0ed78d63          	beq	a5,a3,18d1c <_vfiprintf_r+0xbf2>
   18c26:	4689                	li	a3,2
   18c28:	d2d783e3          	beq	a5,a3,1894e <_vfiprintf_r+0x824>
   18c2c:	86ee                	mv	a3,s11
   18c2e:	b8cd                	j	18520 <_vfiprintf_r+0x3f6>
   18c30:	200de313          	ori	t1,s11,512
   18c34:	001d4683          	lbu	a3,1(s10)
   18c38:	00030d9b          	sext.w	s11,t1
   18c3c:	0d05                	addi	s10,s10,1
   18c3e:	e04ff06f          	j	18242 <_vfiprintf_r+0x118>
   18c42:	020de313          	ori	t1,s11,32
   18c46:	001d4683          	lbu	a3,1(s10)
   18c4a:	00030d9b          	sext.w	s11,t1
   18c4e:	0d05                	addi	s10,s10,1
   18c50:	df2ff06f          	j	18242 <_vfiprintf_r+0x118>
   18c54:	4799                	li	a5,6
   18c56:	00088a1b          	sext.w	s4,a7
   18c5a:	0517ee63          	bltu	a5,a7,18cb6 <_vfiprintf_r+0xb8c>
   18c5e:	6e71                	lui	t3,0x1c
   18c60:	8bd2                	mv	s7,s4
   18c62:	138e0c93          	addi	s9,t3,312 # 1c138 <__clzdi2+0x146>
   18c66:	e40ff06f          	j	182a6 <_vfiprintf_r+0x17c>
   18c6a:	2006f793          	andi	a5,a3,512
   18c6e:	cfb5                	beqz	a5,18cea <_vfiprintf_r+0xbc0>
   18c70:	0ffbfb93          	andi	s7,s7,255
   18c74:	8c32                	mv	s8,a2
   18c76:	4785                	li	a5,1
   18c78:	80dff06f          	j	18484 <_vfiprintf_r+0x35a>
   18c7c:	200df793          	andi	a5,s11,512
   18c80:	c3a5                	beqz	a5,18ce0 <_vfiprintf_r+0xbb6>
   18c82:	000c0b83          	lb	s7,0(s8)
   18c86:	87de                	mv	a5,s7
   18c88:	f6aff06f          	j	183f2 <_vfiprintf_r+0x2c8>
   18c8c:	200df793          	andi	a5,s11,512
   18c90:	c3b9                	beqz	a5,18cd6 <_vfiprintf_r+0xbac>
   18c92:	0ffbfb93          	andi	s7,s7,255
   18c96:	fe2ff06f          	j	18478 <_vfiprintf_r+0x34e>
   18c9a:	200df793          	andi	a5,s11,512
   18c9e:	cfa9                	beqz	a5,18cf8 <_vfiprintf_r+0xbce>
   18ca0:	0ffbfb93          	andi	s7,s7,255
   18ca4:	b5c9                	j	18b66 <_vfiprintf_r+0xa3c>
   18ca6:	86ae                	mv	a3,a1
   18ca8:	b109                	j	188aa <_vfiprintf_r+0x780>
   18caa:	198c                	addi	a1,sp,240
   18cac:	4605                	li	a2,1
   18cae:	4681                	li	a3,0
   18cb0:	8722                	mv	a4,s0
   18cb2:	e88ff06f          	j	1833a <_vfiprintf_r+0x210>
   18cb6:	4a19                	li	s4,6
   18cb8:	b75d                	j	18c5e <_vfiprintf_r+0xb34>
   18cba:	05710793          	addi	a5,sp,87
   18cbe:	f1be                	sd	a5,224(sp)
   18cc0:	4785                	li	a5,1
   18cc2:	f5be                	sd	a5,232(sp)
   18cc4:	4605                	li	a2,1
   18cc6:	198c                	addi	a1,sp,240
   18cc8:	e26ff06f          	j	182ee <_vfiprintf_r+0x1c4>
   18ccc:	6782                	ld	a5,0(sp)
   18cce:	00f69023          	sh	a5,0(a3)
   18cd2:	cf8ff06f          	j	181ca <_vfiprintf_r+0xa0>
   18cd6:	1b82                	slli	s7,s7,0x20
   18cd8:	020bdb93          	srli	s7,s7,0x20
   18cdc:	f9cff06f          	j	18478 <_vfiprintf_r+0x34e>
   18ce0:	000c2b83          	lw	s7,0(s8)
   18ce4:	87de                	mv	a5,s7
   18ce6:	f0cff06f          	j	183f2 <_vfiprintf_r+0x2c8>
   18cea:	1b82                	slli	s7,s7,0x20
   18cec:	020bdb93          	srli	s7,s7,0x20
   18cf0:	8c32                	mv	s8,a2
   18cf2:	4785                	li	a5,1
   18cf4:	f90ff06f          	j	18484 <_vfiprintf_r+0x35a>
   18cf8:	1b82                	slli	s7,s7,0x20
   18cfa:	020bdb93          	srli	s7,s7,0x20
   18cfe:	b5a5                	j	18b66 <_vfiprintf_r+0xa3c>
   18d00:	1090                	addi	a2,sp,96
   18d02:	85ce                	mv	a1,s3
   18d04:	8556                	mv	a0,s5
   18d06:	b72ff0ef          	jal	ra,18078 <__sprint_r.part.0>
   18d0a:	e94ff06f          	j	1839e <_vfiprintf_r+0x274>
   18d0e:	8a46                	mv	s4,a7
   18d10:	4881                	li	a7,0
   18d12:	f06ff06f          	j	18418 <_vfiprintf_r+0x2ee>
   18d16:	0016871b          	addiw	a4,a3,1
   18d1a:	bb89                	j	18a6c <_vfiprintf_r+0x942>
   18d1c:	86ee                	mv	a3,s11
   18d1e:	b939                	j	1893c <_vfiprintf_r+0x812>
   18d20:	57fd                	li	a5,-1
   18d22:	e03e                	sd	a5,0(sp)
   18d24:	e86ff06f          	j	183aa <_vfiprintf_r+0x280>
   18d28:	8f2e                	mv	t5,a1
   18d2a:	8532                	mv	a0,a2
   18d2c:	b4d5                	j	18810 <_vfiprintf_r+0x6e6>
   18d2e:	c29c                	sw	a5,0(a3)
   18d30:	c9aff06f          	j	181ca <_vfiprintf_r+0xa0>
   18d34:	000c2683          	lw	a3,0(s8)
   18d38:	0c21                	addi	s8,s8,8
   18d3a:	0006889b          	sext.w	a7,a3
   18d3e:	0006d363          	bgez	a3,18d44 <_vfiprintf_r+0xc1a>
   18d42:	58fd                	li	a7,-1
   18d44:	001d4683          	lbu	a3,1(s10)
   18d48:	8d3e                	mv	s10,a5
   18d4a:	cf8ff06f          	j	18242 <_vfiprintf_r+0x118>

0000000000018d4e <vfiprintf>:
   18d4e:	87aa                	mv	a5,a0
   18d50:	7581b503          	ld	a0,1880(gp) # 1ef48 <_impure_ptr>
   18d54:	86b2                	mv	a3,a2
   18d56:	862e                	mv	a2,a1
   18d58:	85be                	mv	a1,a5
   18d5a:	bd0ff06f          	j	1812a <_vfiprintf_r>

0000000000018d5e <__sbprintf>:
   18d5e:	0105d783          	lhu	a5,16(a1)
   18d62:	0ac5ae03          	lw	t3,172(a1)
   18d66:	0125d303          	lhu	t1,18(a1)
   18d6a:	0305b883          	ld	a7,48(a1)
   18d6e:	0405b803          	ld	a6,64(a1)
   18d72:	b3010113          	addi	sp,sp,-1232
   18d76:	9bf5                	andi	a5,a5,-3
   18d78:	40000713          	li	a4,1024
   18d7c:	4c813023          	sd	s0,1216(sp)
   18d80:	00f11823          	sh	a5,16(sp)
   18d84:	842e                	mv	s0,a1
   18d86:	191c                	addi	a5,sp,176
   18d88:	858a                	mv	a1,sp
   18d8a:	4a913c23          	sd	s1,1208(sp)
   18d8e:	4b213823          	sd	s2,1200(sp)
   18d92:	4c113423          	sd	ra,1224(sp)
   18d96:	892a                	mv	s2,a0
   18d98:	d772                	sw	t3,172(sp)
   18d9a:	00611923          	sh	t1,18(sp)
   18d9e:	f846                	sd	a7,48(sp)
   18da0:	e0c2                	sd	a6,64(sp)
   18da2:	e03e                	sd	a5,0(sp)
   18da4:	ec3e                	sd	a5,24(sp)
   18da6:	c63a                	sw	a4,12(sp)
   18da8:	d03a                	sw	a4,32(sp)
   18daa:	d402                	sw	zero,40(sp)
   18dac:	b7eff0ef          	jal	ra,1812a <_vfiprintf_r>
   18db0:	84aa                	mv	s1,a0
   18db2:	02055963          	bgez	a0,18de4 <__sbprintf+0x86>
   18db6:	01015783          	lhu	a5,16(sp)
   18dba:	0407f793          	andi	a5,a5,64
   18dbe:	c799                	beqz	a5,18dcc <__sbprintf+0x6e>
   18dc0:	01045783          	lhu	a5,16(s0)
   18dc4:	0407e793          	ori	a5,a5,64
   18dc8:	00f41823          	sh	a5,16(s0)
   18dcc:	4c813083          	ld	ra,1224(sp)
   18dd0:	4c013403          	ld	s0,1216(sp)
   18dd4:	4b013903          	ld	s2,1200(sp)
   18dd8:	8526                	mv	a0,s1
   18dda:	4b813483          	ld	s1,1208(sp)
   18dde:	4d010113          	addi	sp,sp,1232
   18de2:	8082                	ret
   18de4:	858a                	mv	a1,sp
   18de6:	854a                	mv	a0,s2
   18de8:	f04f90ef          	jal	ra,124ec <_fflush_r>
   18dec:	d569                	beqz	a0,18db6 <__sbprintf+0x58>
   18dee:	54fd                	li	s1,-1
   18df0:	b7d9                	j	18db6 <__sbprintf+0x58>

0000000000018df2 <_wctomb_r>:
   18df2:	e401b303          	ld	t1,-448(gp) # 1e630 <__global_locale+0xe0>
   18df6:	8302                	jr	t1

0000000000018df8 <__ascii_wctomb>:
   18df8:	0006079b          	sext.w	a5,a2
   18dfc:	cd91                	beqz	a1,18e18 <__ascii_wctomb+0x20>
   18dfe:	0ff00713          	li	a4,255
   18e02:	00f76663          	bltu	a4,a5,18e0e <__ascii_wctomb+0x16>
   18e06:	00c58023          	sb	a2,0(a1)
   18e0a:	4505                	li	a0,1
   18e0c:	8082                	ret
   18e0e:	08a00793          	li	a5,138
   18e12:	c11c                	sw	a5,0(a0)
   18e14:	557d                	li	a0,-1
   18e16:	8082                	ret
   18e18:	4501                	li	a0,0
   18e1a:	8082                	ret

0000000000018e1c <_write_r>:
   18e1c:	1101                	addi	sp,sp,-32
   18e1e:	872e                	mv	a4,a1
   18e20:	e822                	sd	s0,16(sp)
   18e22:	e426                	sd	s1,8(sp)
   18e24:	85b2                	mv	a1,a2
   18e26:	842a                	mv	s0,a0
   18e28:	64fd                	lui	s1,0x1f
   18e2a:	8636                	mv	a2,a3
   18e2c:	853a                	mv	a0,a4
   18e2e:	ec06                	sd	ra,24(sp)
   18e30:	fe04a423          	sw	zero,-24(s1) # 1efe8 <errno>
   18e34:	53b010ef          	jal	ra,1ab6e <_write>
   18e38:	57fd                	li	a5,-1
   18e3a:	00f50763          	beq	a0,a5,18e48 <_write_r+0x2c>
   18e3e:	60e2                	ld	ra,24(sp)
   18e40:	6442                	ld	s0,16(sp)
   18e42:	64a2                	ld	s1,8(sp)
   18e44:	6105                	addi	sp,sp,32
   18e46:	8082                	ret
   18e48:	fe84a783          	lw	a5,-24(s1)
   18e4c:	dbed                	beqz	a5,18e3e <_write_r+0x22>
   18e4e:	60e2                	ld	ra,24(sp)
   18e50:	c01c                	sw	a5,0(s0)
   18e52:	6442                	ld	s0,16(sp)
   18e54:	64a2                	ld	s1,8(sp)
   18e56:	6105                	addi	sp,sp,32
   18e58:	8082                	ret

0000000000018e5a <atexit>:
   18e5a:	85aa                	mv	a1,a0
   18e5c:	4681                	li	a3,0
   18e5e:	4601                	li	a2,0
   18e60:	4501                	li	a0,0
   18e62:	2fd0106f          	j	1a95e <__register_exitproc>

0000000000018e66 <_calloc_r>:
   18e66:	02c585b3          	mul	a1,a1,a2
   18e6a:	1141                	addi	sp,sp,-16
   18e6c:	e022                	sd	s0,0(sp)
   18e6e:	e406                	sd	ra,8(sp)
   18e70:	f9bfb0ef          	jal	ra,14e0a <_malloc_r>
   18e74:	842a                	mv	s0,a0
   18e76:	c505                	beqz	a0,18e9e <_calloc_r+0x38>
   18e78:	ff853603          	ld	a2,-8(a0)
   18e7c:	04800713          	li	a4,72
   18e80:	9a71                	andi	a2,a2,-4
   18e82:	1661                	addi	a2,a2,-8
   18e84:	04c76963          	bltu	a4,a2,18ed6 <_calloc_r+0x70>
   18e88:	02700693          	li	a3,39
   18e8c:	87aa                	mv	a5,a0
   18e8e:	00c6ed63          	bltu	a3,a2,18ea8 <_calloc_r+0x42>
   18e92:	0007b023          	sd	zero,0(a5)
   18e96:	0007b423          	sd	zero,8(a5)
   18e9a:	0007b823          	sd	zero,16(a5)
   18e9e:	60a2                	ld	ra,8(sp)
   18ea0:	8522                	mv	a0,s0
   18ea2:	6402                	ld	s0,0(sp)
   18ea4:	0141                	addi	sp,sp,16
   18ea6:	8082                	ret
   18ea8:	00053023          	sd	zero,0(a0)
   18eac:	00053423          	sd	zero,8(a0)
   18eb0:	03700793          	li	a5,55
   18eb4:	02c7f963          	bgeu	a5,a2,18ee6 <_calloc_r+0x80>
   18eb8:	00053823          	sd	zero,16(a0)
   18ebc:	00053c23          	sd	zero,24(a0)
   18ec0:	02050793          	addi	a5,a0,32
   18ec4:	fce617e3          	bne	a2,a4,18e92 <_calloc_r+0x2c>
   18ec8:	02053023          	sd	zero,32(a0)
   18ecc:	03050793          	addi	a5,a0,48
   18ed0:	02053423          	sd	zero,40(a0)
   18ed4:	bf7d                	j	18e92 <_calloc_r+0x2c>
   18ed6:	4581                	li	a1,0
   18ed8:	d8af70ef          	jal	ra,10462 <memset>
   18edc:	60a2                	ld	ra,8(sp)
   18ede:	8522                	mv	a0,s0
   18ee0:	6402                	ld	s0,0(sp)
   18ee2:	0141                	addi	sp,sp,16
   18ee4:	8082                	ret
   18ee6:	01050793          	addi	a5,a0,16
   18eea:	b765                	j	18e92 <_calloc_r+0x2c>

0000000000018eec <_close_r>:
   18eec:	1101                	addi	sp,sp,-32
   18eee:	e822                	sd	s0,16(sp)
   18ef0:	e426                	sd	s1,8(sp)
   18ef2:	842a                	mv	s0,a0
   18ef4:	64fd                	lui	s1,0x1f
   18ef6:	852e                	mv	a0,a1
   18ef8:	ec06                	sd	ra,24(sp)
   18efa:	fe04a423          	sw	zero,-24(s1) # 1efe8 <errno>
   18efe:	2d7010ef          	jal	ra,1a9d4 <_close>
   18f02:	57fd                	li	a5,-1
   18f04:	00f50763          	beq	a0,a5,18f12 <_close_r+0x26>
   18f08:	60e2                	ld	ra,24(sp)
   18f0a:	6442                	ld	s0,16(sp)
   18f0c:	64a2                	ld	s1,8(sp)
   18f0e:	6105                	addi	sp,sp,32
   18f10:	8082                	ret
   18f12:	fe84a783          	lw	a5,-24(s1)
   18f16:	dbed                	beqz	a5,18f08 <_close_r+0x1c>
   18f18:	60e2                	ld	ra,24(sp)
   18f1a:	c01c                	sw	a5,0(s0)
   18f1c:	6442                	ld	s0,16(sp)
   18f1e:	64a2                	ld	s1,8(sp)
   18f20:	6105                	addi	sp,sp,32
   18f22:	8082                	ret

0000000000018f24 <_fclose_r>:
   18f24:	1101                	addi	sp,sp,-32
   18f26:	ec06                	sd	ra,24(sp)
   18f28:	e822                	sd	s0,16(sp)
   18f2a:	e426                	sd	s1,8(sp)
   18f2c:	e04a                	sd	s2,0(sp)
   18f2e:	c989                	beqz	a1,18f40 <_fclose_r+0x1c>
   18f30:	842e                	mv	s0,a1
   18f32:	84aa                	mv	s1,a0
   18f34:	c119                	beqz	a0,18f3a <_fclose_r+0x16>
   18f36:	493c                	lw	a5,80(a0)
   18f38:	cfa5                	beqz	a5,18fb0 <_fclose_r+0x8c>
   18f3a:	01041783          	lh	a5,16(s0)
   18f3e:	eb89                	bnez	a5,18f50 <_fclose_r+0x2c>
   18f40:	60e2                	ld	ra,24(sp)
   18f42:	6442                	ld	s0,16(sp)
   18f44:	4901                	li	s2,0
   18f46:	64a2                	ld	s1,8(sp)
   18f48:	854a                	mv	a0,s2
   18f4a:	6902                	ld	s2,0(sp)
   18f4c:	6105                	addi	sp,sp,32
   18f4e:	8082                	ret
   18f50:	85a2                	mv	a1,s0
   18f52:	8526                	mv	a0,s1
   18f54:	bfef90ef          	jal	ra,12352 <__sflush_r>
   18f58:	683c                	ld	a5,80(s0)
   18f5a:	892a                	mv	s2,a0
   18f5c:	c791                	beqz	a5,18f68 <_fclose_r+0x44>
   18f5e:	780c                	ld	a1,48(s0)
   18f60:	8526                	mv	a0,s1
   18f62:	9782                	jalr	a5
   18f64:	04054c63          	bltz	a0,18fbc <_fclose_r+0x98>
   18f68:	01045783          	lhu	a5,16(s0)
   18f6c:	0807f793          	andi	a5,a5,128
   18f70:	efa1                	bnez	a5,18fc8 <_fclose_r+0xa4>
   18f72:	6c2c                	ld	a1,88(s0)
   18f74:	c991                	beqz	a1,18f88 <_fclose_r+0x64>
   18f76:	07440793          	addi	a5,s0,116
   18f7a:	00f58563          	beq	a1,a5,18f84 <_fclose_r+0x60>
   18f7e:	8526                	mv	a0,s1
   18f80:	91bf90ef          	jal	ra,1289a <_free_r>
   18f84:	04043c23          	sd	zero,88(s0)
   18f88:	7c2c                	ld	a1,120(s0)
   18f8a:	c591                	beqz	a1,18f96 <_fclose_r+0x72>
   18f8c:	8526                	mv	a0,s1
   18f8e:	90df90ef          	jal	ra,1289a <_free_r>
   18f92:	06043c23          	sd	zero,120(s0)
   18f96:	fe0f90ef          	jal	ra,12776 <__sfp_lock_acquire>
   18f9a:	00041823          	sh	zero,16(s0)
   18f9e:	fdaf90ef          	jal	ra,12778 <__sfp_lock_release>
   18fa2:	60e2                	ld	ra,24(sp)
   18fa4:	6442                	ld	s0,16(sp)
   18fa6:	64a2                	ld	s1,8(sp)
   18fa8:	854a                	mv	a0,s2
   18faa:	6902                	ld	s2,0(sp)
   18fac:	6105                	addi	sp,sp,32
   18fae:	8082                	ret
   18fb0:	fbef90ef          	jal	ra,1276e <__sinit>
   18fb4:	01041783          	lh	a5,16(s0)
   18fb8:	d7c1                	beqz	a5,18f40 <_fclose_r+0x1c>
   18fba:	bf59                	j	18f50 <_fclose_r+0x2c>
   18fbc:	01045783          	lhu	a5,16(s0)
   18fc0:	597d                	li	s2,-1
   18fc2:	0807f793          	andi	a5,a5,128
   18fc6:	d7d5                	beqz	a5,18f72 <_fclose_r+0x4e>
   18fc8:	6c0c                	ld	a1,24(s0)
   18fca:	8526                	mv	a0,s1
   18fcc:	8cff90ef          	jal	ra,1289a <_free_r>
   18fd0:	b74d                	j	18f72 <_fclose_r+0x4e>

0000000000018fd2 <fclose>:
   18fd2:	85aa                	mv	a1,a0
   18fd4:	7581b503          	ld	a0,1880(gp) # 1ef48 <_impure_ptr>
   18fd8:	b7b1                	j	18f24 <_fclose_r>

0000000000018fda <__fputwc>:
   18fda:	715d                	addi	sp,sp,-80
   18fdc:	e0a2                	sd	s0,64(sp)
   18fde:	f44e                	sd	s3,40(sp)
   18fe0:	e85a                	sd	s6,16(sp)
   18fe2:	e486                	sd	ra,72(sp)
   18fe4:	fc26                	sd	s1,56(sp)
   18fe6:	f84a                	sd	s2,48(sp)
   18fe8:	f052                	sd	s4,32(sp)
   18fea:	ec56                	sd	s5,24(sp)
   18fec:	8b2a                	mv	s6,a0
   18fee:	89ae                	mv	s3,a1
   18ff0:	8432                	mv	s0,a2
   18ff2:	ccbfb0ef          	jal	ra,14cbc <__locale_mb_cur_max>
   18ff6:	4785                	li	a5,1
   18ff8:	00f51e63          	bne	a0,a5,19014 <__fputwc+0x3a>
   18ffc:	fff9879b          	addiw	a5,s3,-1
   19000:	0fe00713          	li	a4,254
   19004:	00f76863          	bltu	a4,a5,19014 <__fputwc+0x3a>
   19008:	0ff9f713          	andi	a4,s3,255
   1900c:	00e10423          	sb	a4,8(sp)
   19010:	4905                	li	s2,1
   19012:	a839                	j	19030 <__fputwc+0x56>
   19014:	0a440693          	addi	a3,s0,164
   19018:	864e                	mv	a2,s3
   1901a:	002c                	addi	a1,sp,8
   1901c:	855a                	mv	a0,s6
   1901e:	0ab010ef          	jal	ra,1a8c8 <_wcrtomb_r>
   19022:	57fd                	li	a5,-1
   19024:	892a                	mv	s2,a0
   19026:	06f50963          	beq	a0,a5,19098 <__fputwc+0xbe>
   1902a:	c525                	beqz	a0,19092 <__fputwc+0xb8>
   1902c:	00814703          	lbu	a4,8(sp)
   19030:	4481                	li	s1,0
   19032:	5a7d                	li	s4,-1
   19034:	4aa9                	li	s5,10
   19036:	a831                	j	19052 <__fputwc+0x78>
   19038:	601c                	ld	a5,0(s0)
   1903a:	00178693          	addi	a3,a5,1
   1903e:	e014                	sd	a3,0(s0)
   19040:	00e78023          	sb	a4,0(a5)
   19044:	0485                	addi	s1,s1,1
   19046:	003c                	addi	a5,sp,8
   19048:	97a6                	add	a5,a5,s1
   1904a:	0524f463          	bgeu	s1,s2,19092 <__fputwc+0xb8>
   1904e:	0007c703          	lbu	a4,0(a5)
   19052:	445c                	lw	a5,12(s0)
   19054:	37fd                	addiw	a5,a5,-1
   19056:	c45c                	sw	a5,12(s0)
   19058:	02079613          	slli	a2,a5,0x20
   1905c:	0007869b          	sext.w	a3,a5
   19060:	fc065ce3          	bgez	a2,19038 <__fputwc+0x5e>
   19064:	541c                	lw	a5,40(s0)
   19066:	85ba                	mv	a1,a4
   19068:	8622                	mv	a2,s0
   1906a:	855a                	mv	a0,s6
   1906c:	00f6c463          	blt	a3,a5,19074 <__fputwc+0x9a>
   19070:	fd5714e3          	bne	a4,s5,19038 <__fputwc+0x5e>
   19074:	74a010ef          	jal	ra,1a7be <__swbuf_r>
   19078:	fd4516e3          	bne	a0,s4,19044 <__fputwc+0x6a>
   1907c:	557d                	li	a0,-1
   1907e:	60a6                	ld	ra,72(sp)
   19080:	6406                	ld	s0,64(sp)
   19082:	74e2                	ld	s1,56(sp)
   19084:	7942                	ld	s2,48(sp)
   19086:	79a2                	ld	s3,40(sp)
   19088:	7a02                	ld	s4,32(sp)
   1908a:	6ae2                	ld	s5,24(sp)
   1908c:	6b42                	ld	s6,16(sp)
   1908e:	6161                	addi	sp,sp,80
   19090:	8082                	ret
   19092:	0009851b          	sext.w	a0,s3
   19096:	b7e5                	j	1907e <__fputwc+0xa4>
   19098:	01045783          	lhu	a5,16(s0)
   1909c:	557d                	li	a0,-1
   1909e:	0407e793          	ori	a5,a5,64
   190a2:	00f41823          	sh	a5,16(s0)
   190a6:	bfe1                	j	1907e <__fputwc+0xa4>

00000000000190a8 <_fputwc_r>:
   190a8:	01061783          	lh	a5,16(a2)
   190ac:	03279713          	slli	a4,a5,0x32
   190b0:	00074c63          	bltz	a4,190c8 <_fputwc_r+0x20>
   190b4:	0ac62703          	lw	a4,172(a2)
   190b8:	6689                	lui	a3,0x2
   190ba:	8fd5                	or	a5,a5,a3
   190bc:	6689                	lui	a3,0x2
   190be:	8f55                	or	a4,a4,a3
   190c0:	00f61823          	sh	a5,16(a2)
   190c4:	0ae62623          	sw	a4,172(a2)
   190c8:	bf09                	j	18fda <__fputwc>

00000000000190ca <fputwc>:
   190ca:	1101                	addi	sp,sp,-32
   190cc:	e822                	sd	s0,16(sp)
   190ce:	7581b403          	ld	s0,1880(gp) # 1ef48 <_impure_ptr>
   190d2:	ec06                	sd	ra,24(sp)
   190d4:	862e                	mv	a2,a1
   190d6:	85aa                	mv	a1,a0
   190d8:	c019                	beqz	s0,190de <fputwc+0x14>
   190da:	483c                	lw	a5,80(s0)
   190dc:	c795                	beqz	a5,19108 <fputwc+0x3e>
   190de:	01061783          	lh	a5,16(a2)
   190e2:	03279713          	slli	a4,a5,0x32
   190e6:	00074c63          	bltz	a4,190fe <fputwc+0x34>
   190ea:	0ac62703          	lw	a4,172(a2)
   190ee:	6689                	lui	a3,0x2
   190f0:	8fd5                	or	a5,a5,a3
   190f2:	6689                	lui	a3,0x2
   190f4:	8f55                	or	a4,a4,a3
   190f6:	00f61823          	sh	a5,16(a2)
   190fa:	0ae62623          	sw	a4,172(a2)
   190fe:	8522                	mv	a0,s0
   19100:	6442                	ld	s0,16(sp)
   19102:	60e2                	ld	ra,24(sp)
   19104:	6105                	addi	sp,sp,32
   19106:	bdd1                	j	18fda <__fputwc>
   19108:	e02a                	sd	a0,0(sp)
   1910a:	8522                	mv	a0,s0
   1910c:	e432                	sd	a2,8(sp)
   1910e:	e60f90ef          	jal	ra,1276e <__sinit>
   19112:	6622                	ld	a2,8(sp)
   19114:	6582                	ld	a1,0(sp)
   19116:	b7e1                	j	190de <fputwc+0x14>

0000000000019118 <_fstat_r>:
   19118:	1101                	addi	sp,sp,-32
   1911a:	872e                	mv	a4,a1
   1911c:	e822                	sd	s0,16(sp)
   1911e:	e426                	sd	s1,8(sp)
   19120:	842a                	mv	s0,a0
   19122:	64fd                	lui	s1,0x1f
   19124:	85b2                	mv	a1,a2
   19126:	853a                	mv	a0,a4
   19128:	ec06                	sd	ra,24(sp)
   1912a:	fe04a423          	sw	zero,-24(s1) # 1efe8 <errno>
   1912e:	109010ef          	jal	ra,1aa36 <_fstat>
   19132:	57fd                	li	a5,-1
   19134:	00f50763          	beq	a0,a5,19142 <_fstat_r+0x2a>
   19138:	60e2                	ld	ra,24(sp)
   1913a:	6442                	ld	s0,16(sp)
   1913c:	64a2                	ld	s1,8(sp)
   1913e:	6105                	addi	sp,sp,32
   19140:	8082                	ret
   19142:	fe84a783          	lw	a5,-24(s1)
   19146:	dbed                	beqz	a5,19138 <_fstat_r+0x20>
   19148:	60e2                	ld	ra,24(sp)
   1914a:	c01c                	sw	a5,0(s0)
   1914c:	6442                	ld	s0,16(sp)
   1914e:	64a2                	ld	s1,8(sp)
   19150:	6105                	addi	sp,sp,32
   19152:	8082                	ret

0000000000019154 <__sfvwrite_r>:
   19154:	6a1c                	ld	a5,16(a2)
   19156:	1a078c63          	beqz	a5,1930e <__sfvwrite_r+0x1ba>
   1915a:	0105d783          	lhu	a5,16(a1)
   1915e:	711d                	addi	sp,sp,-96
   19160:	e8a2                	sd	s0,80(sp)
   19162:	f852                	sd	s4,48(sp)
   19164:	f456                	sd	s5,40(sp)
   19166:	ec86                	sd	ra,88(sp)
   19168:	e4a6                	sd	s1,72(sp)
   1916a:	e0ca                	sd	s2,64(sp)
   1916c:	fc4e                	sd	s3,56(sp)
   1916e:	f05a                	sd	s6,32(sp)
   19170:	ec5e                	sd	s7,24(sp)
   19172:	e862                	sd	s8,16(sp)
   19174:	e466                	sd	s9,8(sp)
   19176:	e06a                	sd	s10,0(sp)
   19178:	0087f713          	andi	a4,a5,8
   1917c:	8a32                	mv	s4,a2
   1917e:	8aaa                	mv	s5,a0
   19180:	842e                	mv	s0,a1
   19182:	c325                	beqz	a4,191e2 <__sfvwrite_r+0x8e>
   19184:	6d98                	ld	a4,24(a1)
   19186:	cf31                	beqz	a4,191e2 <__sfvwrite_r+0x8e>
   19188:	0027f713          	andi	a4,a5,2
   1918c:	000a3903          	ld	s2,0(s4)
   19190:	c735                	beqz	a4,191fc <__sfvwrite_r+0xa8>
   19192:	603c                	ld	a5,64(s0)
   19194:	780c                	ld	a1,48(s0)
   19196:	80000b37          	lui	s6,0x80000
   1919a:	4981                	li	s3,0
   1919c:	4481                	li	s1,0
   1919e:	c00b4b13          	xori	s6,s6,-1024
   191a2:	864e                	mv	a2,s3
   191a4:	8556                	mv	a0,s5
   191a6:	c885                	beqz	s1,191d6 <__sfvwrite_r+0x82>
   191a8:	86a6                	mv	a3,s1
   191aa:	009b7363          	bgeu	s6,s1,191b0 <__sfvwrite_r+0x5c>
   191ae:	86da                	mv	a3,s6
   191b0:	2681                	sext.w	a3,a3
   191b2:	9782                	jalr	a5
   191b4:	14a05563          	blez	a0,192fe <__sfvwrite_r+0x1aa>
   191b8:	010a3783          	ld	a5,16(s4)
   191bc:	99aa                	add	s3,s3,a0
   191be:	8c89                	sub	s1,s1,a0
   191c0:	40a78533          	sub	a0,a5,a0
   191c4:	00aa3823          	sd	a0,16(s4)
   191c8:	10050763          	beqz	a0,192d6 <__sfvwrite_r+0x182>
   191cc:	603c                	ld	a5,64(s0)
   191ce:	780c                	ld	a1,48(s0)
   191d0:	864e                	mv	a2,s3
   191d2:	8556                	mv	a0,s5
   191d4:	f8f1                	bnez	s1,191a8 <__sfvwrite_r+0x54>
   191d6:	00093983          	ld	s3,0(s2)
   191da:	00893483          	ld	s1,8(s2)
   191de:	0941                	addi	s2,s2,16
   191e0:	b7c9                	j	191a2 <__sfvwrite_r+0x4e>
   191e2:	85a2                	mv	a1,s0
   191e4:	8556                	mv	a0,s5
   191e6:	fbdf80ef          	jal	ra,121a2 <__swsetup_r>
   191ea:	28051863          	bnez	a0,1947a <__sfvwrite_r+0x326>
   191ee:	01045783          	lhu	a5,16(s0)
   191f2:	000a3903          	ld	s2,0(s4)
   191f6:	0027f713          	andi	a4,a5,2
   191fa:	ff41                	bnez	a4,19192 <__sfvwrite_r+0x3e>
   191fc:	0017f713          	andi	a4,a5,1
   19200:	eb35                	bnez	a4,19274 <__sfvwrite_r+0x120>
   19202:	4444                	lw	s1,12(s0)
   19204:	6008                	ld	a0,0(s0)
   19206:	80000b37          	lui	s6,0x80000
   1920a:	ffeb4b93          	xori	s7,s6,-2
   1920e:	4c01                	li	s8,0
   19210:	4981                	li	s3,0
   19212:	fffb4b13          	not	s6,s6
   19216:	8ca6                	mv	s9,s1
   19218:	04098863          	beqz	s3,19268 <__sfvwrite_r+0x114>
   1921c:	2007f713          	andi	a4,a5,512
   19220:	12070a63          	beqz	a4,19354 <__sfvwrite_r+0x200>
   19224:	8d26                	mv	s10,s1
   19226:	1899f763          	bgeu	s3,s1,193b4 <__sfvwrite_r+0x260>
   1922a:	8cce                	mv	s9,s3
   1922c:	8d4e                	mv	s10,s3
   1922e:	866a                	mv	a2,s10
   19230:	85e2                	mv	a1,s8
   19232:	3a0000ef          	jal	ra,195d2 <memmove>
   19236:	4458                	lw	a4,12(s0)
   19238:	601c                	ld	a5,0(s0)
   1923a:	84ce                	mv	s1,s3
   1923c:	41970cbb          	subw	s9,a4,s9
   19240:	97ea                	add	a5,a5,s10
   19242:	01942623          	sw	s9,12(s0)
   19246:	e01c                	sd	a5,0(s0)
   19248:	4981                	li	s3,0
   1924a:	010a3603          	ld	a2,16(s4)
   1924e:	9c26                	add	s8,s8,s1
   19250:	409604b3          	sub	s1,a2,s1
   19254:	009a3823          	sd	s1,16(s4)
   19258:	ccbd                	beqz	s1,192d6 <__sfvwrite_r+0x182>
   1925a:	4444                	lw	s1,12(s0)
   1925c:	6008                	ld	a0,0(s0)
   1925e:	01045783          	lhu	a5,16(s0)
   19262:	8ca6                	mv	s9,s1
   19264:	fa099ce3          	bnez	s3,1921c <__sfvwrite_r+0xc8>
   19268:	00093c03          	ld	s8,0(s2)
   1926c:	00893983          	ld	s3,8(s2)
   19270:	0941                	addi	s2,s2,16
   19272:	b755                	j	19216 <__sfvwrite_r+0xc2>
   19274:	4981                	li	s3,0
   19276:	4501                	li	a0,0
   19278:	4c81                	li	s9,0
   1927a:	4c01                	li	s8,0
   1927c:	080c0b63          	beqz	s8,19312 <__sfvwrite_r+0x1be>
   19280:	c145                	beqz	a0,19320 <__sfvwrite_r+0x1cc>
   19282:	8bce                	mv	s7,s3
   19284:	013c7363          	bgeu	s8,s3,1928a <__sfvwrite_r+0x136>
   19288:	8be2                	mv	s7,s8
   1928a:	6008                	ld	a0,0(s0)
   1928c:	6c1c                	ld	a5,24(s0)
   1928e:	5014                	lw	a3,32(s0)
   19290:	84de                	mv	s1,s7
   19292:	00a7f763          	bgeu	a5,a0,192a0 <__sfvwrite_r+0x14c>
   19296:	445c                	lw	a5,12(s0)
   19298:	00d78b3b          	addw	s6,a5,a3
   1929c:	097b4d63          	blt	s6,s7,19336 <__sfvwrite_r+0x1e2>
   192a0:	18dbc463          	blt	s7,a3,19428 <__sfvwrite_r+0x2d4>
   192a4:	603c                	ld	a5,64(s0)
   192a6:	780c                	ld	a1,48(s0)
   192a8:	8666                	mv	a2,s9
   192aa:	8556                	mv	a0,s5
   192ac:	9782                	jalr	a5
   192ae:	84aa                	mv	s1,a0
   192b0:	04a05763          	blez	a0,192fe <__sfvwrite_r+0x1aa>
   192b4:	0005079b          	sext.w	a5,a0
   192b8:	40f989bb          	subw	s3,s3,a5
   192bc:	4505                	li	a0,1
   192be:	02098b63          	beqz	s3,192f4 <__sfvwrite_r+0x1a0>
   192c2:	010a3783          	ld	a5,16(s4)
   192c6:	9ca6                	add	s9,s9,s1
   192c8:	409c0c33          	sub	s8,s8,s1
   192cc:	409784b3          	sub	s1,a5,s1
   192d0:	009a3823          	sd	s1,16(s4)
   192d4:	f4c5                	bnez	s1,1927c <__sfvwrite_r+0x128>
   192d6:	4501                	li	a0,0
   192d8:	60e6                	ld	ra,88(sp)
   192da:	6446                	ld	s0,80(sp)
   192dc:	64a6                	ld	s1,72(sp)
   192de:	6906                	ld	s2,64(sp)
   192e0:	79e2                	ld	s3,56(sp)
   192e2:	7a42                	ld	s4,48(sp)
   192e4:	7aa2                	ld	s5,40(sp)
   192e6:	7b02                	ld	s6,32(sp)
   192e8:	6be2                	ld	s7,24(sp)
   192ea:	6c42                	ld	s8,16(sp)
   192ec:	6ca2                	ld	s9,8(sp)
   192ee:	6d02                	ld	s10,0(sp)
   192f0:	6125                	addi	sp,sp,96
   192f2:	8082                	ret
   192f4:	85a2                	mv	a1,s0
   192f6:	8556                	mv	a0,s5
   192f8:	9f4f90ef          	jal	ra,124ec <_fflush_r>
   192fc:	d179                	beqz	a0,192c2 <__sfvwrite_r+0x16e>
   192fe:	01041783          	lh	a5,16(s0)
   19302:	0407e793          	ori	a5,a5,64
   19306:	00f41823          	sh	a5,16(s0)
   1930a:	557d                	li	a0,-1
   1930c:	b7f1                	j	192d8 <__sfvwrite_r+0x184>
   1930e:	4501                	li	a0,0
   19310:	8082                	ret
   19312:	00893c03          	ld	s8,8(s2)
   19316:	00093c83          	ld	s9,0(s2)
   1931a:	0941                	addi	s2,s2,16
   1931c:	fe0c0be3          	beqz	s8,19312 <__sfvwrite_r+0x1be>
   19320:	8662                	mv	a2,s8
   19322:	45a9                	li	a1,10
   19324:	8566                	mv	a0,s9
   19326:	944fc0ef          	jal	ra,1546a <memchr>
   1932a:	12050f63          	beqz	a0,19468 <__sfvwrite_r+0x314>
   1932e:	0505                	addi	a0,a0,1
   19330:	419509bb          	subw	s3,a0,s9
   19334:	b7b9                	j	19282 <__sfvwrite_r+0x12e>
   19336:	85e6                	mv	a1,s9
   19338:	865a                	mv	a2,s6
   1933a:	298000ef          	jal	ra,195d2 <memmove>
   1933e:	601c                	ld	a5,0(s0)
   19340:	85a2                	mv	a1,s0
   19342:	8556                	mv	a0,s5
   19344:	97da                	add	a5,a5,s6
   19346:	e01c                	sd	a5,0(s0)
   19348:	9a4f90ef          	jal	ra,124ec <_fflush_r>
   1934c:	f94d                	bnez	a0,192fe <__sfvwrite_r+0x1aa>
   1934e:	87da                	mv	a5,s6
   19350:	84da                	mv	s1,s6
   19352:	b79d                	j	192b8 <__sfvwrite_r+0x164>
   19354:	6c1c                	ld	a5,24(s0)
   19356:	02a7e863          	bltu	a5,a0,19386 <__sfvwrite_r+0x232>
   1935a:	501c                	lw	a5,32(s0)
   1935c:	02f9e563          	bltu	s3,a5,19386 <__sfvwrite_r+0x232>
   19360:	86ce                	mv	a3,s3
   19362:	013bf363          	bgeu	s7,s3,19368 <__sfvwrite_r+0x214>
   19366:	86da                	mv	a3,s6
   19368:	02f6c6bb          	divw	a3,a3,a5
   1936c:	6038                	ld	a4,64(s0)
   1936e:	780c                	ld	a1,48(s0)
   19370:	8662                	mv	a2,s8
   19372:	8556                	mv	a0,s5
   19374:	02f686bb          	mulw	a3,a3,a5
   19378:	9702                	jalr	a4
   1937a:	84aa                	mv	s1,a0
   1937c:	f8a051e3          	blez	a0,192fe <__sfvwrite_r+0x1aa>
   19380:	409989b3          	sub	s3,s3,s1
   19384:	b5d9                	j	1924a <__sfvwrite_r+0xf6>
   19386:	0099f363          	bgeu	s3,s1,1938c <__sfvwrite_r+0x238>
   1938a:	84ce                	mv	s1,s3
   1938c:	8626                	mv	a2,s1
   1938e:	85e2                	mv	a1,s8
   19390:	242000ef          	jal	ra,195d2 <memmove>
   19394:	445c                	lw	a5,12(s0)
   19396:	6018                	ld	a4,0(s0)
   19398:	409786bb          	subw	a3,a5,s1
   1939c:	9726                	add	a4,a4,s1
   1939e:	c454                	sw	a3,12(s0)
   193a0:	e018                	sd	a4,0(s0)
   193a2:	fef9                	bnez	a3,19380 <__sfvwrite_r+0x22c>
   193a4:	85a2                	mv	a1,s0
   193a6:	8556                	mv	a0,s5
   193a8:	944f90ef          	jal	ra,124ec <_fflush_r>
   193ac:	f929                	bnez	a0,192fe <__sfvwrite_r+0x1aa>
   193ae:	409989b3          	sub	s3,s3,s1
   193b2:	bd61                	j	1924a <__sfvwrite_r+0xf6>
   193b4:	4807f713          	andi	a4,a5,1152
   193b8:	e6070be3          	beqz	a4,1922e <__sfvwrite_r+0xda>
   193bc:	5004                	lw	s1,32(s0)
   193be:	6c0c                	ld	a1,24(s0)
   193c0:	00198713          	addi	a4,s3,1
   193c4:	0014969b          	slliw	a3,s1,0x1
   193c8:	9ea5                	addw	a3,a3,s1
   193ca:	8d0d                	sub	a0,a0,a1
   193cc:	01f6d49b          	srliw	s1,a3,0x1f
   193d0:	00050d1b          	sext.w	s10,a0
   193d4:	9cb5                	addw	s1,s1,a3
   193d6:	4014d49b          	sraiw	s1,s1,0x1
   193da:	976a                	add	a4,a4,s10
   193dc:	00e4f563          	bgeu	s1,a4,193e6 <__sfvwrite_r+0x292>
   193e0:	0019849b          	addiw	s1,s3,1
   193e4:	9ca9                	addw	s1,s1,a0
   193e6:	4007f793          	andi	a5,a5,1024
   193ea:	cfa9                	beqz	a5,19444 <__sfvwrite_r+0x2f0>
   193ec:	85a6                	mv	a1,s1
   193ee:	8556                	mv	a0,s5
   193f0:	a1bfb0ef          	jal	ra,14e0a <_malloc_r>
   193f4:	8caa                	mv	s9,a0
   193f6:	cd25                	beqz	a0,1946e <__sfvwrite_r+0x31a>
   193f8:	6c0c                	ld	a1,24(s0)
   193fa:	866a                	mv	a2,s10
   193fc:	0f8000ef          	jal	ra,194f4 <memcpy>
   19400:	01045783          	lhu	a5,16(s0)
   19404:	b7f7f793          	andi	a5,a5,-1153
   19408:	0807e793          	ori	a5,a5,128
   1940c:	00f41823          	sh	a5,16(s0)
   19410:	01ac8533          	add	a0,s9,s10
   19414:	41a487bb          	subw	a5,s1,s10
   19418:	01943c23          	sd	s9,24(s0)
   1941c:	e008                	sd	a0,0(s0)
   1941e:	d004                	sw	s1,32(s0)
   19420:	8cce                	mv	s9,s3
   19422:	c45c                	sw	a5,12(s0)
   19424:	8d4e                	mv	s10,s3
   19426:	b521                	j	1922e <__sfvwrite_r+0xda>
   19428:	865e                	mv	a2,s7
   1942a:	85e6                	mv	a1,s9
   1942c:	1a6000ef          	jal	ra,195d2 <memmove>
   19430:	4458                	lw	a4,12(s0)
   19432:	6010                	ld	a2,0(s0)
   19434:	000b879b          	sext.w	a5,s7
   19438:	4177073b          	subw	a4,a4,s7
   1943c:	965e                	add	a2,a2,s7
   1943e:	c458                	sw	a4,12(s0)
   19440:	e010                	sd	a2,0(s0)
   19442:	bd9d                	j	192b8 <__sfvwrite_r+0x164>
   19444:	8626                	mv	a2,s1
   19446:	8556                	mv	a0,s5
   19448:	29e000ef          	jal	ra,196e6 <_realloc_r>
   1944c:	8caa                	mv	s9,a0
   1944e:	f169                	bnez	a0,19410 <__sfvwrite_r+0x2bc>
   19450:	6c0c                	ld	a1,24(s0)
   19452:	8556                	mv	a0,s5
   19454:	c46f90ef          	jal	ra,1289a <_free_r>
   19458:	01041783          	lh	a5,16(s0)
   1945c:	4731                	li	a4,12
   1945e:	00eaa023          	sw	a4,0(s5)
   19462:	f7f7f793          	andi	a5,a5,-129
   19466:	bd71                	j	19302 <__sfvwrite_r+0x1ae>
   19468:	001c099b          	addiw	s3,s8,1
   1946c:	bd19                	j	19282 <__sfvwrite_r+0x12e>
   1946e:	4731                	li	a4,12
   19470:	01041783          	lh	a5,16(s0)
   19474:	00eaa023          	sw	a4,0(s5)
   19478:	b569                	j	19302 <__sfvwrite_r+0x1ae>
   1947a:	557d                	li	a0,-1
   1947c:	bdb1                	j	192d8 <__sfvwrite_r+0x184>

000000000001947e <_isatty_r>:
   1947e:	1101                	addi	sp,sp,-32
   19480:	e822                	sd	s0,16(sp)
   19482:	e426                	sd	s1,8(sp)
   19484:	842a                	mv	s0,a0
   19486:	64fd                	lui	s1,0x1f
   19488:	852e                	mv	a0,a1
   1948a:	ec06                	sd	ra,24(sp)
   1948c:	fe04a423          	sw	zero,-24(s1) # 1efe8 <errno>
   19490:	5ee010ef          	jal	ra,1aa7e <_isatty>
   19494:	57fd                	li	a5,-1
   19496:	00f50763          	beq	a0,a5,194a4 <_isatty_r+0x26>
   1949a:	60e2                	ld	ra,24(sp)
   1949c:	6442                	ld	s0,16(sp)
   1949e:	64a2                	ld	s1,8(sp)
   194a0:	6105                	addi	sp,sp,32
   194a2:	8082                	ret
   194a4:	fe84a783          	lw	a5,-24(s1)
   194a8:	dbed                	beqz	a5,1949a <_isatty_r+0x1c>
   194aa:	60e2                	ld	ra,24(sp)
   194ac:	c01c                	sw	a5,0(s0)
   194ae:	6442                	ld	s0,16(sp)
   194b0:	64a2                	ld	s1,8(sp)
   194b2:	6105                	addi	sp,sp,32
   194b4:	8082                	ret

00000000000194b6 <_lseek_r>:
   194b6:	1101                	addi	sp,sp,-32
   194b8:	872e                	mv	a4,a1
   194ba:	e822                	sd	s0,16(sp)
   194bc:	e426                	sd	s1,8(sp)
   194be:	85b2                	mv	a1,a2
   194c0:	842a                	mv	s0,a0
   194c2:	64fd                	lui	s1,0x1f
   194c4:	8636                	mv	a2,a3
   194c6:	853a                	mv	a0,a4
   194c8:	ec06                	sd	ra,24(sp)
   194ca:	fe04a423          	sw	zero,-24(s1) # 1efe8 <errno>
   194ce:	5d6010ef          	jal	ra,1aaa4 <_lseek>
   194d2:	57fd                	li	a5,-1
   194d4:	00f50763          	beq	a0,a5,194e2 <_lseek_r+0x2c>
   194d8:	60e2                	ld	ra,24(sp)
   194da:	6442                	ld	s0,16(sp)
   194dc:	64a2                	ld	s1,8(sp)
   194de:	6105                	addi	sp,sp,32
   194e0:	8082                	ret
   194e2:	fe84a783          	lw	a5,-24(s1)
   194e6:	dbed                	beqz	a5,194d8 <_lseek_r+0x22>
   194e8:	60e2                	ld	ra,24(sp)
   194ea:	c01c                	sw	a5,0(s0)
   194ec:	6442                	ld	s0,16(sp)
   194ee:	64a2                	ld	s1,8(sp)
   194f0:	6105                	addi	sp,sp,32
   194f2:	8082                	ret

00000000000194f4 <memcpy>:
   194f4:	00a5c7b3          	xor	a5,a1,a0
   194f8:	8b9d                	andi	a5,a5,7
   194fa:	00c508b3          	add	a7,a0,a2
   194fe:	e7a1                	bnez	a5,19546 <memcpy+0x52>
   19500:	479d                	li	a5,7
   19502:	04c7f263          	bgeu	a5,a2,19546 <memcpy+0x52>
   19506:	00757793          	andi	a5,a0,7
   1950a:	872a                	mv	a4,a0
   1950c:	eba9                	bnez	a5,1955e <memcpy+0x6a>
   1950e:	ff88f613          	andi	a2,a7,-8
   19512:	fc060793          	addi	a5,a2,-64
   19516:	06f76763          	bltu	a4,a5,19584 <memcpy+0x90>
   1951a:	02c77363          	bgeu	a4,a2,19540 <memcpy+0x4c>
   1951e:	86ae                	mv	a3,a1
   19520:	87ba                	mv	a5,a4
   19522:	0006b803          	ld	a6,0(a3) # 2000 <register_fini-0xe0e8>
   19526:	07a1                	addi	a5,a5,8
   19528:	06a1                	addi	a3,a3,8
   1952a:	ff07bc23          	sd	a6,-8(a5)
   1952e:	fec7eae3          	bltu	a5,a2,19522 <memcpy+0x2e>
   19532:	fff60793          	addi	a5,a2,-1
   19536:	8f99                	sub	a5,a5,a4
   19538:	9be1                	andi	a5,a5,-8
   1953a:	07a1                	addi	a5,a5,8
   1953c:	973e                	add	a4,a4,a5
   1953e:	95be                	add	a1,a1,a5
   19540:	01176663          	bltu	a4,a7,1954c <memcpy+0x58>
   19544:	8082                	ret
   19546:	872a                	mv	a4,a0
   19548:	ff157ee3          	bgeu	a0,a7,19544 <memcpy+0x50>
   1954c:	0005c783          	lbu	a5,0(a1)
   19550:	0705                	addi	a4,a4,1
   19552:	0585                	addi	a1,a1,1
   19554:	fef70fa3          	sb	a5,-1(a4)
   19558:	ff176ae3          	bltu	a4,a7,1954c <memcpy+0x58>
   1955c:	8082                	ret
   1955e:	0005c683          	lbu	a3,0(a1)
   19562:	0705                	addi	a4,a4,1
   19564:	00777793          	andi	a5,a4,7
   19568:	fed70fa3          	sb	a3,-1(a4)
   1956c:	0585                	addi	a1,a1,1
   1956e:	d3c5                	beqz	a5,1950e <memcpy+0x1a>
   19570:	0005c683          	lbu	a3,0(a1)
   19574:	0705                	addi	a4,a4,1
   19576:	00777793          	andi	a5,a4,7
   1957a:	fed70fa3          	sb	a3,-1(a4)
   1957e:	0585                	addi	a1,a1,1
   19580:	fff9                	bnez	a5,1955e <memcpy+0x6a>
   19582:	b771                	j	1950e <memcpy+0x1a>
   19584:	6594                	ld	a3,8(a1)
   19586:	0005b283          	ld	t0,0(a1)
   1958a:	0105bf83          	ld	t6,16(a1)
   1958e:	0185bf03          	ld	t5,24(a1)
   19592:	0205be83          	ld	t4,32(a1)
   19596:	0285be03          	ld	t3,40(a1)
   1959a:	0305b303          	ld	t1,48(a1)
   1959e:	0385b803          	ld	a6,56(a1)
   195a2:	e714                	sd	a3,8(a4)
   195a4:	61b4                	ld	a3,64(a1)
   195a6:	00573023          	sd	t0,0(a4)
   195aa:	01f73823          	sd	t6,16(a4)
   195ae:	01e73c23          	sd	t5,24(a4)
   195b2:	03d73023          	sd	t4,32(a4)
   195b6:	03c73423          	sd	t3,40(a4)
   195ba:	02673823          	sd	t1,48(a4)
   195be:	03073c23          	sd	a6,56(a4)
   195c2:	e334                	sd	a3,64(a4)
   195c4:	04870713          	addi	a4,a4,72
   195c8:	04858593          	addi	a1,a1,72
   195cc:	faf76ce3          	bltu	a4,a5,19584 <memcpy+0x90>
   195d0:	b7a9                	j	1951a <memcpy+0x26>

00000000000195d2 <memmove>:
   195d2:	02a5f263          	bgeu	a1,a0,195f6 <memmove+0x24>
   195d6:	00c587b3          	add	a5,a1,a2
   195da:	00f57e63          	bgeu	a0,a5,195f6 <memmove+0x24>
   195de:	00c50733          	add	a4,a0,a2
   195e2:	ca5d                	beqz	a2,19698 <memmove+0xc6>
   195e4:	fff7c683          	lbu	a3,-1(a5)
   195e8:	17fd                	addi	a5,a5,-1
   195ea:	177d                	addi	a4,a4,-1
   195ec:	00d70023          	sb	a3,0(a4)
   195f0:	fef59ae3          	bne	a1,a5,195e4 <memmove+0x12>
   195f4:	8082                	ret
   195f6:	47fd                	li	a5,31
   195f8:	02c7e163          	bltu	a5,a2,1961a <memmove+0x48>
   195fc:	87aa                	mv	a5,a0
   195fe:	fff60693          	addi	a3,a2,-1
   19602:	c245                	beqz	a2,196a2 <memmove+0xd0>
   19604:	0685                	addi	a3,a3,1
   19606:	96be                	add	a3,a3,a5
   19608:	0005c703          	lbu	a4,0(a1)
   1960c:	0785                	addi	a5,a5,1
   1960e:	0585                	addi	a1,a1,1
   19610:	fee78fa3          	sb	a4,-1(a5)
   19614:	fed79ae3          	bne	a5,a3,19608 <memmove+0x36>
   19618:	8082                	ret
   1961a:	00a5e7b3          	or	a5,a1,a0
   1961e:	8b9d                	andi	a5,a5,7
   19620:	efad                	bnez	a5,1969a <memmove+0xc8>
   19622:	fe060893          	addi	a7,a2,-32
   19626:	fe08f893          	andi	a7,a7,-32
   1962a:	02088893          	addi	a7,a7,32
   1962e:	01150833          	add	a6,a0,a7
   19632:	872e                	mv	a4,a1
   19634:	87aa                	mv	a5,a0
   19636:	6314                	ld	a3,0(a4)
   19638:	02070713          	addi	a4,a4,32
   1963c:	02078793          	addi	a5,a5,32
   19640:	fed7b023          	sd	a3,-32(a5)
   19644:	fe873683          	ld	a3,-24(a4)
   19648:	fed7b423          	sd	a3,-24(a5)
   1964c:	ff073683          	ld	a3,-16(a4)
   19650:	fed7b823          	sd	a3,-16(a5)
   19654:	ff873683          	ld	a3,-8(a4)
   19658:	fed7bc23          	sd	a3,-8(a5)
   1965c:	fcf81de3          	bne	a6,a5,19636 <memmove+0x64>
   19660:	01867713          	andi	a4,a2,24
   19664:	95c6                	add	a1,a1,a7
   19666:	01f67813          	andi	a6,a2,31
   1966a:	cf0d                	beqz	a4,196a4 <memmove+0xd2>
   1966c:	872e                	mv	a4,a1
   1966e:	88be                	mv	a7,a5
   19670:	4e1d                	li	t3,7
   19672:	00073303          	ld	t1,0(a4)
   19676:	0721                	addi	a4,a4,8
   19678:	40e806b3          	sub	a3,a6,a4
   1967c:	0068b023          	sd	t1,0(a7)
   19680:	96ae                	add	a3,a3,a1
   19682:	08a1                	addi	a7,a7,8
   19684:	fede67e3          	bltu	t3,a3,19672 <memmove+0xa0>
   19688:	ff880713          	addi	a4,a6,-8
   1968c:	9b61                	andi	a4,a4,-8
   1968e:	0721                	addi	a4,a4,8
   19690:	8a1d                	andi	a2,a2,7
   19692:	97ba                	add	a5,a5,a4
   19694:	95ba                	add	a1,a1,a4
   19696:	b7a5                	j	195fe <memmove+0x2c>
   19698:	8082                	ret
   1969a:	fff60693          	addi	a3,a2,-1
   1969e:	87aa                	mv	a5,a0
   196a0:	b795                	j	19604 <memmove+0x32>
   196a2:	8082                	ret
   196a4:	8642                	mv	a2,a6
   196a6:	bfa1                	j	195fe <memmove+0x2c>

00000000000196a8 <_read_r>:
   196a8:	1101                	addi	sp,sp,-32
   196aa:	872e                	mv	a4,a1
   196ac:	e822                	sd	s0,16(sp)
   196ae:	e426                	sd	s1,8(sp)
   196b0:	85b2                	mv	a1,a2
   196b2:	842a                	mv	s0,a0
   196b4:	64fd                	lui	s1,0x1f
   196b6:	8636                	mv	a2,a3
   196b8:	853a                	mv	a0,a4
   196ba:	ec06                	sd	ra,24(sp)
   196bc:	fe04a423          	sw	zero,-24(s1) # 1efe8 <errno>
   196c0:	416010ef          	jal	ra,1aad6 <_read>
   196c4:	57fd                	li	a5,-1
   196c6:	00f50763          	beq	a0,a5,196d4 <_read_r+0x2c>
   196ca:	60e2                	ld	ra,24(sp)
   196cc:	6442                	ld	s0,16(sp)
   196ce:	64a2                	ld	s1,8(sp)
   196d0:	6105                	addi	sp,sp,32
   196d2:	8082                	ret
   196d4:	fe84a783          	lw	a5,-24(s1)
   196d8:	dbed                	beqz	a5,196ca <_read_r+0x22>
   196da:	60e2                	ld	ra,24(sp)
   196dc:	c01c                	sw	a5,0(s0)
   196de:	6442                	ld	s0,16(sp)
   196e0:	64a2                	ld	s1,8(sp)
   196e2:	6105                	addi	sp,sp,32
   196e4:	8082                	ret

00000000000196e6 <_realloc_r>:
   196e6:	715d                	addi	sp,sp,-80
   196e8:	f84a                	sd	s2,48(sp)
   196ea:	e486                	sd	ra,72(sp)
   196ec:	e0a2                	sd	s0,64(sp)
   196ee:	fc26                	sd	s1,56(sp)
   196f0:	f44e                	sd	s3,40(sp)
   196f2:	f052                	sd	s4,32(sp)
   196f4:	ec56                	sd	s5,24(sp)
   196f6:	e85a                	sd	s6,16(sp)
   196f8:	e45e                	sd	s7,8(sp)
   196fa:	e062                	sd	s8,0(sp)
   196fc:	8932                	mv	s2,a2
   196fe:	1a058063          	beqz	a1,1989e <_realloc_r+0x1b8>
   19702:	842e                	mv	s0,a1
   19704:	8aaa                	mv	s5,a0
   19706:	dfbfb0ef          	jal	ra,15500 <__malloc_lock>
   1970a:	ff843703          	ld	a4,-8(s0)
   1970e:	01790493          	addi	s1,s2,23
   19712:	02e00793          	li	a5,46
   19716:	ff040b13          	addi	s6,s0,-16
   1971a:	ffc77a13          	andi	s4,a4,-4
   1971e:	0a97fe63          	bgeu	a5,s1,197da <_realloc_r+0xf4>
   19722:	800007b7          	lui	a5,0x80000
   19726:	98c1                	andi	s1,s1,-16
   19728:	fff7c793          	not	a5,a5
   1972c:	0a97eb63          	bltu	a5,s1,197e2 <_realloc_r+0xfc>
   19730:	0b24e963          	bltu	s1,s2,197e2 <_realloc_r+0xfc>
   19734:	014b09b3          	add	s3,s6,s4
   19738:	129a5163          	bge	s4,s1,1985a <_realloc_r+0x174>
   1973c:	67f9                	lui	a5,0x1e
   1973e:	6f878b93          	addi	s7,a5,1784 # 1e6f8 <__malloc_av_>
   19742:	010bb683          	ld	a3,16(s7)
   19746:	0089b783          	ld	a5,8(s3)
   1974a:	19368b63          	beq	a3,s3,198e0 <_realloc_r+0x1fa>
   1974e:	ffe7f693          	andi	a3,a5,-2
   19752:	96ce                	add	a3,a3,s3
   19754:	6694                	ld	a3,8(a3)
   19756:	8a85                	andi	a3,a3,1
   19758:	12069863          	bnez	a3,19888 <_realloc_r+0x1a2>
   1975c:	9bf1                	andi	a5,a5,-4
   1975e:	00fa06b3          	add	a3,s4,a5
   19762:	2496de63          	bge	a3,s1,199be <_realloc_r+0x2d8>
   19766:	8b05                	andi	a4,a4,1
   19768:	e30d                	bnez	a4,1978a <_realloc_r+0xa4>
   1976a:	ff043c03          	ld	s8,-16(s0)
   1976e:	418b0c33          	sub	s8,s6,s8
   19772:	008c3703          	ld	a4,8(s8)
   19776:	9b71                	andi	a4,a4,-4
   19778:	97ba                	add	a5,a5,a4
   1977a:	01478bb3          	add	s7,a5,s4
   1977e:	269bd563          	bge	s7,s1,199e8 <_realloc_r+0x302>
   19782:	00ea0bb3          	add	s7,s4,a4
   19786:	069bdf63          	bge	s7,s1,19804 <_realloc_r+0x11e>
   1978a:	85ca                	mv	a1,s2
   1978c:	8556                	mv	a0,s5
   1978e:	e7cfb0ef          	jal	ra,14e0a <_malloc_r>
   19792:	892a                	mv	s2,a0
   19794:	cd1d                	beqz	a0,197d2 <_realloc_r+0xec>
   19796:	ff843783          	ld	a5,-8(s0)
   1979a:	ff050713          	addi	a4,a0,-16
   1979e:	9bf9                	andi	a5,a5,-2
   197a0:	97da                	add	a5,a5,s6
   197a2:	22e78863          	beq	a5,a4,199d2 <_realloc_r+0x2ec>
   197a6:	ff8a0613          	addi	a2,s4,-8
   197aa:	04800793          	li	a5,72
   197ae:	22c7e963          	bltu	a5,a2,199e0 <_realloc_r+0x2fa>
   197b2:	02700713          	li	a4,39
   197b6:	6014                	ld	a3,0(s0)
   197b8:	1cc76363          	bltu	a4,a2,1997e <_realloc_r+0x298>
   197bc:	87aa                	mv	a5,a0
   197be:	8722                	mv	a4,s0
   197c0:	e394                	sd	a3,0(a5)
   197c2:	6714                	ld	a3,8(a4)
   197c4:	e794                	sd	a3,8(a5)
   197c6:	6b18                	ld	a4,16(a4)
   197c8:	eb98                	sd	a4,16(a5)
   197ca:	85a2                	mv	a1,s0
   197cc:	8556                	mv	a0,s5
   197ce:	8ccf90ef          	jal	ra,1289a <_free_r>
   197d2:	8556                	mv	a0,s5
   197d4:	d2ffb0ef          	jal	ra,15502 <__malloc_unlock>
   197d8:	a809                	j	197ea <_realloc_r+0x104>
   197da:	02000493          	li	s1,32
   197de:	f524fbe3          	bgeu	s1,s2,19734 <_realloc_r+0x4e>
   197e2:	47b1                	li	a5,12
   197e4:	00faa023          	sw	a5,0(s5)
   197e8:	4901                	li	s2,0
   197ea:	60a6                	ld	ra,72(sp)
   197ec:	6406                	ld	s0,64(sp)
   197ee:	74e2                	ld	s1,56(sp)
   197f0:	79a2                	ld	s3,40(sp)
   197f2:	7a02                	ld	s4,32(sp)
   197f4:	6ae2                	ld	s5,24(sp)
   197f6:	6b42                	ld	s6,16(sp)
   197f8:	6ba2                	ld	s7,8(sp)
   197fa:	6c02                	ld	s8,0(sp)
   197fc:	854a                	mv	a0,s2
   197fe:	7942                	ld	s2,48(sp)
   19800:	6161                	addi	sp,sp,80
   19802:	8082                	ret
   19804:	018c3783          	ld	a5,24(s8)
   19808:	010c3703          	ld	a4,16(s8)
   1980c:	ff8a0613          	addi	a2,s4,-8
   19810:	04800693          	li	a3,72
   19814:	ef1c                	sd	a5,24(a4)
   19816:	eb98                	sd	a4,16(a5)
   19818:	010c0913          	addi	s2,s8,16
   1981c:	017c09b3          	add	s3,s8,s7
   19820:	22c6e963          	bltu	a3,a2,19a52 <_realloc_r+0x36c>
   19824:	02700593          	li	a1,39
   19828:	6018                	ld	a4,0(s0)
   1982a:	87ca                	mv	a5,s2
   1982c:	00c5ff63          	bgeu	a1,a2,1984a <_realloc_r+0x164>
   19830:	00ec3823          	sd	a4,16(s8)
   19834:	6418                	ld	a4,8(s0)
   19836:	03700793          	li	a5,55
   1983a:	00ec3c23          	sd	a4,24(s8)
   1983e:	22c7ee63          	bltu	a5,a2,19a7a <_realloc_r+0x394>
   19842:	6818                	ld	a4,16(s0)
   19844:	020c0793          	addi	a5,s8,32
   19848:	0441                	addi	s0,s0,16
   1984a:	e398                	sd	a4,0(a5)
   1984c:	6418                	ld	a4,8(s0)
   1984e:	8a5e                	mv	s4,s7
   19850:	8b62                	mv	s6,s8
   19852:	e798                	sd	a4,8(a5)
   19854:	6818                	ld	a4,16(s0)
   19856:	844a                	mv	s0,s2
   19858:	eb98                	sd	a4,16(a5)
   1985a:	008b3783          	ld	a5,8(s6) # ffffffff80000008 <__BSS_END__+0xffffffff7ffe1018>
   1985e:	409a0733          	sub	a4,s4,s1
   19862:	46fd                	li	a3,31
   19864:	8b85                	andi	a5,a5,1
   19866:	04e6ea63          	bltu	a3,a4,198ba <_realloc_r+0x1d4>
   1986a:	00fa67b3          	or	a5,s4,a5
   1986e:	00fb3423          	sd	a5,8(s6)
   19872:	0089b783          	ld	a5,8(s3)
   19876:	0017e793          	ori	a5,a5,1
   1987a:	00f9b423          	sd	a5,8(s3)
   1987e:	8556                	mv	a0,s5
   19880:	c83fb0ef          	jal	ra,15502 <__malloc_unlock>
   19884:	8922                	mv	s2,s0
   19886:	b795                	j	197ea <_realloc_r+0x104>
   19888:	8b05                	andi	a4,a4,1
   1988a:	f00710e3          	bnez	a4,1978a <_realloc_r+0xa4>
   1988e:	ff043c03          	ld	s8,-16(s0)
   19892:	418b0c33          	sub	s8,s6,s8
   19896:	008c3703          	ld	a4,8(s8)
   1989a:	9b71                	andi	a4,a4,-4
   1989c:	b5dd                	j	19782 <_realloc_r+0x9c>
   1989e:	6406                	ld	s0,64(sp)
   198a0:	60a6                	ld	ra,72(sp)
   198a2:	74e2                	ld	s1,56(sp)
   198a4:	7942                	ld	s2,48(sp)
   198a6:	79a2                	ld	s3,40(sp)
   198a8:	7a02                	ld	s4,32(sp)
   198aa:	6ae2                	ld	s5,24(sp)
   198ac:	6b42                	ld	s6,16(sp)
   198ae:	6ba2                	ld	s7,8(sp)
   198b0:	6c02                	ld	s8,0(sp)
   198b2:	85b2                	mv	a1,a2
   198b4:	6161                	addi	sp,sp,80
   198b6:	d54fb06f          	j	14e0a <_malloc_r>
   198ba:	8fc5                	or	a5,a5,s1
   198bc:	00fb3423          	sd	a5,8(s6)
   198c0:	009b05b3          	add	a1,s6,s1
   198c4:	00176713          	ori	a4,a4,1
   198c8:	e598                	sd	a4,8(a1)
   198ca:	0089b783          	ld	a5,8(s3)
   198ce:	05c1                	addi	a1,a1,16
   198d0:	8556                	mv	a0,s5
   198d2:	0017e793          	ori	a5,a5,1
   198d6:	00f9b423          	sd	a5,8(s3)
   198da:	fc1f80ef          	jal	ra,1289a <_free_r>
   198de:	b745                	j	1987e <_realloc_r+0x198>
   198e0:	9bf1                	andi	a5,a5,-4
   198e2:	00fa06b3          	add	a3,s4,a5
   198e6:	02048613          	addi	a2,s1,32
   198ea:	0ac6d763          	bge	a3,a2,19998 <_realloc_r+0x2b2>
   198ee:	8b05                	andi	a4,a4,1
   198f0:	e8071de3          	bnez	a4,1978a <_realloc_r+0xa4>
   198f4:	ff043c03          	ld	s8,-16(s0)
   198f8:	418b0c33          	sub	s8,s6,s8
   198fc:	008c3703          	ld	a4,8(s8)
   19900:	9b71                	andi	a4,a4,-4
   19902:	97ba                	add	a5,a5,a4
   19904:	014789b3          	add	s3,a5,s4
   19908:	e6c9cde3          	blt	s3,a2,19782 <_realloc_r+0x9c>
   1990c:	018c3783          	ld	a5,24(s8)
   19910:	010c3703          	ld	a4,16(s8)
   19914:	ff8a0613          	addi	a2,s4,-8
   19918:	04800693          	li	a3,72
   1991c:	ef1c                	sd	a5,24(a4)
   1991e:	eb98                	sd	a4,16(a5)
   19920:	010c0913          	addi	s2,s8,16
   19924:	18c6e863          	bltu	a3,a2,19ab4 <_realloc_r+0x3ce>
   19928:	02700593          	li	a1,39
   1992c:	6018                	ld	a4,0(s0)
   1992e:	87ca                	mv	a5,s2
   19930:	00c5ff63          	bgeu	a1,a2,1994e <_realloc_r+0x268>
   19934:	00ec3823          	sd	a4,16(s8)
   19938:	6418                	ld	a4,8(s0)
   1993a:	03700793          	li	a5,55
   1993e:	00ec3c23          	sd	a4,24(s8)
   19942:	16c7ee63          	bltu	a5,a2,19abe <_realloc_r+0x3d8>
   19946:	6818                	ld	a4,16(s0)
   19948:	020c0793          	addi	a5,s8,32
   1994c:	0441                	addi	s0,s0,16
   1994e:	e398                	sd	a4,0(a5)
   19950:	6418                	ld	a4,8(s0)
   19952:	e798                	sd	a4,8(a5)
   19954:	6818                	ld	a4,16(s0)
   19956:	eb98                	sd	a4,16(a5)
   19958:	009c0733          	add	a4,s8,s1
   1995c:	409989b3          	sub	s3,s3,s1
   19960:	00ebb823          	sd	a4,16(s7)
   19964:	0019e793          	ori	a5,s3,1
   19968:	e71c                	sd	a5,8(a4)
   1996a:	008c3783          	ld	a5,8(s8)
   1996e:	8556                	mv	a0,s5
   19970:	8b85                	andi	a5,a5,1
   19972:	8cdd                	or	s1,s1,a5
   19974:	009c3423          	sd	s1,8(s8)
   19978:	b8bfb0ef          	jal	ra,15502 <__malloc_unlock>
   1997c:	b5bd                	j	197ea <_realloc_r+0x104>
   1997e:	e114                	sd	a3,0(a0)
   19980:	6414                	ld	a3,8(s0)
   19982:	03700713          	li	a4,55
   19986:	e514                	sd	a3,8(a0)
   19988:	0cc76d63          	bltu	a4,a2,19a62 <_realloc_r+0x37c>
   1998c:	6814                	ld	a3,16(s0)
   1998e:	01040713          	addi	a4,s0,16
   19992:	01050793          	addi	a5,a0,16
   19996:	b52d                	j	197c0 <_realloc_r+0xda>
   19998:	9b26                	add	s6,s6,s1
   1999a:	8e85                	sub	a3,a3,s1
   1999c:	016bb823          	sd	s6,16(s7)
   199a0:	0016e793          	ori	a5,a3,1
   199a4:	00fb3423          	sd	a5,8(s6)
   199a8:	ff843783          	ld	a5,-8(s0)
   199ac:	8556                	mv	a0,s5
   199ae:	8922                	mv	s2,s0
   199b0:	8b85                	andi	a5,a5,1
   199b2:	8cdd                	or	s1,s1,a5
   199b4:	fe943c23          	sd	s1,-8(s0)
   199b8:	b4bfb0ef          	jal	ra,15502 <__malloc_unlock>
   199bc:	b53d                	j	197ea <_realloc_r+0x104>
   199be:	0189b783          	ld	a5,24(s3)
   199c2:	0109b703          	ld	a4,16(s3)
   199c6:	8a36                	mv	s4,a3
   199c8:	00db09b3          	add	s3,s6,a3
   199cc:	ef1c                	sd	a5,24(a4)
   199ce:	eb98                	sd	a4,16(a5)
   199d0:	b569                	j	1985a <_realloc_r+0x174>
   199d2:	ff853783          	ld	a5,-8(a0)
   199d6:	9bf1                	andi	a5,a5,-4
   199d8:	9a3e                	add	s4,s4,a5
   199da:	014b09b3          	add	s3,s6,s4
   199de:	bdb5                	j	1985a <_realloc_r+0x174>
   199e0:	85a2                	mv	a1,s0
   199e2:	bf1ff0ef          	jal	ra,195d2 <memmove>
   199e6:	b3d5                	j	197ca <_realloc_r+0xe4>
   199e8:	0189b783          	ld	a5,24(s3)
   199ec:	0109b703          	ld	a4,16(s3)
   199f0:	ff8a0613          	addi	a2,s4,-8
   199f4:	04800693          	li	a3,72
   199f8:	ef1c                	sd	a5,24(a4)
   199fa:	eb98                	sd	a4,16(a5)
   199fc:	010c3703          	ld	a4,16(s8)
   19a00:	018c3783          	ld	a5,24(s8)
   19a04:	010c0913          	addi	s2,s8,16
   19a08:	017c09b3          	add	s3,s8,s7
   19a0c:	ef1c                	sd	a5,24(a4)
   19a0e:	eb98                	sd	a4,16(a5)
   19a10:	04c6e163          	bltu	a3,a2,19a52 <_realloc_r+0x36c>
   19a14:	02700693          	li	a3,39
   19a18:	6018                	ld	a4,0(s0)
   19a1a:	87ca                	mv	a5,s2
   19a1c:	e2c6f7e3          	bgeu	a3,a2,1984a <_realloc_r+0x164>
   19a20:	00ec3823          	sd	a4,16(s8)
   19a24:	6418                	ld	a4,8(s0)
   19a26:	03700793          	li	a5,55
   19a2a:	00ec3c23          	sd	a4,24(s8)
   19a2e:	6818                	ld	a4,16(s0)
   19a30:	e0c7fae3          	bgeu	a5,a2,19844 <_realloc_r+0x15e>
   19a34:	02ec3023          	sd	a4,32(s8)
   19a38:	6c18                	ld	a4,24(s0)
   19a3a:	04800793          	li	a5,72
   19a3e:	02ec3423          	sd	a4,40(s8)
   19a42:	7018                	ld	a4,32(s0)
   19a44:	04f60463          	beq	a2,a5,19a8c <_realloc_r+0x3a6>
   19a48:	030c0793          	addi	a5,s8,48
   19a4c:	02040413          	addi	s0,s0,32
   19a50:	bbed                	j	1984a <_realloc_r+0x164>
   19a52:	85a2                	mv	a1,s0
   19a54:	854a                	mv	a0,s2
   19a56:	b7dff0ef          	jal	ra,195d2 <memmove>
   19a5a:	844a                	mv	s0,s2
   19a5c:	8a5e                	mv	s4,s7
   19a5e:	8b62                	mv	s6,s8
   19a60:	bbed                	j	1985a <_realloc_r+0x174>
   19a62:	6818                	ld	a4,16(s0)
   19a64:	e918                	sd	a4,16(a0)
   19a66:	6c18                	ld	a4,24(s0)
   19a68:	ed18                	sd	a4,24(a0)
   19a6a:	7014                	ld	a3,32(s0)
   19a6c:	02f60b63          	beq	a2,a5,19aa2 <_realloc_r+0x3bc>
   19a70:	02040713          	addi	a4,s0,32
   19a74:	02050793          	addi	a5,a0,32
   19a78:	b3a1                	j	197c0 <_realloc_r+0xda>
   19a7a:	681c                	ld	a5,16(s0)
   19a7c:	02fc3023          	sd	a5,32(s8)
   19a80:	6c1c                	ld	a5,24(s0)
   19a82:	02fc3423          	sd	a5,40(s8)
   19a86:	7018                	ld	a4,32(s0)
   19a88:	fcd610e3          	bne	a2,a3,19a48 <_realloc_r+0x362>
   19a8c:	02ec3823          	sd	a4,48(s8)
   19a90:	7418                	ld	a4,40(s0)
   19a92:	040c0793          	addi	a5,s8,64
   19a96:	03040413          	addi	s0,s0,48
   19a9a:	02ec3c23          	sd	a4,56(s8)
   19a9e:	6018                	ld	a4,0(s0)
   19aa0:	b36d                	j	1984a <_realloc_r+0x164>
   19aa2:	f114                	sd	a3,32(a0)
   19aa4:	7414                	ld	a3,40(s0)
   19aa6:	03040713          	addi	a4,s0,48
   19aaa:	03050793          	addi	a5,a0,48
   19aae:	f514                	sd	a3,40(a0)
   19ab0:	7814                	ld	a3,48(s0)
   19ab2:	b339                	j	197c0 <_realloc_r+0xda>
   19ab4:	85a2                	mv	a1,s0
   19ab6:	854a                	mv	a0,s2
   19ab8:	b1bff0ef          	jal	ra,195d2 <memmove>
   19abc:	bd71                	j	19958 <_realloc_r+0x272>
   19abe:	681c                	ld	a5,16(s0)
   19ac0:	02fc3023          	sd	a5,32(s8)
   19ac4:	6c1c                	ld	a5,24(s0)
   19ac6:	02fc3423          	sd	a5,40(s8)
   19aca:	7018                	ld	a4,32(s0)
   19acc:	00d60763          	beq	a2,a3,19ada <_realloc_r+0x3f4>
   19ad0:	030c0793          	addi	a5,s8,48
   19ad4:	02040413          	addi	s0,s0,32
   19ad8:	bd9d                	j	1994e <_realloc_r+0x268>
   19ada:	02ec3823          	sd	a4,48(s8)
   19ade:	7418                	ld	a4,40(s0)
   19ae0:	040c0793          	addi	a5,s8,64
   19ae4:	03040413          	addi	s0,s0,48
   19ae8:	02ec3c23          	sd	a4,56(s8)
   19aec:	6018                	ld	a4,0(s0)
   19aee:	b585                	j	1994e <_realloc_r+0x268>

0000000000019af0 <cleanup_glue>:
   19af0:	1101                	addi	sp,sp,-32
   19af2:	e822                	sd	s0,16(sp)
   19af4:	842e                	mv	s0,a1
   19af6:	618c                	ld	a1,0(a1)
   19af8:	e426                	sd	s1,8(sp)
   19afa:	ec06                	sd	ra,24(sp)
   19afc:	84aa                	mv	s1,a0
   19afe:	c199                	beqz	a1,19b04 <cleanup_glue+0x14>
   19b00:	ff1ff0ef          	jal	ra,19af0 <cleanup_glue>
   19b04:	85a2                	mv	a1,s0
   19b06:	6442                	ld	s0,16(sp)
   19b08:	60e2                	ld	ra,24(sp)
   19b0a:	8526                	mv	a0,s1
   19b0c:	64a2                	ld	s1,8(sp)
   19b0e:	6105                	addi	sp,sp,32
   19b10:	d8bf806f          	j	1289a <_free_r>

0000000000019b14 <_reclaim_reent>:
   19b14:	7581b783          	ld	a5,1880(gp) # 1ef48 <_impure_ptr>
   19b18:	08a78e63          	beq	a5,a0,19bb4 <_reclaim_reent+0xa0>
   19b1c:	7d2c                	ld	a1,120(a0)
   19b1e:	7179                	addi	sp,sp,-48
   19b20:	ec26                	sd	s1,24(sp)
   19b22:	f406                	sd	ra,40(sp)
   19b24:	f022                	sd	s0,32(sp)
   19b26:	e84a                	sd	s2,16(sp)
   19b28:	e44e                	sd	s3,8(sp)
   19b2a:	84aa                	mv	s1,a0
   19b2c:	c58d                	beqz	a1,19b56 <_reclaim_reent+0x42>
   19b2e:	4901                	li	s2,0
   19b30:	20000993          	li	s3,512
   19b34:	012587b3          	add	a5,a1,s2
   19b38:	6380                	ld	s0,0(a5)
   19b3a:	c801                	beqz	s0,19b4a <_reclaim_reent+0x36>
   19b3c:	85a2                	mv	a1,s0
   19b3e:	6000                	ld	s0,0(s0)
   19b40:	8526                	mv	a0,s1
   19b42:	d59f80ef          	jal	ra,1289a <_free_r>
   19b46:	f87d                	bnez	s0,19b3c <_reclaim_reent+0x28>
   19b48:	7cac                	ld	a1,120(s1)
   19b4a:	0921                	addi	s2,s2,8
   19b4c:	ff3914e3          	bne	s2,s3,19b34 <_reclaim_reent+0x20>
   19b50:	8526                	mv	a0,s1
   19b52:	d49f80ef          	jal	ra,1289a <_free_r>
   19b56:	70ac                	ld	a1,96(s1)
   19b58:	c581                	beqz	a1,19b60 <_reclaim_reent+0x4c>
   19b5a:	8526                	mv	a0,s1
   19b5c:	d3ff80ef          	jal	ra,1289a <_free_r>
   19b60:	1f84b403          	ld	s0,504(s1)
   19b64:	cc01                	beqz	s0,19b7c <_reclaim_reent+0x68>
   19b66:	20048913          	addi	s2,s1,512
   19b6a:	01240963          	beq	s0,s2,19b7c <_reclaim_reent+0x68>
   19b6e:	85a2                	mv	a1,s0
   19b70:	6000                	ld	s0,0(s0)
   19b72:	8526                	mv	a0,s1
   19b74:	d27f80ef          	jal	ra,1289a <_free_r>
   19b78:	fe891be3          	bne	s2,s0,19b6e <_reclaim_reent+0x5a>
   19b7c:	64cc                	ld	a1,136(s1)
   19b7e:	c581                	beqz	a1,19b86 <_reclaim_reent+0x72>
   19b80:	8526                	mv	a0,s1
   19b82:	d19f80ef          	jal	ra,1289a <_free_r>
   19b86:	48bc                	lw	a5,80(s1)
   19b88:	cf99                	beqz	a5,19ba6 <_reclaim_reent+0x92>
   19b8a:	6cbc                	ld	a5,88(s1)
   19b8c:	8526                	mv	a0,s1
   19b8e:	9782                	jalr	a5
   19b90:	5204b583          	ld	a1,1312(s1)
   19b94:	c989                	beqz	a1,19ba6 <_reclaim_reent+0x92>
   19b96:	7402                	ld	s0,32(sp)
   19b98:	70a2                	ld	ra,40(sp)
   19b9a:	6942                	ld	s2,16(sp)
   19b9c:	69a2                	ld	s3,8(sp)
   19b9e:	8526                	mv	a0,s1
   19ba0:	64e2                	ld	s1,24(sp)
   19ba2:	6145                	addi	sp,sp,48
   19ba4:	b7b1                	j	19af0 <cleanup_glue>
   19ba6:	70a2                	ld	ra,40(sp)
   19ba8:	7402                	ld	s0,32(sp)
   19baa:	64e2                	ld	s1,24(sp)
   19bac:	6942                	ld	s2,16(sp)
   19bae:	69a2                	ld	s3,8(sp)
   19bb0:	6145                	addi	sp,sp,48
   19bb2:	8082                	ret
   19bb4:	8082                	ret

0000000000019bb6 <__ssprint_r>:
   19bb6:	6a1c                	ld	a5,16(a2)
   19bb8:	715d                	addi	sp,sp,-80
   19bba:	f052                	sd	s4,32(sp)
   19bbc:	e486                	sd	ra,72(sp)
   19bbe:	e0a2                	sd	s0,64(sp)
   19bc0:	fc26                	sd	s1,56(sp)
   19bc2:	f84a                	sd	s2,48(sp)
   19bc4:	f44e                	sd	s3,40(sp)
   19bc6:	ec56                	sd	s5,24(sp)
   19bc8:	e85a                	sd	s6,16(sp)
   19bca:	e45e                	sd	s7,8(sp)
   19bcc:	e062                	sd	s8,0(sp)
   19bce:	8a32                	mv	s4,a2
   19bd0:	cff9                	beqz	a5,19cae <__ssprint_r+0xf8>
   19bd2:	8aaa                	mv	s5,a0
   19bd4:	00063983          	ld	s3,0(a2)
   19bd8:	6188                	ld	a0,0(a1)
   19bda:	45c0                	lw	s0,12(a1)
   19bdc:	892e                	mv	s2,a1
   19bde:	4b01                	li	s6,0
   19be0:	4481                	li	s1,0
   19be2:	c4ed                	beqz	s1,19ccc <__ssprint_r+0x116>
   19be4:	8c22                	mv	s8,s0
   19be6:	0004879b          	sext.w	a5,s1
   19bea:	0e84e763          	bltu	s1,s0,19cd8 <__ssprint_r+0x122>
   19bee:	01095783          	lhu	a5,16(s2)
   19bf2:	00048b9b          	sext.w	s7,s1
   19bf6:	4807f713          	andi	a4,a5,1152
   19bfa:	c349                	beqz	a4,19c7c <__ssprint_r+0xc6>
   19bfc:	02092683          	lw	a3,32(s2)
   19c00:	01893583          	ld	a1,24(s2)
   19c04:	00148713          	addi	a4,s1,1
   19c08:	0016941b          	slliw	s0,a3,0x1
   19c0c:	9ea1                	addw	a3,a3,s0
   19c0e:	8d0d                	sub	a0,a0,a1
   19c10:	01f6d41b          	srliw	s0,a3,0x1f
   19c14:	00050b9b          	sext.w	s7,a0
   19c18:	9c35                	addw	s0,s0,a3
   19c1a:	4014541b          	sraiw	s0,s0,0x1
   19c1e:	975e                	add	a4,a4,s7
   19c20:	00e47563          	bgeu	s0,a4,19c2a <__ssprint_r+0x74>
   19c24:	0014841b          	addiw	s0,s1,1
   19c28:	9c29                	addw	s0,s0,a0
   19c2a:	4007f793          	andi	a5,a5,1024
   19c2e:	cbcd                	beqz	a5,19ce0 <__ssprint_r+0x12a>
   19c30:	85a2                	mv	a1,s0
   19c32:	8556                	mv	a0,s5
   19c34:	9d6fb0ef          	jal	ra,14e0a <_malloc_r>
   19c38:	8c2a                	mv	s8,a0
   19c3a:	cd55                	beqz	a0,19cf6 <__ssprint_r+0x140>
   19c3c:	01893583          	ld	a1,24(s2)
   19c40:	865e                	mv	a2,s7
   19c42:	8b3ff0ef          	jal	ra,194f4 <memcpy>
   19c46:	01095783          	lhu	a5,16(s2)
   19c4a:	b7f7f793          	andi	a5,a5,-1153
   19c4e:	0807e793          	ori	a5,a5,128
   19c52:	00f91823          	sh	a5,16(s2)
   19c56:	017c0533          	add	a0,s8,s7
   19c5a:	41740bbb          	subw	s7,s0,s7
   19c5e:	0004879b          	sext.w	a5,s1
   19c62:	01893c23          	sd	s8,24(s2)
   19c66:	02892023          	sw	s0,32(s2)
   19c6a:	01792623          	sw	s7,12(s2)
   19c6e:	00a93023          	sd	a0,0(s2)
   19c72:	843e                	mv	s0,a5
   19c74:	8bbe                	mv	s7,a5
   19c76:	8c3e                	mv	s8,a5
   19c78:	06f4e063          	bltu	s1,a5,19cd8 <__ssprint_r+0x122>
   19c7c:	8622                	mv	a2,s0
   19c7e:	85da                	mv	a1,s6
   19c80:	953ff0ef          	jal	ra,195d2 <memmove>
   19c84:	00c92603          	lw	a2,12(s2)
   19c88:	00093503          	ld	a0,0(s2)
   19c8c:	010a3783          	ld	a5,16(s4)
   19c90:	4086043b          	subw	s0,a2,s0
   19c94:	9562                	add	a0,a0,s8
   19c96:	00892623          	sw	s0,12(s2)
   19c9a:	00a93023          	sd	a0,0(s2)
   19c9e:	417787b3          	sub	a5,a5,s7
   19ca2:	00fa3823          	sd	a5,16(s4)
   19ca6:	9b5e                	add	s6,s6,s7
   19ca8:	417484b3          	sub	s1,s1,s7
   19cac:	fb9d                	bnez	a5,19be2 <__ssprint_r+0x2c>
   19cae:	000a2423          	sw	zero,8(s4)
   19cb2:	4501                	li	a0,0
   19cb4:	60a6                	ld	ra,72(sp)
   19cb6:	6406                	ld	s0,64(sp)
   19cb8:	74e2                	ld	s1,56(sp)
   19cba:	7942                	ld	s2,48(sp)
   19cbc:	79a2                	ld	s3,40(sp)
   19cbe:	7a02                	ld	s4,32(sp)
   19cc0:	6ae2                	ld	s5,24(sp)
   19cc2:	6b42                	ld	s6,16(sp)
   19cc4:	6ba2                	ld	s7,8(sp)
   19cc6:	6c02                	ld	s8,0(sp)
   19cc8:	6161                	addi	sp,sp,80
   19cca:	8082                	ret
   19ccc:	0009bb03          	ld	s6,0(s3)
   19cd0:	0089b483          	ld	s1,8(s3)
   19cd4:	09c1                	addi	s3,s3,16
   19cd6:	b731                	j	19be2 <__ssprint_r+0x2c>
   19cd8:	843e                	mv	s0,a5
   19cda:	8bbe                	mv	s7,a5
   19cdc:	8c3e                	mv	s8,a5
   19cde:	bf79                	j	19c7c <__ssprint_r+0xc6>
   19ce0:	8622                	mv	a2,s0
   19ce2:	8556                	mv	a0,s5
   19ce4:	a03ff0ef          	jal	ra,196e6 <_realloc_r>
   19ce8:	8c2a                	mv	s8,a0
   19cea:	f535                	bnez	a0,19c56 <__ssprint_r+0xa0>
   19cec:	01893583          	ld	a1,24(s2)
   19cf0:	8556                	mv	a0,s5
   19cf2:	ba9f80ef          	jal	ra,1289a <_free_r>
   19cf6:	47b1                	li	a5,12
   19cf8:	00faa023          	sw	a5,0(s5)
   19cfc:	01095783          	lhu	a5,16(s2)
   19d00:	557d                	li	a0,-1
   19d02:	0407e793          	ori	a5,a5,64
   19d06:	00f91823          	sh	a5,16(s2)
   19d0a:	000a3823          	sd	zero,16(s4)
   19d0e:	000a2423          	sw	zero,8(s4)
   19d12:	b74d                	j	19cb4 <__ssprint_r+0xfe>

0000000000019d14 <_svfiprintf_r>:
   19d14:	0105d783          	lhu	a5,16(a1)
   19d18:	7145                	addi	sp,sp,-464
   19d1a:	f74e                	sd	s3,424(sp)
   19d1c:	ef56                	sd	s5,408(sp)
   19d1e:	e362                	sd	s8,384(sp)
   19d20:	faea                	sd	s10,368(sp)
   19d22:	e786                	sd	ra,456(sp)
   19d24:	e3a2                	sd	s0,448(sp)
   19d26:	ff26                	sd	s1,440(sp)
   19d28:	fb4a                	sd	s2,432(sp)
   19d2a:	f352                	sd	s4,416(sp)
   19d2c:	eb5a                	sd	s6,400(sp)
   19d2e:	e75e                	sd	s7,392(sp)
   19d30:	fee6                	sd	s9,376(sp)
   19d32:	f6ee                	sd	s11,360(sp)
   19d34:	0807f793          	andi	a5,a5,128
   19d38:	89ae                	mv	s3,a1
   19d3a:	8aaa                	mv	s5,a0
   19d3c:	8d32                	mv	s10,a2
   19d3e:	8c36                	mv	s8,a3
   19d40:	c781                	beqz	a5,19d48 <_svfiprintf_r+0x34>
   19d42:	6d9c                	ld	a5,24(a1)
   19d44:	120782e3          	beqz	a5,1a668 <_svfiprintf_r+0x954>
   19d48:	67f5                	lui	a5,0x1d
   19d4a:	0e010a13          	addi	s4,sp,224
   19d4e:	b1878793          	addi	a5,a5,-1256 # 1cb18 <_ctype_+0x108>
   19d52:	6b75                	lui	s6,0x1d
   19d54:	64f5                	lui	s1,0x1d
   19d56:	f0d2                	sd	s4,96(sp)
   19d58:	f882                	sd	zero,112(sp)
   19d5a:	d482                	sw	zero,104(sp)
   19d5c:	8752                	mv	a4,s4
   19d5e:	e802                	sd	zero,16(sp)
   19d60:	fc02                	sd	zero,56(sp)
   19d62:	e482                	sd	zero,72(sp)
   19d64:	e082                	sd	zero,64(sp)
   19d66:	e002                	sd	zero,0(sp)
   19d68:	ec3e                	sd	a5,24(sp)
   19d6a:	c88b0b13          	addi	s6,s6,-888 # 1cc88 <blanks.4482>
   19d6e:	c9848493          	addi	s1,s1,-872 # 1cc98 <zeroes.4483>
   19d72:	000d4783          	lbu	a5,0(s10)
   19d76:	2a078463          	beqz	a5,1a01e <_svfiprintf_r+0x30a>
   19d7a:	896a                	mv	s2,s10
   19d7c:	02500693          	li	a3,37
   19d80:	16d78a63          	beq	a5,a3,19ef4 <_svfiprintf_r+0x1e0>
   19d84:	00194783          	lbu	a5,1(s2)
   19d88:	0905                	addi	s2,s2,1
   19d8a:	fbfd                	bnez	a5,19d80 <_svfiprintf_r+0x6c>
   19d8c:	41a9043b          	subw	s0,s2,s10
   19d90:	28040763          	beqz	s0,1a01e <_svfiprintf_r+0x30a>
   19d94:	76c6                	ld	a3,112(sp)
   19d96:	57a6                	lw	a5,104(sp)
   19d98:	01a73023          	sd	s10,0(a4)
   19d9c:	96a2                	add	a3,a3,s0
   19d9e:	2785                	addiw	a5,a5,1
   19da0:	e700                	sd	s0,8(a4)
   19da2:	f8b6                	sd	a3,112(sp)
   19da4:	d4be                	sw	a5,104(sp)
   19da6:	0007869b          	sext.w	a3,a5
   19daa:	479d                	li	a5,7
   19dac:	0741                	addi	a4,a4,16
   19dae:	3cd7cd63          	blt	a5,a3,1a188 <_svfiprintf_r+0x474>
   19db2:	6682                	ld	a3,0(sp)
   19db4:	00094783          	lbu	a5,0(s2)
   19db8:	9ea1                	addw	a3,a3,s0
   19dba:	e036                	sd	a3,0(sp)
   19dbc:	26078163          	beqz	a5,1a01e <_svfiprintf_r+0x30a>
   19dc0:	00194683          	lbu	a3,1(s2)
   19dc4:	00190d13          	addi	s10,s2,1
   19dc8:	04010ba3          	sb	zero,87(sp)
   19dcc:	537d                	li	t1,-1
   19dce:	4401                	li	s0,0
   19dd0:	4d81                	li	s11,0
   19dd2:	05a00913          	li	s2,90
   19dd6:	4ba5                	li	s7,9
   19dd8:	0d05                	addi	s10,s10,1
   19dda:	2681                	sext.w	a3,a3
   19ddc:	02a00593          	li	a1,42
   19de0:	fe06879b          	addiw	a5,a3,-32
   19de4:	0007861b          	sext.w	a2,a5
   19de8:	04c96063          	bltu	s2,a2,19e28 <_svfiprintf_r+0x114>
   19dec:	6662                	ld	a2,24(sp)
   19dee:	1782                	slli	a5,a5,0x20
   19df0:	83f9                	srli	a5,a5,0x1e
   19df2:	97b2                	add	a5,a5,a2
   19df4:	439c                	lw	a5,0(a5)
   19df6:	8782                	jr	a5
   19df8:	4401                	li	s0,0
   19dfa:	000d4603          	lbu	a2,0(s10)
   19dfe:	0024179b          	slliw	a5,s0,0x2
   19e02:	9c3d                	addw	s0,s0,a5
   19e04:	fd06869b          	addiw	a3,a3,-48
   19e08:	0014141b          	slliw	s0,s0,0x1
   19e0c:	fd06079b          	addiw	a5,a2,-48
   19e10:	9c35                	addw	s0,s0,a3
   19e12:	0d05                	addi	s10,s10,1
   19e14:	0006069b          	sext.w	a3,a2
   19e18:	fefbf1e3          	bgeu	s7,a5,19dfa <_svfiprintf_r+0xe6>
   19e1c:	fe06879b          	addiw	a5,a3,-32
   19e20:	0007861b          	sext.w	a2,a5
   19e24:	fcc974e3          	bgeu	s2,a2,19dec <_svfiprintf_r+0xd8>
   19e28:	1e068b63          	beqz	a3,1a01e <_svfiprintf_r+0x30a>
   19e2c:	06d10c23          	sb	a3,120(sp)
   19e30:	04010ba3          	sb	zero,87(sp)
   19e34:	4b85                	li	s7,1
   19e36:	4905                	li	s2,1
   19e38:	07810c93          	addi	s9,sp,120
   19e3c:	4301                	li	t1,0
   19e3e:	aa11                	j	19f52 <_svfiprintf_r+0x23e>
   19e40:	010de893          	ori	a7,s11,16
   19e44:	000d4683          	lbu	a3,0(s10)
   19e48:	00088d9b          	sext.w	s11,a7
   19e4c:	b771                	j	19dd8 <_svfiprintf_r+0xc4>
   19e4e:	010de893          	ori	a7,s11,16
   19e52:	00088d9b          	sext.w	s11,a7
   19e56:	020df793          	andi	a5,s11,32
   19e5a:	008c0613          	addi	a2,s8,8
   19e5e:	4c078463          	beqz	a5,1a326 <_svfiprintf_r+0x612>
   19e62:	000c3783          	ld	a5,0(s8)
   19e66:	8bbe                	mv	s7,a5
   19e68:	4c07cc63          	bltz	a5,1a340 <_svfiprintf_r+0x62c>
   19e6c:	57fd                	li	a5,-1
   19e6e:	86ee                	mv	a3,s11
   19e70:	8c32                	mv	s8,a2
   19e72:	00f30763          	beq	t1,a5,19e80 <_svfiprintf_r+0x16c>
   19e76:	f7fdf693          	andi	a3,s11,-129
   19e7a:	2681                	sext.w	a3,a3
   19e7c:	460b8363          	beqz	s7,1a2e2 <_svfiprintf_r+0x5ce>
   19e80:	47a5                	li	a5,9
   19e82:	6d77ee63          	bltu	a5,s7,1a55e <_svfiprintf_r+0x84a>
   19e86:	030b8b9b          	addiw	s7,s7,48
   19e8a:	0d710da3          	sb	s7,219(sp)
   19e8e:	8db6                	mv	s11,a3
   19e90:	4905                	li	s2,1
   19e92:	0db10c93          	addi	s9,sp,219
   19e96:	a05d                	j	19f3c <_svfiprintf_r+0x228>
   19e98:	010de893          	ori	a7,s11,16
   19e9c:	00088d9b          	sext.w	s11,a7
   19ea0:	020df793          	andi	a5,s11,32
   19ea4:	008c0613          	addi	a2,s8,8
   19ea8:	46078163          	beqz	a5,1a30a <_svfiprintf_r+0x5f6>
   19eac:	000c3b83          	ld	s7,0(s8)
   19eb0:	bffdf893          	andi	a7,s11,-1025
   19eb4:	0008869b          	sext.w	a3,a7
   19eb8:	8c32                	mv	s8,a2
   19eba:	4781                	li	a5,0
   19ebc:	04010ba3          	sb	zero,87(sp)
   19ec0:	567d                	li	a2,-1
   19ec2:	04c30163          	beq	t1,a2,19f04 <_svfiprintf_r+0x1f0>
   19ec6:	f7f6f893          	andi	a7,a3,-129
   19eca:	00088d9b          	sext.w	s11,a7
   19ece:	020b9a63          	bnez	s7,19f02 <_svfiprintf_r+0x1ee>
   19ed2:	7a031b63          	bnez	t1,1a688 <_svfiprintf_r+0x974>
   19ed6:	40079963          	bnez	a5,1a2e8 <_svfiprintf_r+0x5d4>
   19eda:	0016f913          	andi	s2,a3,1
   19ede:	0dc10c93          	addi	s9,sp,220
   19ee2:	04090d63          	beqz	s2,19f3c <_svfiprintf_r+0x228>
   19ee6:	03000793          	li	a5,48
   19eea:	0cf10da3          	sb	a5,219(sp)
   19eee:	0db10c93          	addi	s9,sp,219
   19ef2:	a0a9                	j	19f3c <_svfiprintf_r+0x228>
   19ef4:	41a9043b          	subw	s0,s2,s10
   19ef8:	e8041ee3          	bnez	s0,19d94 <_svfiprintf_r+0x80>
   19efc:	00094783          	lbu	a5,0(s2)
   19f00:	bd75                	j	19dbc <_svfiprintf_r+0xa8>
   19f02:	86ee                	mv	a3,s11
   19f04:	4605                	li	a2,1
   19f06:	f6c78de3          	beq	a5,a2,19e80 <_svfiprintf_r+0x16c>
   19f0a:	4609                	li	a2,2
   19f0c:	24c78d63          	beq	a5,a2,1a166 <_svfiprintf_r+0x452>
   19f10:	0dc10913          	addi	s2,sp,220
   19f14:	8cca                	mv	s9,s2
   19f16:	007bf793          	andi	a5,s7,7
   19f1a:	03078793          	addi	a5,a5,48
   19f1e:	fefc8fa3          	sb	a5,-1(s9)
   19f22:	003bdb93          	srli	s7,s7,0x3
   19f26:	8666                	mv	a2,s9
   19f28:	1cfd                	addi	s9,s9,-1
   19f2a:	fe0b96e3          	bnez	s7,19f16 <_svfiprintf_r+0x202>
   19f2e:	0016f593          	andi	a1,a3,1
   19f32:	3c059063          	bnez	a1,1a2f2 <_svfiprintf_r+0x5de>
   19f36:	4199093b          	subw	s2,s2,s9
   19f3a:	8db6                	mv	s11,a3
   19f3c:	879a                	mv	a5,t1
   19f3e:	01235363          	bge	t1,s2,19f44 <_svfiprintf_r+0x230>
   19f42:	87ca                	mv	a5,s2
   19f44:	05714683          	lbu	a3,87(sp)
   19f48:	00078b9b          	sext.w	s7,a5
   19f4c:	c299                	beqz	a3,19f52 <_svfiprintf_r+0x23e>
   19f4e:	00178b9b          	addiw	s7,a5,1
   19f52:	002df793          	andi	a5,s11,2
   19f56:	00078f1b          	sext.w	t5,a5
   19f5a:	c391                	beqz	a5,19f5e <_svfiprintf_r+0x24a>
   19f5c:	2b89                	addiw	s7,s7,2
   19f5e:	084dfe93          	andi	t4,s11,132
   19f62:	77c6                	ld	a5,112(sp)
   19f64:	55a6                	lw	a1,104(sp)
   19f66:	000e9663          	bnez	t4,19f72 <_svfiprintf_r+0x25e>
   19f6a:	417406bb          	subw	a3,s0,s7
   19f6e:	22d04663          	bgtz	a3,1a19a <_svfiprintf_r+0x486>
   19f72:	05714f83          	lbu	t6,87(sp)
   19f76:	0015851b          	addiw	a0,a1,1
   19f7a:	01070613          	addi	a2,a4,16
   19f7e:	020f8763          	beqz	t6,19fac <_svfiprintf_r+0x298>
   19f82:	05710f93          	addi	t6,sp,87
   19f86:	0785                	addi	a5,a5,1
   19f88:	01f73023          	sd	t6,0(a4)
   19f8c:	4f85                	li	t6,1
   19f8e:	01f73423          	sd	t6,8(a4)
   19f92:	f8be                	sd	a5,112(sp)
   19f94:	d4aa                	sw	a0,104(sp)
   19f96:	469d                	li	a3,7
   19f98:	28a6c863          	blt	a3,a0,1a228 <_svfiprintf_r+0x514>
   19f9c:	00258f9b          	addiw	t6,a1,2
   19fa0:	02070693          	addi	a3,a4,32
   19fa4:	85aa                	mv	a1,a0
   19fa6:	8732                	mv	a4,a2
   19fa8:	857e                	mv	a0,t6
   19faa:	8636                	mv	a2,a3
   19fac:	020f0063          	beqz	t5,19fcc <_svfiprintf_r+0x2b8>
   19fb0:	08b4                	addi	a3,sp,88
   19fb2:	e314                	sd	a3,0(a4)
   19fb4:	0789                	addi	a5,a5,2
   19fb6:	4689                	li	a3,2
   19fb8:	e714                	sd	a3,8(a4)
   19fba:	f8be                	sd	a5,112(sp)
   19fbc:	d4aa                	sw	a0,104(sp)
   19fbe:	471d                	li	a4,7
   19fc0:	28a74863          	blt	a4,a0,1a250 <_svfiprintf_r+0x53c>
   19fc4:	85aa                	mv	a1,a0
   19fc6:	8732                	mv	a4,a2
   19fc8:	2505                	addiw	a0,a0,1
   19fca:	0641                	addi	a2,a2,16
   19fcc:	08000693          	li	a3,128
   19fd0:	08de8063          	beq	t4,a3,1a050 <_svfiprintf_r+0x33c>
   19fd4:	412306bb          	subw	a3,t1,s2
   19fd8:	0ed04863          	bgtz	a3,1a0c8 <_svfiprintf_r+0x3b4>
   19fdc:	97ca                	add	a5,a5,s2
   19fde:	01973023          	sd	s9,0(a4)
   19fe2:	01273423          	sd	s2,8(a4)
   19fe6:	f8be                	sd	a5,112(sp)
   19fe8:	d4aa                	sw	a0,104(sp)
   19fea:	471d                	li	a4,7
   19fec:	14a74a63          	blt	a4,a0,1a140 <_svfiprintf_r+0x42c>
   19ff0:	004df893          	andi	a7,s11,4
   19ff4:	00088663          	beqz	a7,1a000 <_svfiprintf_r+0x2ec>
   19ff8:	4174093b          	subw	s2,s0,s7
   19ffc:	27204c63          	bgtz	s2,1a274 <_svfiprintf_r+0x560>
   1a000:	8722                	mv	a4,s0
   1a002:	01745363          	bge	s0,s7,1a008 <_svfiprintf_r+0x2f4>
   1a006:	875e                	mv	a4,s7
   1a008:	6682                	ld	a3,0(sp)
   1a00a:	9f35                	addw	a4,a4,a3
   1a00c:	e03a                	sd	a4,0(sp)
   1a00e:	14079363          	bnez	a5,1a154 <_svfiprintf_r+0x440>
   1a012:	000d4783          	lbu	a5,0(s10)
   1a016:	d482                	sw	zero,104(sp)
   1a018:	8752                	mv	a4,s4
   1a01a:	d60790e3          	bnez	a5,19d7a <_svfiprintf_r+0x66>
   1a01e:	77c6                	ld	a5,112(sp)
   1a020:	74079663          	bnez	a5,1a76c <_svfiprintf_r+0xa58>
   1a024:	0109d783          	lhu	a5,16(s3)
   1a028:	0407f793          	andi	a5,a5,64
   1a02c:	76079363          	bnez	a5,1a792 <_svfiprintf_r+0xa7e>
   1a030:	60be                	ld	ra,456(sp)
   1a032:	641e                	ld	s0,448(sp)
   1a034:	6502                	ld	a0,0(sp)
   1a036:	74fa                	ld	s1,440(sp)
   1a038:	795a                	ld	s2,432(sp)
   1a03a:	79ba                	ld	s3,424(sp)
   1a03c:	7a1a                	ld	s4,416(sp)
   1a03e:	6afa                	ld	s5,408(sp)
   1a040:	6b5a                	ld	s6,400(sp)
   1a042:	6bba                	ld	s7,392(sp)
   1a044:	6c1a                	ld	s8,384(sp)
   1a046:	7cf6                	ld	s9,376(sp)
   1a048:	7d56                	ld	s10,368(sp)
   1a04a:	7db6                	ld	s11,360(sp)
   1a04c:	6179                	addi	sp,sp,464
   1a04e:	8082                	ret
   1a050:	417406bb          	subw	a3,s0,s7
   1a054:	f8d050e3          	blez	a3,19fd4 <_svfiprintf_r+0x2c0>
   1a058:	4ec1                	li	t4,16
   1a05a:	72ded663          	bge	t4,a3,1a786 <_svfiprintf_r+0xa72>
   1a05e:	4f1d                	li	t5,7
   1a060:	a021                	j	1a068 <_svfiprintf_r+0x354>
   1a062:	36c1                	addiw	a3,a3,-16
   1a064:	02dede63          	bge	t4,a3,1a0a0 <_svfiprintf_r+0x38c>
   1a068:	2585                	addiw	a1,a1,1
   1a06a:	07c1                	addi	a5,a5,16
   1a06c:	e304                	sd	s1,0(a4)
   1a06e:	01d73423          	sd	t4,8(a4)
   1a072:	f8be                	sd	a5,112(sp)
   1a074:	d4ae                	sw	a1,104(sp)
   1a076:	0741                	addi	a4,a4,16
   1a078:	febf55e3          	bge	t5,a1,1a062 <_svfiprintf_r+0x34e>
   1a07c:	1090                	addi	a2,sp,96
   1a07e:	85ce                	mv	a1,s3
   1a080:	8556                	mv	a0,s5
   1a082:	f01a                	sd	t1,32(sp)
   1a084:	e436                	sd	a3,8(sp)
   1a086:	b31ff0ef          	jal	ra,19bb6 <__ssprint_r>
   1a08a:	fd49                	bnez	a0,1a024 <_svfiprintf_r+0x310>
   1a08c:	66a2                	ld	a3,8(sp)
   1a08e:	4ec1                	li	t4,16
   1a090:	77c6                	ld	a5,112(sp)
   1a092:	36c1                	addiw	a3,a3,-16
   1a094:	55a6                	lw	a1,104(sp)
   1a096:	7302                	ld	t1,32(sp)
   1a098:	8752                	mv	a4,s4
   1a09a:	4f1d                	li	t5,7
   1a09c:	fcdec6e3          	blt	t4,a3,1a068 <_svfiprintf_r+0x354>
   1a0a0:	2585                	addiw	a1,a1,1
   1a0a2:	01070e93          	addi	t4,a4,16
   1a0a6:	97b6                	add	a5,a5,a3
   1a0a8:	e304                	sd	s1,0(a4)
   1a0aa:	e714                	sd	a3,8(a4)
   1a0ac:	f8be                	sd	a5,112(sp)
   1a0ae:	d4ae                	sw	a1,104(sp)
   1a0b0:	471d                	li	a4,7
   1a0b2:	5eb74363          	blt	a4,a1,1a698 <_svfiprintf_r+0x984>
   1a0b6:	412306bb          	subw	a3,t1,s2
   1a0ba:	0015851b          	addiw	a0,a1,1
   1a0be:	010e8613          	addi	a2,t4,16
   1a0c2:	8776                	mv	a4,t4
   1a0c4:	f0d05ce3          	blez	a3,19fdc <_svfiprintf_r+0x2c8>
   1a0c8:	4341                	li	t1,16
   1a0ca:	66d35463          	bge	t1,a3,1a732 <_svfiprintf_r+0xa1e>
   1a0ce:	4e9d                	li	t4,7
   1a0d0:	a021                	j	1a0d8 <_svfiprintf_r+0x3c4>
   1a0d2:	36c1                	addiw	a3,a3,-16
   1a0d4:	02d35c63          	bge	t1,a3,1a10c <_svfiprintf_r+0x3f8>
   1a0d8:	2585                	addiw	a1,a1,1
   1a0da:	07c1                	addi	a5,a5,16
   1a0dc:	e304                	sd	s1,0(a4)
   1a0de:	00673423          	sd	t1,8(a4)
   1a0e2:	f8be                	sd	a5,112(sp)
   1a0e4:	d4ae                	sw	a1,104(sp)
   1a0e6:	0741                	addi	a4,a4,16
   1a0e8:	febed5e3          	bge	t4,a1,1a0d2 <_svfiprintf_r+0x3be>
   1a0ec:	1090                	addi	a2,sp,96
   1a0ee:	85ce                	mv	a1,s3
   1a0f0:	8556                	mv	a0,s5
   1a0f2:	e436                	sd	a3,8(sp)
   1a0f4:	ac3ff0ef          	jal	ra,19bb6 <__ssprint_r>
   1a0f8:	f515                	bnez	a0,1a024 <_svfiprintf_r+0x310>
   1a0fa:	66a2                	ld	a3,8(sp)
   1a0fc:	4341                	li	t1,16
   1a0fe:	77c6                	ld	a5,112(sp)
   1a100:	36c1                	addiw	a3,a3,-16
   1a102:	55a6                	lw	a1,104(sp)
   1a104:	8752                	mv	a4,s4
   1a106:	4e9d                	li	t4,7
   1a108:	fcd348e3          	blt	t1,a3,1a0d8 <_svfiprintf_r+0x3c4>
   1a10c:	0015851b          	addiw	a0,a1,1
   1a110:	01070593          	addi	a1,a4,16
   1a114:	97b6                	add	a5,a5,a3
   1a116:	e304                	sd	s1,0(a4)
   1a118:	e714                	sd	a3,8(a4)
   1a11a:	f8be                	sd	a5,112(sp)
   1a11c:	d4aa                	sw	a0,104(sp)
   1a11e:	471d                	li	a4,7
   1a120:	42a74263          	blt	a4,a0,1a544 <_svfiprintf_r+0x830>
   1a124:	872e                	mv	a4,a1
   1a126:	2505                	addiw	a0,a0,1
   1a128:	97ca                	add	a5,a5,s2
   1a12a:	01973023          	sd	s9,0(a4)
   1a12e:	01273423          	sd	s2,8(a4)
   1a132:	f8be                	sd	a5,112(sp)
   1a134:	d4aa                	sw	a0,104(sp)
   1a136:	471d                	li	a4,7
   1a138:	01058613          	addi	a2,a1,16
   1a13c:	eaa75ae3          	bge	a4,a0,19ff0 <_svfiprintf_r+0x2dc>
   1a140:	1090                	addi	a2,sp,96
   1a142:	85ce                	mv	a1,s3
   1a144:	8556                	mv	a0,s5
   1a146:	a71ff0ef          	jal	ra,19bb6 <__ssprint_r>
   1a14a:	ec051de3          	bnez	a0,1a024 <_svfiprintf_r+0x310>
   1a14e:	77c6                	ld	a5,112(sp)
   1a150:	8652                	mv	a2,s4
   1a152:	bd79                	j	19ff0 <_svfiprintf_r+0x2dc>
   1a154:	1090                	addi	a2,sp,96
   1a156:	85ce                	mv	a1,s3
   1a158:	8556                	mv	a0,s5
   1a15a:	a5dff0ef          	jal	ra,19bb6 <__ssprint_r>
   1a15e:	ea050ae3          	beqz	a0,1a012 <_svfiprintf_r+0x2fe>
   1a162:	b5c9                	j	1a024 <_svfiprintf_r+0x310>
   1a164:	86ee                	mv	a3,s11
   1a166:	0dc10913          	addi	s2,sp,220
   1a16a:	8cca                	mv	s9,s2
   1a16c:	6642                	ld	a2,16(sp)
   1a16e:	00fbf793          	andi	a5,s7,15
   1a172:	1cfd                	addi	s9,s9,-1
   1a174:	97b2                	add	a5,a5,a2
   1a176:	0007c783          	lbu	a5,0(a5)
   1a17a:	004bdb93          	srli	s7,s7,0x4
   1a17e:	00fc8023          	sb	a5,0(s9)
   1a182:	fe0b95e3          	bnez	s7,1a16c <_svfiprintf_r+0x458>
   1a186:	bb45                	j	19f36 <_svfiprintf_r+0x222>
   1a188:	1090                	addi	a2,sp,96
   1a18a:	85ce                	mv	a1,s3
   1a18c:	8556                	mv	a0,s5
   1a18e:	a29ff0ef          	jal	ra,19bb6 <__ssprint_r>
   1a192:	e80519e3          	bnez	a0,1a024 <_svfiprintf_r+0x310>
   1a196:	8752                	mv	a4,s4
   1a198:	b929                	j	19db2 <_svfiprintf_r+0x9e>
   1a19a:	4641                	li	a2,16
   1a19c:	04d65a63          	bge	a2,a3,1a1f0 <_svfiprintf_r+0x4dc>
   1a1a0:	4fc1                	li	t6,16
   1a1a2:	429d                	li	t0,7
   1a1a4:	a021                	j	1a1ac <_svfiprintf_r+0x498>
   1a1a6:	36c1                	addiw	a3,a3,-16
   1a1a8:	04dfd463          	bge	t6,a3,1a1f0 <_svfiprintf_r+0x4dc>
   1a1ac:	2585                	addiw	a1,a1,1
   1a1ae:	07c1                	addi	a5,a5,16
   1a1b0:	01673023          	sd	s6,0(a4)
   1a1b4:	01f73423          	sd	t6,8(a4)
   1a1b8:	f8be                	sd	a5,112(sp)
   1a1ba:	d4ae                	sw	a1,104(sp)
   1a1bc:	0741                	addi	a4,a4,16
   1a1be:	feb2d4e3          	bge	t0,a1,1a1a6 <_svfiprintf_r+0x492>
   1a1c2:	1090                	addi	a2,sp,96
   1a1c4:	85ce                	mv	a1,s3
   1a1c6:	8556                	mv	a0,s5
   1a1c8:	f836                	sd	a3,48(sp)
   1a1ca:	f41a                	sd	t1,40(sp)
   1a1cc:	f076                	sd	t4,32(sp)
   1a1ce:	e47a                	sd	t5,8(sp)
   1a1d0:	9e7ff0ef          	jal	ra,19bb6 <__ssprint_r>
   1a1d4:	e40518e3          	bnez	a0,1a024 <_svfiprintf_r+0x310>
   1a1d8:	76c2                	ld	a3,48(sp)
   1a1da:	4fc1                	li	t6,16
   1a1dc:	77c6                	ld	a5,112(sp)
   1a1de:	36c1                	addiw	a3,a3,-16
   1a1e0:	55a6                	lw	a1,104(sp)
   1a1e2:	7322                	ld	t1,40(sp)
   1a1e4:	7e82                	ld	t4,32(sp)
   1a1e6:	6f22                	ld	t5,8(sp)
   1a1e8:	8752                	mv	a4,s4
   1a1ea:	429d                	li	t0,7
   1a1ec:	fcdfc0e3          	blt	t6,a3,1a1ac <_svfiprintf_r+0x498>
   1a1f0:	97b6                	add	a5,a5,a3
   1a1f2:	2585                	addiw	a1,a1,1
   1a1f4:	e714                	sd	a3,8(a4)
   1a1f6:	01673023          	sd	s6,0(a4)
   1a1fa:	f8be                	sd	a5,112(sp)
   1a1fc:	d4ae                	sw	a1,104(sp)
   1a1fe:	469d                	li	a3,7
   1a200:	0741                	addi	a4,a4,16
   1a202:	d6b6d8e3          	bge	a3,a1,19f72 <_svfiprintf_r+0x25e>
   1a206:	1090                	addi	a2,sp,96
   1a208:	85ce                	mv	a1,s3
   1a20a:	8556                	mv	a0,s5
   1a20c:	f41a                	sd	t1,40(sp)
   1a20e:	f076                	sd	t4,32(sp)
   1a210:	e47a                	sd	t5,8(sp)
   1a212:	9a5ff0ef          	jal	ra,19bb6 <__ssprint_r>
   1a216:	e00517e3          	bnez	a0,1a024 <_svfiprintf_r+0x310>
   1a21a:	77c6                	ld	a5,112(sp)
   1a21c:	55a6                	lw	a1,104(sp)
   1a21e:	7322                	ld	t1,40(sp)
   1a220:	7e82                	ld	t4,32(sp)
   1a222:	6f22                	ld	t5,8(sp)
   1a224:	8752                	mv	a4,s4
   1a226:	b3b1                	j	19f72 <_svfiprintf_r+0x25e>
   1a228:	1090                	addi	a2,sp,96
   1a22a:	85ce                	mv	a1,s3
   1a22c:	8556                	mv	a0,s5
   1a22e:	f41a                	sd	t1,40(sp)
   1a230:	f076                	sd	t4,32(sp)
   1a232:	e47a                	sd	t5,8(sp)
   1a234:	983ff0ef          	jal	ra,19bb6 <__ssprint_r>
   1a238:	de0516e3          	bnez	a0,1a024 <_svfiprintf_r+0x310>
   1a23c:	55a6                	lw	a1,104(sp)
   1a23e:	77c6                	ld	a5,112(sp)
   1a240:	7322                	ld	t1,40(sp)
   1a242:	7e82                	ld	t4,32(sp)
   1a244:	6f22                	ld	t5,8(sp)
   1a246:	1990                	addi	a2,sp,240
   1a248:	0015851b          	addiw	a0,a1,1
   1a24c:	8752                	mv	a4,s4
   1a24e:	bbb9                	j	19fac <_svfiprintf_r+0x298>
   1a250:	1090                	addi	a2,sp,96
   1a252:	85ce                	mv	a1,s3
   1a254:	8556                	mv	a0,s5
   1a256:	f01a                	sd	t1,32(sp)
   1a258:	e476                	sd	t4,8(sp)
   1a25a:	95dff0ef          	jal	ra,19bb6 <__ssprint_r>
   1a25e:	dc0513e3          	bnez	a0,1a024 <_svfiprintf_r+0x310>
   1a262:	55a6                	lw	a1,104(sp)
   1a264:	77c6                	ld	a5,112(sp)
   1a266:	7302                	ld	t1,32(sp)
   1a268:	6ea2                	ld	t4,8(sp)
   1a26a:	1990                	addi	a2,sp,240
   1a26c:	0015851b          	addiw	a0,a1,1
   1a270:	8752                	mv	a4,s4
   1a272:	bba9                	j	19fcc <_svfiprintf_r+0x2b8>
   1a274:	46c1                	li	a3,16
   1a276:	5726                	lw	a4,104(sp)
   1a278:	0526d063          	bge	a3,s2,1a2b8 <_svfiprintf_r+0x5a4>
   1a27c:	4dc1                	li	s11,16
   1a27e:	4c9d                	li	s9,7
   1a280:	a021                	j	1a288 <_svfiprintf_r+0x574>
   1a282:	3941                	addiw	s2,s2,-16
   1a284:	032dda63          	bge	s11,s2,1a2b8 <_svfiprintf_r+0x5a4>
   1a288:	2705                	addiw	a4,a4,1
   1a28a:	07c1                	addi	a5,a5,16
   1a28c:	01663023          	sd	s6,0(a2)
   1a290:	01b63423          	sd	s11,8(a2)
   1a294:	f8be                	sd	a5,112(sp)
   1a296:	d4ba                	sw	a4,104(sp)
   1a298:	0641                	addi	a2,a2,16
   1a29a:	feecd4e3          	bge	s9,a4,1a282 <_svfiprintf_r+0x56e>
   1a29e:	1090                	addi	a2,sp,96
   1a2a0:	85ce                	mv	a1,s3
   1a2a2:	8556                	mv	a0,s5
   1a2a4:	913ff0ef          	jal	ra,19bb6 <__ssprint_r>
   1a2a8:	d6051ee3          	bnez	a0,1a024 <_svfiprintf_r+0x310>
   1a2ac:	3941                	addiw	s2,s2,-16
   1a2ae:	77c6                	ld	a5,112(sp)
   1a2b0:	5726                	lw	a4,104(sp)
   1a2b2:	8652                	mv	a2,s4
   1a2b4:	fd2dcae3          	blt	s11,s2,1a288 <_svfiprintf_r+0x574>
   1a2b8:	0017069b          	addiw	a3,a4,1
   1a2bc:	97ca                	add	a5,a5,s2
   1a2be:	01663023          	sd	s6,0(a2)
   1a2c2:	01263423          	sd	s2,8(a2)
   1a2c6:	f8be                	sd	a5,112(sp)
   1a2c8:	d4b6                	sw	a3,104(sp)
   1a2ca:	471d                	li	a4,7
   1a2cc:	d2d75ae3          	bge	a4,a3,1a000 <_svfiprintf_r+0x2ec>
   1a2d0:	1090                	addi	a2,sp,96
   1a2d2:	85ce                	mv	a1,s3
   1a2d4:	8556                	mv	a0,s5
   1a2d6:	8e1ff0ef          	jal	ra,19bb6 <__ssprint_r>
   1a2da:	d40515e3          	bnez	a0,1a024 <_svfiprintf_r+0x310>
   1a2de:	77c6                	ld	a5,112(sp)
   1a2e0:	b305                	j	1a000 <_svfiprintf_r+0x2ec>
   1a2e2:	ba0312e3          	bnez	t1,19e86 <_svfiprintf_r+0x172>
   1a2e6:	8db6                	mv	s11,a3
   1a2e8:	4301                	li	t1,0
   1a2ea:	4901                	li	s2,0
   1a2ec:	0dc10c93          	addi	s9,sp,220
   1a2f0:	b1b1                	j	19f3c <_svfiprintf_r+0x228>
   1a2f2:	03000593          	li	a1,48
   1a2f6:	c4b780e3          	beq	a5,a1,19f36 <_svfiprintf_r+0x222>
   1a2fa:	1679                	addi	a2,a2,-2
   1a2fc:	febc8fa3          	sb	a1,-1(s9)
   1a300:	40c9093b          	subw	s2,s2,a2
   1a304:	8db6                	mv	s11,a3
   1a306:	8cb2                	mv	s9,a2
   1a308:	b915                	j	19f3c <_svfiprintf_r+0x228>
   1a30a:	010df793          	andi	a5,s11,16
   1a30e:	b8079fe3          	bnez	a5,19eac <_svfiprintf_r+0x198>
   1a312:	040df793          	andi	a5,s11,64
   1a316:	000c2b83          	lw	s7,0(s8)
   1a31a:	40078563          	beqz	a5,1a724 <_svfiprintf_r+0xa10>
   1a31e:	1bc2                	slli	s7,s7,0x30
   1a320:	030bdb93          	srli	s7,s7,0x30
   1a324:	b671                	j	19eb0 <_svfiprintf_r+0x19c>
   1a326:	010df793          	andi	a5,s11,16
   1a32a:	b2079ce3          	bnez	a5,19e62 <_svfiprintf_r+0x14e>
   1a32e:	040df793          	andi	a5,s11,64
   1a332:	3c078a63          	beqz	a5,1a706 <_svfiprintf_r+0x9f2>
   1a336:	000c1b83          	lh	s7,0(s8)
   1a33a:	87de                	mv	a5,s7
   1a33c:	b207d8e3          	bgez	a5,19e6c <_svfiprintf_r+0x158>
   1a340:	02d00793          	li	a5,45
   1a344:	04f10ba3          	sb	a5,87(sp)
   1a348:	41700bb3          	neg	s7,s7
   1a34c:	8c32                	mv	s8,a2
   1a34e:	86ee                	mv	a3,s11
   1a350:	4785                	li	a5,1
   1a352:	b6bd                	j	19ec0 <_svfiprintf_r+0x1ac>
   1a354:	000c3c83          	ld	s9,0(s8)
   1a358:	04010ba3          	sb	zero,87(sp)
   1a35c:	0c21                	addi	s8,s8,8
   1a35e:	360c8f63          	beqz	s9,1a6dc <_svfiprintf_r+0x9c8>
   1a362:	57fd                	li	a5,-1
   1a364:	2ef30963          	beq	t1,a5,1a656 <_svfiprintf_r+0x942>
   1a368:	861a                	mv	a2,t1
   1a36a:	4581                	li	a1,0
   1a36c:	8566                	mv	a0,s9
   1a36e:	f03a                	sd	a4,32(sp)
   1a370:	e41a                	sd	t1,8(sp)
   1a372:	8f8fb0ef          	jal	ra,1546a <memchr>
   1a376:	6322                	ld	t1,8(sp)
   1a378:	7702                	ld	a4,32(sp)
   1a37a:	3e050f63          	beqz	a0,1a778 <_svfiprintf_r+0xa64>
   1a37e:	4195093b          	subw	s2,a0,s9
   1a382:	4301                	li	t1,0
   1a384:	be65                	j	19f3c <_svfiprintf_r+0x228>
   1a386:	000c2783          	lw	a5,0(s8)
   1a38a:	04010ba3          	sb	zero,87(sp)
   1a38e:	0c21                	addi	s8,s8,8
   1a390:	06f10c23          	sb	a5,120(sp)
   1a394:	4b85                	li	s7,1
   1a396:	4905                	li	s2,1
   1a398:	07810c93          	addi	s9,sp,120
   1a39c:	4301                	li	t1,0
   1a39e:	be55                	j	19f52 <_svfiprintf_r+0x23e>
   1a3a0:	020de893          	ori	a7,s11,32
   1a3a4:	000d4683          	lbu	a3,0(s10)
   1a3a8:	00088d9b          	sext.w	s11,a7
   1a3ac:	b435                	j	19dd8 <_svfiprintf_r+0xc4>
   1a3ae:	77e1                	lui	a5,0xffff8
   1a3b0:	002de693          	ori	a3,s11,2
   1a3b4:	8307c793          	xori	a5,a5,-2000
   1a3b8:	6df1                	lui	s11,0x1c
   1a3ba:	04f11c23          	sh	a5,88(sp)
   1a3be:	120d8793          	addi	a5,s11,288 # 1c120 <__clzdi2+0x12e>
   1a3c2:	000c3b83          	ld	s7,0(s8)
   1a3c6:	e83e                	sd	a5,16(sp)
   1a3c8:	2681                	sext.w	a3,a3
   1a3ca:	0c21                	addi	s8,s8,8
   1a3cc:	4789                	li	a5,2
   1a3ce:	b4fd                	j	19ebc <_svfiprintf_r+0x1a8>
   1a3d0:	020df793          	andi	a5,s11,32
   1a3d4:	000c3683          	ld	a3,0(s8)
   1a3d8:	0c21                	addi	s8,s8,8
   1a3da:	e385                	bnez	a5,1a3fa <_svfiprintf_r+0x6e6>
   1a3dc:	010df793          	andi	a5,s11,16
   1a3e0:	ef89                	bnez	a5,1a3fa <_svfiprintf_r+0x6e6>
   1a3e2:	040df793          	andi	a5,s11,64
   1a3e6:	36079e63          	bnez	a5,1a762 <_svfiprintf_r+0xa4e>
   1a3ea:	200df893          	andi	a7,s11,512
   1a3ee:	6782                	ld	a5,0(sp)
   1a3f0:	38088e63          	beqz	a7,1a78c <_svfiprintf_r+0xa78>
   1a3f4:	00f68023          	sb	a5,0(a3)
   1a3f8:	baad                	j	19d72 <_svfiprintf_r+0x5e>
   1a3fa:	6782                	ld	a5,0(sp)
   1a3fc:	e29c                	sd	a5,0(a3)
   1a3fe:	ba95                	j	19d72 <_svfiprintf_r+0x5e>
   1a400:	000d4683          	lbu	a3,0(s10)
   1a404:	06c00793          	li	a5,108
   1a408:	2cf68163          	beq	a3,a5,1a6ca <_svfiprintf_r+0x9b6>
   1a40c:	010de893          	ori	a7,s11,16
   1a410:	00088d9b          	sext.w	s11,a7
   1a414:	b2d1                	j	19dd8 <_svfiprintf_r+0xc4>
   1a416:	000d4683          	lbu	a3,0(s10)
   1a41a:	06800793          	li	a5,104
   1a41e:	28f68d63          	beq	a3,a5,1a6b8 <_svfiprintf_r+0x9a4>
   1a422:	040de893          	ori	a7,s11,64
   1a426:	00088d9b          	sext.w	s11,a7
   1a42a:	b27d                	j	19dd8 <_svfiprintf_r+0xc4>
   1a42c:	010de693          	ori	a3,s11,16
   1a430:	2681                	sext.w	a3,a3
   1a432:	0206f793          	andi	a5,a3,32
   1a436:	008c0613          	addi	a2,s8,8
   1a43a:	e385                	bnez	a5,1a45a <_svfiprintf_r+0x746>
   1a43c:	0106f793          	andi	a5,a3,16
   1a440:	ef89                	bnez	a5,1a45a <_svfiprintf_r+0x746>
   1a442:	0406f793          	andi	a5,a3,64
   1a446:	000c2b83          	lw	s7,0(s8)
   1a44a:	2a078563          	beqz	a5,1a6f4 <_svfiprintf_r+0x9e0>
   1a44e:	1bc2                	slli	s7,s7,0x30
   1a450:	030bdb93          	srli	s7,s7,0x30
   1a454:	8c32                	mv	s8,a2
   1a456:	4785                	li	a5,1
   1a458:	b495                	j	19ebc <_svfiprintf_r+0x1a8>
   1a45a:	000c3b83          	ld	s7,0(s8)
   1a45e:	4785                	li	a5,1
   1a460:	8c32                	mv	s8,a2
   1a462:	bca9                	j	19ebc <_svfiprintf_r+0x1a8>
   1a464:	080de893          	ori	a7,s11,128
   1a468:	000d4683          	lbu	a3,0(s10)
   1a46c:	00088d9b          	sext.w	s11,a7
   1a470:	b2a5                	j	19dd8 <_svfiprintf_r+0xc4>
   1a472:	000d4683          	lbu	a3,0(s10)
   1a476:	001d0793          	addi	a5,s10,1
   1a47a:	30b68f63          	beq	a3,a1,1a798 <_svfiprintf_r+0xa84>
   1a47e:	fd06861b          	addiw	a2,a3,-48
   1a482:	8d3e                	mv	s10,a5
   1a484:	4301                	li	t1,0
   1a486:	94cbede3          	bltu	s7,a2,19de0 <_svfiprintf_r+0xcc>
   1a48a:	000d4683          	lbu	a3,0(s10)
   1a48e:	0023179b          	slliw	a5,t1,0x2
   1a492:	0067833b          	addw	t1,a5,t1
   1a496:	0013131b          	slliw	t1,t1,0x1
   1a49a:	00c3033b          	addw	t1,t1,a2
   1a49e:	fd06861b          	addiw	a2,a3,-48
   1a4a2:	0d05                	addi	s10,s10,1
   1a4a4:	fecbf3e3          	bgeu	s7,a2,1a48a <_svfiprintf_r+0x776>
   1a4a8:	ba25                	j	19de0 <_svfiprintf_r+0xcc>
   1a4aa:	000d4683          	lbu	a3,0(s10)
   1a4ae:	004de893          	ori	a7,s11,4
   1a4b2:	00088d9b          	sext.w	s11,a7
   1a4b6:	b20d                	j	19dd8 <_svfiprintf_r+0xc4>
   1a4b8:	02b00793          	li	a5,43
   1a4bc:	000d4683          	lbu	a3,0(s10)
   1a4c0:	04f10ba3          	sb	a5,87(sp)
   1a4c4:	ba11                	j	19dd8 <_svfiprintf_r+0xc4>
   1a4c6:	000c2403          	lw	s0,0(s8)
   1a4ca:	000d4683          	lbu	a3,0(s10)
   1a4ce:	0c21                	addi	s8,s8,8
   1a4d0:	900454e3          	bgez	s0,19dd8 <_svfiprintf_r+0xc4>
   1a4d4:	4080043b          	negw	s0,s0
   1a4d8:	bfd9                	j	1a4ae <_svfiprintf_r+0x79a>
   1a4da:	8556                	mv	a0,s5
   1a4dc:	f03a                	sd	a4,32(sp)
   1a4de:	e41a                	sd	t1,8(sp)
   1a4e0:	f84fa0ef          	jal	ra,14c64 <_localeconv_r>
   1a4e4:	651c                	ld	a5,8(a0)
   1a4e6:	853e                	mv	a0,a5
   1a4e8:	e0be                	sd	a5,64(sp)
   1a4ea:	f2dfb0ef          	jal	ra,16416 <strlen>
   1a4ee:	87aa                	mv	a5,a0
   1a4f0:	8556                	mv	a0,s5
   1a4f2:	8cbe                	mv	s9,a5
   1a4f4:	e4be                	sd	a5,72(sp)
   1a4f6:	f6efa0ef          	jal	ra,14c64 <_localeconv_r>
   1a4fa:	6910                	ld	a2,16(a0)
   1a4fc:	6322                	ld	t1,8(sp)
   1a4fe:	7702                	ld	a4,32(sp)
   1a500:	fc32                	sd	a2,56(sp)
   1a502:	000d4683          	lbu	a3,0(s10)
   1a506:	8c0c89e3          	beqz	s9,19dd8 <_svfiprintf_r+0xc4>
   1a50a:	8c0607e3          	beqz	a2,19dd8 <_svfiprintf_r+0xc4>
   1a50e:	00064783          	lbu	a5,0(a2)
   1a512:	8c0783e3          	beqz	a5,19dd8 <_svfiprintf_r+0xc4>
   1a516:	400de893          	ori	a7,s11,1024
   1a51a:	00088d9b          	sext.w	s11,a7
   1a51e:	b86d                	j	19dd8 <_svfiprintf_r+0xc4>
   1a520:	001de893          	ori	a7,s11,1
   1a524:	000d4683          	lbu	a3,0(s10)
   1a528:	00088d9b          	sext.w	s11,a7
   1a52c:	b075                	j	19dd8 <_svfiprintf_r+0xc4>
   1a52e:	05714783          	lbu	a5,87(sp)
   1a532:	000d4683          	lbu	a3,0(s10)
   1a536:	8a0791e3          	bnez	a5,19dd8 <_svfiprintf_r+0xc4>
   1a53a:	02000793          	li	a5,32
   1a53e:	04f10ba3          	sb	a5,87(sp)
   1a542:	b859                	j	19dd8 <_svfiprintf_r+0xc4>
   1a544:	1090                	addi	a2,sp,96
   1a546:	85ce                	mv	a1,s3
   1a548:	8556                	mv	a0,s5
   1a54a:	e6cff0ef          	jal	ra,19bb6 <__ssprint_r>
   1a54e:	ac051be3          	bnez	a0,1a024 <_svfiprintf_r+0x310>
   1a552:	5526                	lw	a0,104(sp)
   1a554:	77c6                	ld	a5,112(sp)
   1a556:	1990                	addi	a2,sp,240
   1a558:	2505                	addiw	a0,a0,1
   1a55a:	8752                	mv	a4,s4
   1a55c:	b441                	j	19fdc <_svfiprintf_r+0x2c8>
   1a55e:	4006fe93          	andi	t4,a3,1024
   1a562:	0dc10913          	addi	s2,sp,220
   1a566:	2e81                	sext.w	t4,t4
   1a568:	4581                	li	a1,0
   1a56a:	864a                	mv	a2,s2
   1a56c:	48a9                	li	a7,10
   1a56e:	4f25                	li	t5,9
   1a570:	0ff00d93          	li	s11,255
   1a574:	a039                	j	1a582 <_svfiprintf_r+0x86e>
   1a576:	031bd7b3          	divu	a5,s7,a7
   1a57a:	9b7f7ee3          	bgeu	t5,s7,19f36 <_svfiprintf_r+0x222>
   1a57e:	8bbe                	mv	s7,a5
   1a580:	8666                	mv	a2,s9
   1a582:	fff60c93          	addi	s9,a2,-1
   1a586:	2585                	addiw	a1,a1,1
   1a588:	031bf7b3          	remu	a5,s7,a7
   1a58c:	0307879b          	addiw	a5,a5,48
   1a590:	fef60fa3          	sb	a5,-1(a2)
   1a594:	fe0e81e3          	beqz	t4,1a576 <_svfiprintf_r+0x862>
   1a598:	77e2                	ld	a5,56(sp)
   1a59a:	0007c783          	lbu	a5,0(a5) # ffffffffffff8000 <__BSS_END__+0xfffffffffffd9010>
   1a59e:	fcb79ce3          	bne	a5,a1,1a576 <_svfiprintf_r+0x862>
   1a5a2:	fdb78ae3          	beq	a5,s11,1a576 <_svfiprintf_r+0x862>
   1a5a6:	997f78e3          	bgeu	t5,s7,19f36 <_svfiprintf_r+0x222>
   1a5aa:	67a6                	ld	a5,72(sp)
   1a5ac:	6586                	ld	a1,64(sp)
   1a5ae:	f876                	sd	t4,48(sp)
   1a5b0:	40fc8cb3          	sub	s9,s9,a5
   1a5b4:	863e                	mv	a2,a5
   1a5b6:	8566                	mv	a0,s9
   1a5b8:	f43a                	sd	a4,40(sp)
   1a5ba:	f01a                	sd	t1,32(sp)
   1a5bc:	e436                	sd	a3,8(sp)
   1a5be:	ee9fb0ef          	jal	ra,164a6 <strncpy>
   1a5c2:	7762                	ld	a4,56(sp)
   1a5c4:	48a9                	li	a7,10
   1a5c6:	031bd7b3          	divu	a5,s7,a7
   1a5ca:	00174603          	lbu	a2,1(a4)
   1a5ce:	66a2                	ld	a3,8(sp)
   1a5d0:	7302                	ld	t1,32(sp)
   1a5d2:	00c03633          	snez	a2,a2
   1a5d6:	9732                	add	a4,a4,a2
   1a5d8:	fc3a                	sd	a4,56(sp)
   1a5da:	7ec2                	ld	t4,48(sp)
   1a5dc:	7722                	ld	a4,40(sp)
   1a5de:	4581                	li	a1,0
   1a5e0:	4f25                	li	t5,9
   1a5e2:	bf71                	j	1a57e <_svfiprintf_r+0x86a>
   1a5e4:	86ee                	mv	a3,s11
   1a5e6:	b5b1                	j	1a432 <_svfiprintf_r+0x71e>
   1a5e8:	67f1                	lui	a5,0x1c
   1a5ea:	10878793          	addi	a5,a5,264 # 1c108 <__clzdi2+0x116>
   1a5ee:	e83e                	sd	a5,16(sp)
   1a5f0:	020df793          	andi	a5,s11,32
   1a5f4:	008c0613          	addi	a2,s8,8
   1a5f8:	efa1                	bnez	a5,1a650 <_svfiprintf_r+0x93c>
   1a5fa:	010df793          	andi	a5,s11,16
   1a5fe:	eba9                	bnez	a5,1a650 <_svfiprintf_r+0x93c>
   1a600:	040df793          	andi	a5,s11,64
   1a604:	000c2b83          	lw	s7,0(s8)
   1a608:	10078863          	beqz	a5,1a718 <_svfiprintf_r+0xa04>
   1a60c:	1bc2                	slli	s7,s7,0x30
   1a60e:	030bdb93          	srli	s7,s7,0x30
   1a612:	001df793          	andi	a5,s11,1
   1a616:	cf89                	beqz	a5,1a630 <_svfiprintf_r+0x91c>
   1a618:	000b8c63          	beqz	s7,1a630 <_svfiprintf_r+0x91c>
   1a61c:	002de893          	ori	a7,s11,2
   1a620:	03000793          	li	a5,48
   1a624:	04f10c23          	sb	a5,88(sp)
   1a628:	04d10ca3          	sb	a3,89(sp)
   1a62c:	00088d9b          	sext.w	s11,a7
   1a630:	bffdf893          	andi	a7,s11,-1025
   1a634:	0008869b          	sext.w	a3,a7
   1a638:	8c32                	mv	s8,a2
   1a63a:	4789                	li	a5,2
   1a63c:	b041                	j	19ebc <_svfiprintf_r+0x1a8>
   1a63e:	67f1                	lui	a5,0x1c
   1a640:	12078793          	addi	a5,a5,288 # 1c120 <__clzdi2+0x12e>
   1a644:	e83e                	sd	a5,16(sp)
   1a646:	020df793          	andi	a5,s11,32
   1a64a:	008c0613          	addi	a2,s8,8
   1a64e:	d7d5                	beqz	a5,1a5fa <_svfiprintf_r+0x8e6>
   1a650:	000c3b83          	ld	s7,0(s8)
   1a654:	bf7d                	j	1a612 <_svfiprintf_r+0x8fe>
   1a656:	8566                	mv	a0,s9
   1a658:	e43a                	sd	a4,8(sp)
   1a65a:	dbdfb0ef          	jal	ra,16416 <strlen>
   1a65e:	6722                	ld	a4,8(sp)
   1a660:	0005091b          	sext.w	s2,a0
   1a664:	4301                	li	t1,0
   1a666:	b8d9                	j	19f3c <_svfiprintf_r+0x228>
   1a668:	04000593          	li	a1,64
   1a66c:	f9efa0ef          	jal	ra,14e0a <_malloc_r>
   1a670:	00a9b023          	sd	a0,0(s3)
   1a674:	00a9bc23          	sd	a0,24(s3)
   1a678:	12050d63          	beqz	a0,1a7b2 <_svfiprintf_r+0xa9e>
   1a67c:	04000793          	li	a5,64
   1a680:	02f9a023          	sw	a5,32(s3)
   1a684:	ec4ff06f          	j	19d48 <_svfiprintf_r+0x34>
   1a688:	4685                	li	a3,1
   1a68a:	0ed78b63          	beq	a5,a3,1a780 <_svfiprintf_r+0xa6c>
   1a68e:	4689                	li	a3,2
   1a690:	acd78ae3          	beq	a5,a3,1a164 <_svfiprintf_r+0x450>
   1a694:	86ee                	mv	a3,s11
   1a696:	b8ad                	j	19f10 <_svfiprintf_r+0x1fc>
   1a698:	1090                	addi	a2,sp,96
   1a69a:	85ce                	mv	a1,s3
   1a69c:	8556                	mv	a0,s5
   1a69e:	e41a                	sd	t1,8(sp)
   1a6a0:	d16ff0ef          	jal	ra,19bb6 <__ssprint_r>
   1a6a4:	980510e3          	bnez	a0,1a024 <_svfiprintf_r+0x310>
   1a6a8:	55a6                	lw	a1,104(sp)
   1a6aa:	77c6                	ld	a5,112(sp)
   1a6ac:	6322                	ld	t1,8(sp)
   1a6ae:	1990                	addi	a2,sp,240
   1a6b0:	0015851b          	addiw	a0,a1,1
   1a6b4:	8752                	mv	a4,s4
   1a6b6:	ba39                	j	19fd4 <_svfiprintf_r+0x2c0>
   1a6b8:	200de893          	ori	a7,s11,512
   1a6bc:	001d4683          	lbu	a3,1(s10)
   1a6c0:	00088d9b          	sext.w	s11,a7
   1a6c4:	0d05                	addi	s10,s10,1
   1a6c6:	f12ff06f          	j	19dd8 <_svfiprintf_r+0xc4>
   1a6ca:	020de893          	ori	a7,s11,32
   1a6ce:	001d4683          	lbu	a3,1(s10)
   1a6d2:	00088d9b          	sext.w	s11,a7
   1a6d6:	0d05                	addi	s10,s10,1
   1a6d8:	f00ff06f          	j	19dd8 <_svfiprintf_r+0xc4>
   1a6dc:	4799                	li	a5,6
   1a6de:	0003091b          	sext.w	s2,t1
   1a6e2:	0067f363          	bgeu	a5,t1,1a6e8 <_svfiprintf_r+0x9d4>
   1a6e6:	4919                	li	s2,6
   1a6e8:	6e71                	lui	t3,0x1c
   1a6ea:	8bca                	mv	s7,s2
   1a6ec:	138e0c93          	addi	s9,t3,312 # 1c138 <__clzdi2+0x146>
   1a6f0:	4301                	li	t1,0
   1a6f2:	b085                	j	19f52 <_svfiprintf_r+0x23e>
   1a6f4:	2006f793          	andi	a5,a3,512
   1a6f8:	cfb1                	beqz	a5,1a754 <_svfiprintf_r+0xa40>
   1a6fa:	0ffbfb93          	andi	s7,s7,255
   1a6fe:	8c32                	mv	s8,a2
   1a700:	4785                	li	a5,1
   1a702:	fbaff06f          	j	19ebc <_svfiprintf_r+0x1a8>
   1a706:	200df793          	andi	a5,s11,512
   1a70a:	cf9d                	beqz	a5,1a748 <_svfiprintf_r+0xa34>
   1a70c:	000c0b83          	lb	s7,0(s8)
   1a710:	87de                	mv	a5,s7
   1a712:	f407dd63          	bgez	a5,19e6c <_svfiprintf_r+0x158>
   1a716:	b12d                	j	1a340 <_svfiprintf_r+0x62c>
   1a718:	200df793          	andi	a5,s11,512
   1a71c:	c395                	beqz	a5,1a740 <_svfiprintf_r+0xa2c>
   1a71e:	0ffbfb93          	andi	s7,s7,255
   1a722:	bdc5                	j	1a612 <_svfiprintf_r+0x8fe>
   1a724:	200df793          	andi	a5,s11,512
   1a728:	c799                	beqz	a5,1a736 <_svfiprintf_r+0xa22>
   1a72a:	0ffbfb93          	andi	s7,s7,255
   1a72e:	f82ff06f          	j	19eb0 <_svfiprintf_r+0x19c>
   1a732:	85b2                	mv	a1,a2
   1a734:	b2c5                	j	1a114 <_svfiprintf_r+0x400>
   1a736:	1b82                	slli	s7,s7,0x20
   1a738:	020bdb93          	srli	s7,s7,0x20
   1a73c:	f74ff06f          	j	19eb0 <_svfiprintf_r+0x19c>
   1a740:	1b82                	slli	s7,s7,0x20
   1a742:	020bdb93          	srli	s7,s7,0x20
   1a746:	b5f1                	j	1a612 <_svfiprintf_r+0x8fe>
   1a748:	000c2b83          	lw	s7,0(s8)
   1a74c:	87de                	mv	a5,s7
   1a74e:	f007df63          	bgez	a5,19e6c <_svfiprintf_r+0x158>
   1a752:	b6fd                	j	1a340 <_svfiprintf_r+0x62c>
   1a754:	1b82                	slli	s7,s7,0x20
   1a756:	020bdb93          	srli	s7,s7,0x20
   1a75a:	8c32                	mv	s8,a2
   1a75c:	4785                	li	a5,1
   1a75e:	f5eff06f          	j	19ebc <_svfiprintf_r+0x1a8>
   1a762:	6782                	ld	a5,0(sp)
   1a764:	00f69023          	sh	a5,0(a3)
   1a768:	e0aff06f          	j	19d72 <_svfiprintf_r+0x5e>
   1a76c:	1090                	addi	a2,sp,96
   1a76e:	85ce                	mv	a1,s3
   1a770:	8556                	mv	a0,s5
   1a772:	c44ff0ef          	jal	ra,19bb6 <__ssprint_r>
   1a776:	b07d                	j	1a024 <_svfiprintf_r+0x310>
   1a778:	891a                	mv	s2,t1
   1a77a:	4301                	li	t1,0
   1a77c:	fc0ff06f          	j	19f3c <_svfiprintf_r+0x228>
   1a780:	86ee                	mv	a3,s11
   1a782:	f04ff06f          	j	19e86 <_svfiprintf_r+0x172>
   1a786:	8eb2                	mv	t4,a2
   1a788:	85aa                	mv	a1,a0
   1a78a:	ba31                	j	1a0a6 <_svfiprintf_r+0x392>
   1a78c:	c29c                	sw	a5,0(a3)
   1a78e:	de4ff06f          	j	19d72 <_svfiprintf_r+0x5e>
   1a792:	57fd                	li	a5,-1
   1a794:	e03e                	sd	a5,0(sp)
   1a796:	b869                	j	1a030 <_svfiprintf_r+0x31c>
   1a798:	000c2683          	lw	a3,0(s8)
   1a79c:	0c21                	addi	s8,s8,8
   1a79e:	0006831b          	sext.w	t1,a3
   1a7a2:	0006d363          	bgez	a3,1a7a8 <_svfiprintf_r+0xa94>
   1a7a6:	537d                	li	t1,-1
   1a7a8:	001d4683          	lbu	a3,1(s10)
   1a7ac:	8d3e                	mv	s10,a5
   1a7ae:	e2aff06f          	j	19dd8 <_svfiprintf_r+0xc4>
   1a7b2:	47b1                	li	a5,12
   1a7b4:	00faa023          	sw	a5,0(s5)
   1a7b8:	57fd                	li	a5,-1
   1a7ba:	e03e                	sd	a5,0(sp)
   1a7bc:	b895                	j	1a030 <_svfiprintf_r+0x31c>

000000000001a7be <__swbuf_r>:
   1a7be:	7179                	addi	sp,sp,-48
   1a7c0:	f022                	sd	s0,32(sp)
   1a7c2:	ec26                	sd	s1,24(sp)
   1a7c4:	e84a                	sd	s2,16(sp)
   1a7c6:	f406                	sd	ra,40(sp)
   1a7c8:	e44e                	sd	s3,8(sp)
   1a7ca:	892a                	mv	s2,a0
   1a7cc:	84ae                	mv	s1,a1
   1a7ce:	8432                	mv	s0,a2
   1a7d0:	c119                	beqz	a0,1a7d6 <__swbuf_r+0x18>
   1a7d2:	493c                	lw	a5,80(a0)
   1a7d4:	c3ed                	beqz	a5,1a8b6 <__swbuf_r+0xf8>
   1a7d6:	01041703          	lh	a4,16(s0)
   1a7da:	5414                	lw	a3,40(s0)
   1a7dc:	00877793          	andi	a5,a4,8
   1a7e0:	c454                	sw	a3,12(s0)
   1a7e2:	03071693          	slli	a3,a4,0x30
   1a7e6:	92c1                	srli	a3,a3,0x30
   1a7e8:	cbb9                	beqz	a5,1a83e <__swbuf_r+0x80>
   1a7ea:	6c1c                	ld	a5,24(s0)
   1a7ec:	cba9                	beqz	a5,1a83e <__swbuf_r+0x80>
   1a7ee:	0ff4f993          	andi	s3,s1,255
   1a7f2:	03269613          	slli	a2,a3,0x32
   1a7f6:	84ce                	mv	s1,s3
   1a7f8:	06065563          	bgez	a2,1a862 <__swbuf_r+0xa4>
   1a7fc:	6018                	ld	a4,0(s0)
   1a7fe:	5014                	lw	a3,32(s0)
   1a800:	40f707bb          	subw	a5,a4,a5
   1a804:	08d7d063          	bge	a5,a3,1a884 <__swbuf_r+0xc6>
   1a808:	4454                	lw	a3,12(s0)
   1a80a:	00170613          	addi	a2,a4,1
   1a80e:	e010                	sd	a2,0(s0)
   1a810:	36fd                	addiw	a3,a3,-1
   1a812:	c454                	sw	a3,12(s0)
   1a814:	01370023          	sb	s3,0(a4)
   1a818:	5018                	lw	a4,32(s0)
   1a81a:	2785                	addiw	a5,a5,1
   1a81c:	08f70663          	beq	a4,a5,1a8a8 <__swbuf_r+0xea>
   1a820:	01045783          	lhu	a5,16(s0)
   1a824:	8b85                	andi	a5,a5,1
   1a826:	c781                	beqz	a5,1a82e <__swbuf_r+0x70>
   1a828:	47a9                	li	a5,10
   1a82a:	06f48f63          	beq	s1,a5,1a8a8 <__swbuf_r+0xea>
   1a82e:	70a2                	ld	ra,40(sp)
   1a830:	7402                	ld	s0,32(sp)
   1a832:	6942                	ld	s2,16(sp)
   1a834:	69a2                	ld	s3,8(sp)
   1a836:	8526                	mv	a0,s1
   1a838:	64e2                	ld	s1,24(sp)
   1a83a:	6145                	addi	sp,sp,48
   1a83c:	8082                	ret
   1a83e:	85a2                	mv	a1,s0
   1a840:	854a                	mv	a0,s2
   1a842:	961f70ef          	jal	ra,121a2 <__swsetup_r>
   1a846:	e535                	bnez	a0,1a8b2 <__swbuf_r+0xf4>
   1a848:	01041703          	lh	a4,16(s0)
   1a84c:	0ff4f993          	andi	s3,s1,255
   1a850:	6c1c                	ld	a5,24(s0)
   1a852:	03071693          	slli	a3,a4,0x30
   1a856:	92c1                	srli	a3,a3,0x30
   1a858:	03269613          	slli	a2,a3,0x32
   1a85c:	84ce                	mv	s1,s3
   1a85e:	f8064fe3          	bltz	a2,1a7fc <__swbuf_r+0x3e>
   1a862:	0ac42683          	lw	a3,172(s0)
   1a866:	6609                	lui	a2,0x2
   1a868:	8f51                	or	a4,a4,a2
   1a86a:	7679                	lui	a2,0xffffe
   1a86c:	167d                	addi	a2,a2,-1
   1a86e:	8ef1                	and	a3,a3,a2
   1a870:	00e41823          	sh	a4,16(s0)
   1a874:	6018                	ld	a4,0(s0)
   1a876:	0ad42623          	sw	a3,172(s0)
   1a87a:	5014                	lw	a3,32(s0)
   1a87c:	40f707bb          	subw	a5,a4,a5
   1a880:	f8d7c4e3          	blt	a5,a3,1a808 <__swbuf_r+0x4a>
   1a884:	85a2                	mv	a1,s0
   1a886:	854a                	mv	a0,s2
   1a888:	c65f70ef          	jal	ra,124ec <_fflush_r>
   1a88c:	e11d                	bnez	a0,1a8b2 <__swbuf_r+0xf4>
   1a88e:	6018                	ld	a4,0(s0)
   1a890:	4454                	lw	a3,12(s0)
   1a892:	4785                	li	a5,1
   1a894:	00170613          	addi	a2,a4,1
   1a898:	36fd                	addiw	a3,a3,-1
   1a89a:	e010                	sd	a2,0(s0)
   1a89c:	c454                	sw	a3,12(s0)
   1a89e:	01370023          	sb	s3,0(a4)
   1a8a2:	5018                	lw	a4,32(s0)
   1a8a4:	f6f71ee3          	bne	a4,a5,1a820 <__swbuf_r+0x62>
   1a8a8:	85a2                	mv	a1,s0
   1a8aa:	854a                	mv	a0,s2
   1a8ac:	c41f70ef          	jal	ra,124ec <_fflush_r>
   1a8b0:	dd3d                	beqz	a0,1a82e <__swbuf_r+0x70>
   1a8b2:	54fd                	li	s1,-1
   1a8b4:	bfad                	j	1a82e <__swbuf_r+0x70>
   1a8b6:	eb9f70ef          	jal	ra,1276e <__sinit>
   1a8ba:	bf31                	j	1a7d6 <__swbuf_r+0x18>

000000000001a8bc <__swbuf>:
   1a8bc:	87aa                	mv	a5,a0
   1a8be:	7581b503          	ld	a0,1880(gp) # 1ef48 <_impure_ptr>
   1a8c2:	862e                	mv	a2,a1
   1a8c4:	85be                	mv	a1,a5
   1a8c6:	bde5                	j	1a7be <__swbuf_r>

000000000001a8c8 <_wcrtomb_r>:
   1a8c8:	7179                	addi	sp,sp,-48
   1a8ca:	f022                	sd	s0,32(sp)
   1a8cc:	ec26                	sd	s1,24(sp)
   1a8ce:	f406                	sd	ra,40(sp)
   1a8d0:	e401b783          	ld	a5,-448(gp) # 1e630 <__global_locale+0xe0>
   1a8d4:	842a                	mv	s0,a0
   1a8d6:	84b6                	mv	s1,a3
   1a8d8:	c991                	beqz	a1,1a8ec <_wcrtomb_r+0x24>
   1a8da:	9782                	jalr	a5
   1a8dc:	57fd                	li	a5,-1
   1a8de:	00f50d63          	beq	a0,a5,1a8f8 <_wcrtomb_r+0x30>
   1a8e2:	70a2                	ld	ra,40(sp)
   1a8e4:	7402                	ld	s0,32(sp)
   1a8e6:	64e2                	ld	s1,24(sp)
   1a8e8:	6145                	addi	sp,sp,48
   1a8ea:	8082                	ret
   1a8ec:	4601                	li	a2,0
   1a8ee:	858a                	mv	a1,sp
   1a8f0:	9782                	jalr	a5
   1a8f2:	57fd                	li	a5,-1
   1a8f4:	fef517e3          	bne	a0,a5,1a8e2 <_wcrtomb_r+0x1a>
   1a8f8:	0004a023          	sw	zero,0(s1)
   1a8fc:	08a00793          	li	a5,138
   1a900:	70a2                	ld	ra,40(sp)
   1a902:	c01c                	sw	a5,0(s0)
   1a904:	7402                	ld	s0,32(sp)
   1a906:	64e2                	ld	s1,24(sp)
   1a908:	6145                	addi	sp,sp,48
   1a90a:	8082                	ret

000000000001a90c <wcrtomb>:
   1a90c:	7179                	addi	sp,sp,-48
   1a90e:	f022                	sd	s0,32(sp)
   1a910:	ec26                	sd	s1,24(sp)
   1a912:	f406                	sd	ra,40(sp)
   1a914:	7581b483          	ld	s1,1880(gp) # 1ef48 <_impure_ptr>
   1a918:	e401b783          	ld	a5,-448(gp) # 1e630 <__global_locale+0xe0>
   1a91c:	8432                	mv	s0,a2
   1a91e:	cd11                	beqz	a0,1a93a <wcrtomb+0x2e>
   1a920:	862e                	mv	a2,a1
   1a922:	86a2                	mv	a3,s0
   1a924:	85aa                	mv	a1,a0
   1a926:	8526                	mv	a0,s1
   1a928:	9782                	jalr	a5
   1a92a:	57fd                	li	a5,-1
   1a92c:	00f50f63          	beq	a0,a5,1a94a <wcrtomb+0x3e>
   1a930:	70a2                	ld	ra,40(sp)
   1a932:	7402                	ld	s0,32(sp)
   1a934:	64e2                	ld	s1,24(sp)
   1a936:	6145                	addi	sp,sp,48
   1a938:	8082                	ret
   1a93a:	86b2                	mv	a3,a2
   1a93c:	858a                	mv	a1,sp
   1a93e:	4601                	li	a2,0
   1a940:	8526                	mv	a0,s1
   1a942:	9782                	jalr	a5
   1a944:	57fd                	li	a5,-1
   1a946:	fef515e3          	bne	a0,a5,1a930 <wcrtomb+0x24>
   1a94a:	00042023          	sw	zero,0(s0)
   1a94e:	70a2                	ld	ra,40(sp)
   1a950:	7402                	ld	s0,32(sp)
   1a952:	08a00793          	li	a5,138
   1a956:	c09c                	sw	a5,0(s1)
   1a958:	64e2                	ld	s1,24(sp)
   1a95a:	6145                	addi	sp,sp,48
   1a95c:	8082                	ret

000000000001a95e <__register_exitproc>:
   1a95e:	7481b703          	ld	a4,1864(gp) # 1ef38 <_global_impure_ptr>
   1a962:	1f873783          	ld	a5,504(a4)
   1a966:	c3b1                	beqz	a5,1a9aa <__register_exitproc+0x4c>
   1a968:	4798                	lw	a4,8(a5)
   1a96a:	487d                	li	a6,31
   1a96c:	06e84263          	blt	a6,a4,1a9d0 <__register_exitproc+0x72>
   1a970:	c505                	beqz	a0,1a998 <__register_exitproc+0x3a>
   1a972:	00371813          	slli	a6,a4,0x3
   1a976:	983e                	add	a6,a6,a5
   1a978:	10c83823          	sd	a2,272(a6)
   1a97c:	3107a883          	lw	a7,784(a5)
   1a980:	4605                	li	a2,1
   1a982:	00e6163b          	sllw	a2,a2,a4
   1a986:	00c8e8b3          	or	a7,a7,a2
   1a98a:	3117a823          	sw	a7,784(a5)
   1a98e:	20d83823          	sd	a3,528(a6)
   1a992:	4689                	li	a3,2
   1a994:	02d50063          	beq	a0,a3,1a9b4 <__register_exitproc+0x56>
   1a998:	00270693          	addi	a3,a4,2
   1a99c:	068e                	slli	a3,a3,0x3
   1a99e:	2705                	addiw	a4,a4,1
   1a9a0:	c798                	sw	a4,8(a5)
   1a9a2:	97b6                	add	a5,a5,a3
   1a9a4:	e38c                	sd	a1,0(a5)
   1a9a6:	4501                	li	a0,0
   1a9a8:	8082                	ret
   1a9aa:	20070793          	addi	a5,a4,512
   1a9ae:	1ef73c23          	sd	a5,504(a4)
   1a9b2:	bf5d                	j	1a968 <__register_exitproc+0xa>
   1a9b4:	3147a683          	lw	a3,788(a5)
   1a9b8:	4501                	li	a0,0
   1a9ba:	8e55                	or	a2,a2,a3
   1a9bc:	00270693          	addi	a3,a4,2
   1a9c0:	068e                	slli	a3,a3,0x3
   1a9c2:	2705                	addiw	a4,a4,1
   1a9c4:	30c7aa23          	sw	a2,788(a5)
   1a9c8:	c798                	sw	a4,8(a5)
   1a9ca:	97b6                	add	a5,a5,a3
   1a9cc:	e38c                	sd	a1,0(a5)
   1a9ce:	8082                	ret
   1a9d0:	557d                	li	a0,-1
   1a9d2:	8082                	ret

000000000001a9d4 <_close>:
   1a9d4:	1141                	addi	sp,sp,-16
   1a9d6:	e406                	sd	ra,8(sp)
   1a9d8:	e022                	sd	s0,0(sp)
   1a9da:	4581                	li	a1,0
   1a9dc:	4601                	li	a2,0
   1a9de:	4681                	li	a3,0
   1a9e0:	4701                	li	a4,0
   1a9e2:	4781                	li	a5,0
   1a9e4:	03900893          	li	a7,57
   1a9e8:	00000073          	ecall
   1a9ec:	842a                	mv	s0,a0
   1a9ee:	00054763          	bltz	a0,1a9fc <_close+0x28>
   1a9f2:	2501                	sext.w	a0,a0
   1a9f4:	60a2                	ld	ra,8(sp)
   1a9f6:	6402                	ld	s0,0(sp)
   1a9f8:	0141                	addi	sp,sp,16
   1a9fa:	8082                	ret
   1a9fc:	1fe000ef          	jal	ra,1abfa <__errno>
   1aa00:	4080043b          	negw	s0,s0
   1aa04:	c100                	sw	s0,0(a0)
   1aa06:	557d                	li	a0,-1
   1aa08:	b7f5                	j	1a9f4 <_close+0x20>

000000000001aa0a <_exit>:
   1aa0a:	4581                	li	a1,0
   1aa0c:	4601                	li	a2,0
   1aa0e:	4681                	li	a3,0
   1aa10:	4701                	li	a4,0
   1aa12:	4781                	li	a5,0
   1aa14:	05d00893          	li	a7,93
   1aa18:	00000073          	ecall
   1aa1c:	00054363          	bltz	a0,1aa22 <_exit+0x18>
   1aa20:	a001                	j	1aa20 <_exit+0x16>
   1aa22:	1141                	addi	sp,sp,-16
   1aa24:	e022                	sd	s0,0(sp)
   1aa26:	842a                	mv	s0,a0
   1aa28:	e406                	sd	ra,8(sp)
   1aa2a:	4080043b          	negw	s0,s0
   1aa2e:	1cc000ef          	jal	ra,1abfa <__errno>
   1aa32:	c100                	sw	s0,0(a0)
   1aa34:	a001                	j	1aa34 <_exit+0x2a>

000000000001aa36 <_fstat>:
   1aa36:	7135                	addi	sp,sp,-160
   1aa38:	e526                	sd	s1,136(sp)
   1aa3a:	ed06                	sd	ra,152(sp)
   1aa3c:	84ae                	mv	s1,a1
   1aa3e:	e922                	sd	s0,144(sp)
   1aa40:	858a                	mv	a1,sp
   1aa42:	4601                	li	a2,0
   1aa44:	4681                	li	a3,0
   1aa46:	4701                	li	a4,0
   1aa48:	4781                	li	a5,0
   1aa4a:	05000893          	li	a7,80
   1aa4e:	00000073          	ecall
   1aa52:	842a                	mv	s0,a0
   1aa54:	00054e63          	bltz	a0,1aa70 <_fstat+0x3a>
   1aa58:	0005041b          	sext.w	s0,a0
   1aa5c:	8526                	mv	a0,s1
   1aa5e:	858a                	mv	a1,sp
   1aa60:	140000ef          	jal	ra,1aba0 <_conv_stat>
   1aa64:	60ea                	ld	ra,152(sp)
   1aa66:	8522                	mv	a0,s0
   1aa68:	644a                	ld	s0,144(sp)
   1aa6a:	64aa                	ld	s1,136(sp)
   1aa6c:	610d                	addi	sp,sp,160
   1aa6e:	8082                	ret
   1aa70:	4080043b          	negw	s0,s0
   1aa74:	186000ef          	jal	ra,1abfa <__errno>
   1aa78:	c100                	sw	s0,0(a0)
   1aa7a:	547d                	li	s0,-1
   1aa7c:	b7c5                	j	1aa5c <_fstat+0x26>

000000000001aa7e <_isatty>:
   1aa7e:	7119                	addi	sp,sp,-128
   1aa80:	002c                	addi	a1,sp,8
   1aa82:	fc86                	sd	ra,120(sp)
   1aa84:	fb3ff0ef          	jal	ra,1aa36 <_fstat>
   1aa88:	57fd                	li	a5,-1
   1aa8a:	00f50963          	beq	a0,a5,1aa9c <_isatty+0x1e>
   1aa8e:	4532                	lw	a0,12(sp)
   1aa90:	70e6                	ld	ra,120(sp)
   1aa92:	40d5551b          	sraiw	a0,a0,0xd
   1aa96:	8905                	andi	a0,a0,1
   1aa98:	6109                	addi	sp,sp,128
   1aa9a:	8082                	ret
   1aa9c:	70e6                	ld	ra,120(sp)
   1aa9e:	4501                	li	a0,0
   1aaa0:	6109                	addi	sp,sp,128
   1aaa2:	8082                	ret

000000000001aaa4 <_lseek>:
   1aaa4:	1141                	addi	sp,sp,-16
   1aaa6:	e406                	sd	ra,8(sp)
   1aaa8:	e022                	sd	s0,0(sp)
   1aaaa:	4681                	li	a3,0
   1aaac:	4701                	li	a4,0
   1aaae:	4781                	li	a5,0
   1aab0:	03e00893          	li	a7,62
   1aab4:	00000073          	ecall
   1aab8:	842a                	mv	s0,a0
   1aaba:	00054763          	bltz	a0,1aac8 <_lseek+0x24>
   1aabe:	60a2                	ld	ra,8(sp)
   1aac0:	8522                	mv	a0,s0
   1aac2:	6402                	ld	s0,0(sp)
   1aac4:	0141                	addi	sp,sp,16
   1aac6:	8082                	ret
   1aac8:	4080043b          	negw	s0,s0
   1aacc:	12e000ef          	jal	ra,1abfa <__errno>
   1aad0:	c100                	sw	s0,0(a0)
   1aad2:	547d                	li	s0,-1
   1aad4:	b7ed                	j	1aabe <_lseek+0x1a>

000000000001aad6 <_read>:
   1aad6:	1141                	addi	sp,sp,-16
   1aad8:	e406                	sd	ra,8(sp)
   1aada:	e022                	sd	s0,0(sp)
   1aadc:	4681                	li	a3,0
   1aade:	4701                	li	a4,0
   1aae0:	4781                	li	a5,0
   1aae2:	03f00893          	li	a7,63
   1aae6:	00000073          	ecall
   1aaea:	842a                	mv	s0,a0
   1aaec:	00054763          	bltz	a0,1aafa <_read+0x24>
   1aaf0:	60a2                	ld	ra,8(sp)
   1aaf2:	8522                	mv	a0,s0
   1aaf4:	6402                	ld	s0,0(sp)
   1aaf6:	0141                	addi	sp,sp,16
   1aaf8:	8082                	ret
   1aafa:	4080043b          	negw	s0,s0
   1aafe:	0fc000ef          	jal	ra,1abfa <__errno>
   1ab02:	c100                	sw	s0,0(a0)
   1ab04:	547d                	li	s0,-1
   1ab06:	b7ed                	j	1aaf0 <_read+0x1a>

000000000001ab08 <_sbrk>:
   1ab08:	7901b783          	ld	a5,1936(gp) # 1ef80 <heap_end.1850>
   1ab0c:	1141                	addi	sp,sp,-16
   1ab0e:	e406                	sd	ra,8(sp)
   1ab10:	882a                	mv	a6,a0
   1ab12:	e385                	bnez	a5,1ab32 <_sbrk+0x2a>
   1ab14:	4501                	li	a0,0
   1ab16:	4581                	li	a1,0
   1ab18:	4601                	li	a2,0
   1ab1a:	4681                	li	a3,0
   1ab1c:	4701                	li	a4,0
   1ab1e:	0d600893          	li	a7,214
   1ab22:	00000073          	ecall
   1ab26:	577d                	li	a4,-1
   1ab28:	87aa                	mv	a5,a0
   1ab2a:	02e50a63          	beq	a0,a4,1ab5e <_sbrk+0x56>
   1ab2e:	78a1b823          	sd	a0,1936(gp) # 1ef80 <heap_end.1850>
   1ab32:	00f80533          	add	a0,a6,a5
   1ab36:	4581                	li	a1,0
   1ab38:	4601                	li	a2,0
   1ab3a:	4681                	li	a3,0
   1ab3c:	4701                	li	a4,0
   1ab3e:	4781                	li	a5,0
   1ab40:	0d600893          	li	a7,214
   1ab44:	00000073          	ecall
   1ab48:	7901b783          	ld	a5,1936(gp) # 1ef80 <heap_end.1850>
   1ab4c:	983e                	add	a6,a6,a5
   1ab4e:	01051863          	bne	a0,a6,1ab5e <_sbrk+0x56>
   1ab52:	60a2                	ld	ra,8(sp)
   1ab54:	78a1b823          	sd	a0,1936(gp) # 1ef80 <heap_end.1850>
   1ab58:	853e                	mv	a0,a5
   1ab5a:	0141                	addi	sp,sp,16
   1ab5c:	8082                	ret
   1ab5e:	09c000ef          	jal	ra,1abfa <__errno>
   1ab62:	60a2                	ld	ra,8(sp)
   1ab64:	47b1                	li	a5,12
   1ab66:	c11c                	sw	a5,0(a0)
   1ab68:	557d                	li	a0,-1
   1ab6a:	0141                	addi	sp,sp,16
   1ab6c:	8082                	ret

000000000001ab6e <_write>:
   1ab6e:	1141                	addi	sp,sp,-16
   1ab70:	e406                	sd	ra,8(sp)
   1ab72:	e022                	sd	s0,0(sp)
   1ab74:	4681                	li	a3,0
   1ab76:	4701                	li	a4,0
   1ab78:	4781                	li	a5,0
   1ab7a:	04000893          	li	a7,64
   1ab7e:	00000073          	ecall
   1ab82:	842a                	mv	s0,a0
   1ab84:	00054763          	bltz	a0,1ab92 <_write+0x24>
   1ab88:	60a2                	ld	ra,8(sp)
   1ab8a:	8522                	mv	a0,s0
   1ab8c:	6402                	ld	s0,0(sp)
   1ab8e:	0141                	addi	sp,sp,16
   1ab90:	8082                	ret
   1ab92:	4080043b          	negw	s0,s0
   1ab96:	064000ef          	jal	ra,1abfa <__errno>
   1ab9a:	c100                	sw	s0,0(a0)
   1ab9c:	547d                	li	s0,-1
   1ab9e:	b7ed                	j	1ab88 <_write+0x1a>

000000000001aba0 <_conv_stat>:
   1aba0:	0005b383          	ld	t2,0(a1)
   1aba4:	0085b283          	ld	t0,8(a1)
   1aba8:	0105af83          	lw	t6,16(a1)
   1abac:	0145af03          	lw	t5,20(a1)
   1abb0:	0185ae83          	lw	t4,24(a1)
   1abb4:	01c5ae03          	lw	t3,28(a1)
   1abb8:	0205b303          	ld	t1,32(a1)
   1abbc:	0305b883          	ld	a7,48(a1)
   1abc0:	0405b803          	ld	a6,64(a1)
   1abc4:	5d90                	lw	a2,56(a1)
   1abc6:	65b4                	ld	a3,72(a1)
   1abc8:	6db8                	ld	a4,88(a1)
   1abca:	75bc                	ld	a5,104(a1)
   1abcc:	00751023          	sh	t2,0(a0)
   1abd0:	00551123          	sh	t0,2(a0)
   1abd4:	01f52223          	sw	t6,4(a0)
   1abd8:	01e51423          	sh	t5,8(a0)
   1abdc:	01d51523          	sh	t4,10(a0)
   1abe0:	01c51623          	sh	t3,12(a0)
   1abe4:	00651723          	sh	t1,14(a0)
   1abe8:	01153823          	sd	a7,16(a0)
   1abec:	05053823          	sd	a6,80(a0)
   1abf0:	e530                	sd	a2,72(a0)
   1abf2:	ed14                	sd	a3,24(a0)
   1abf4:	f518                	sd	a4,40(a0)
   1abf6:	fd1c                	sd	a5,56(a0)
   1abf8:	8082                	ret

000000000001abfa <__errno>:
   1abfa:	7581b503          	ld	a0,1880(gp) # 1ef48 <_impure_ptr>
   1abfe:	8082                	ret

000000000001ac00 <__eqtf2>:
   1ac00:	882a                	mv	a6,a0
   1ac02:	002027f3          	frrm	a5
   1ac06:	6521                	lui	a0,0x8
   1ac08:	0305d893          	srli	a7,a1,0x30
   1ac0c:	157d                	addi	a0,a0,-1
   1ac0e:	57fd                	li	a5,-1
   1ac10:	83c1                	srli	a5,a5,0x10
   1ac12:	0306d313          	srli	t1,a3,0x30
   1ac16:	00a8f8b3          	and	a7,a7,a0
   1ac1a:	00f5f733          	and	a4,a1,a5
   1ac1e:	00a37333          	and	t1,t1,a0
   1ac22:	8ff5                	and	a5,a5,a3
   1ac24:	91fd                	srli	a1,a1,0x3f
   1ac26:	92fd                	srli	a3,a3,0x3f
   1ac28:	00a89863          	bne	a7,a0,1ac38 <__eqtf2+0x38>
   1ac2c:	01076533          	or	a0,a4,a6
   1ac30:	e529                	bnez	a0,1ac7a <__eqtf2+0x7a>
   1ac32:	05131f63          	bne	t1,a7,1ac90 <__eqtf2+0x90>
   1ac36:	a019                	j	1ac3c <__eqtf2+0x3c>
   1ac38:	00a31563          	bne	t1,a0,1ac42 <__eqtf2+0x42>
   1ac3c:	00c7e533          	or	a0,a5,a2
   1ac40:	e515                	bnez	a0,1ac6c <__eqtf2+0x6c>
   1ac42:	4505                	li	a0,1
   1ac44:	04689763          	bne	a7,t1,1ac92 <__eqtf2+0x92>
   1ac48:	04f71563          	bne	a4,a5,1ac92 <__eqtf2+0x92>
   1ac4c:	04c81363          	bne	a6,a2,1ac92 <__eqtf2+0x92>
   1ac50:	00d58963          	beq	a1,a3,1ac62 <__eqtf2+0x62>
   1ac54:	02089f63          	bnez	a7,1ac92 <__eqtf2+0x92>
   1ac58:	01076533          	or	a0,a4,a6
   1ac5c:	00a03533          	snez	a0,a0
   1ac60:	8082                	ret
   1ac62:	4501                	li	a0,0
   1ac64:	8082                	ret
   1ac66:	00186073          	csrsi	fflags,16
   1ac6a:	a01d                	j	1ac90 <__eqtf2+0x90>
   1ac6c:	66a1                	lui	a3,0x8
   1ac6e:	16fd                	addi	a3,a3,-1
   1ac70:	00d89e63          	bne	a7,a3,1ac8c <__eqtf2+0x8c>
   1ac74:	01076533          	or	a0,a4,a6
   1ac78:	c911                	beqz	a0,1ac8c <__eqtf2+0x8c>
   1ac7a:	933d                	srli	a4,a4,0x2f
   1ac7c:	d76d                	beqz	a4,1ac66 <__eqtf2+0x66>
   1ac7e:	6721                	lui	a4,0x8
   1ac80:	177d                	addi	a4,a4,-1
   1ac82:	4505                	li	a0,1
   1ac84:	00e31763          	bne	t1,a4,1ac92 <__eqtf2+0x92>
   1ac88:	8e5d                	or	a2,a2,a5
   1ac8a:	c601                	beqz	a2,1ac92 <__eqtf2+0x92>
   1ac8c:	93bd                	srli	a5,a5,0x2f
   1ac8e:	dfe1                	beqz	a5,1ac66 <__eqtf2+0x66>
   1ac90:	4505                	li	a0,1
   1ac92:	8082                	ret

000000000001ac94 <__getf2>:
   1ac94:	88aa                	mv	a7,a0
   1ac96:	002027f3          	frrm	a5
   1ac9a:	6321                	lui	t1,0x8
   1ac9c:	137d                	addi	t1,t1,-1
   1ac9e:	57fd                	li	a5,-1
   1aca0:	0305d813          	srli	a6,a1,0x30
   1aca4:	83c1                	srli	a5,a5,0x10
   1aca6:	0306d713          	srli	a4,a3,0x30
   1acaa:	00687833          	and	a6,a6,t1
   1acae:	00f5fe33          	and	t3,a1,a5
   1acb2:	03f5d513          	srli	a0,a1,0x3f
   1acb6:	8ff5                	and	a5,a5,a3
   1acb8:	00677733          	and	a4,a4,t1
   1acbc:	92fd                	srli	a3,a3,0x3f
   1acbe:	00681963          	bne	a6,t1,1acd0 <__getf2+0x3c>
   1acc2:	011e65b3          	or	a1,t3,a7
   1acc6:	c5b5                	beqz	a1,1ad32 <__getf2+0x9e>
   1acc8:	00186073          	csrsi	fflags,16
   1accc:	5579                	li	a0,-2
   1acce:	8082                	ret
   1acd0:	00671563          	bne	a4,t1,1acda <__getf2+0x46>
   1acd4:	00c7e5b3          	or	a1,a5,a2
   1acd8:	f9e5                	bnez	a1,1acc8 <__getf2+0x34>
   1acda:	04081e63          	bnez	a6,1ad36 <__getf2+0xa2>
   1acde:	011e65b3          	or	a1,t3,a7
   1ace2:	0015b593          	seqz	a1,a1
   1ace6:	e709                	bnez	a4,1acf0 <__getf2+0x5c>
   1ace8:	00c7e333          	or	t1,a5,a2
   1acec:	02030e63          	beqz	t1,1ad28 <__getf2+0x94>
   1acf0:	e981                	bnez	a1,1ad00 <__getf2+0x6c>
   1acf2:	00d51463          	bne	a0,a3,1acfa <__getf2+0x66>
   1acf6:	01075963          	bge	a4,a6,1ad08 <__getf2+0x74>
   1acfa:	c50d                	beqz	a0,1ad24 <__getf2+0x90>
   1acfc:	557d                	li	a0,-1
   1acfe:	8082                	ret
   1ad00:	557d                	li	a0,-1
   1ad02:	c691                	beqz	a3,1ad0e <__getf2+0x7a>
   1ad04:	8536                	mv	a0,a3
   1ad06:	8082                	ret
   1ad08:	00e85463          	bge	a6,a4,1ad10 <__getf2+0x7c>
   1ad0c:	d965                	beqz	a0,1acfc <__getf2+0x68>
   1ad0e:	8082                	ret
   1ad10:	ffc7e5e3          	bltu	a5,t3,1acfa <__getf2+0x66>
   1ad14:	00fe1c63          	bne	t3,a5,1ad2c <__getf2+0x98>
   1ad18:	ff1661e3          	bltu	a2,a7,1acfa <__getf2+0x66>
   1ad1c:	fec8e8e3          	bltu	a7,a2,1ad0c <__getf2+0x78>
   1ad20:	4501                	li	a0,0
   1ad22:	8082                	ret
   1ad24:	4505                	li	a0,1
   1ad26:	8082                	ret
   1ad28:	fde5                	bnez	a1,1ad20 <__getf2+0x8c>
   1ad2a:	bfc1                	j	1acfa <__getf2+0x66>
   1ad2c:	fefe60e3          	bltu	t3,a5,1ad0c <__getf2+0x78>
   1ad30:	bfc5                	j	1ad20 <__getf2+0x8c>
   1ad32:	fb0701e3          	beq	a4,a6,1acd4 <__getf2+0x40>
   1ad36:	ff55                	bnez	a4,1acf2 <__getf2+0x5e>
   1ad38:	4581                	li	a1,0
   1ad3a:	b77d                	j	1ace8 <__getf2+0x54>

000000000001ad3c <__letf2>:
   1ad3c:	88aa                	mv	a7,a0
   1ad3e:	002027f3          	frrm	a5
   1ad42:	6321                	lui	t1,0x8
   1ad44:	137d                	addi	t1,t1,-1
   1ad46:	57fd                	li	a5,-1
   1ad48:	0305d813          	srli	a6,a1,0x30
   1ad4c:	83c1                	srli	a5,a5,0x10
   1ad4e:	0306d713          	srli	a4,a3,0x30
   1ad52:	00687833          	and	a6,a6,t1
   1ad56:	00f5fe33          	and	t3,a1,a5
   1ad5a:	03f5d513          	srli	a0,a1,0x3f
   1ad5e:	8ff5                	and	a5,a5,a3
   1ad60:	00677733          	and	a4,a4,t1
   1ad64:	92fd                	srli	a3,a3,0x3f
   1ad66:	00681963          	bne	a6,t1,1ad78 <__letf2+0x3c>
   1ad6a:	011e65b3          	or	a1,t3,a7
   1ad6e:	c5b5                	beqz	a1,1adda <__letf2+0x9e>
   1ad70:	00186073          	csrsi	fflags,16
   1ad74:	4509                	li	a0,2
   1ad76:	8082                	ret
   1ad78:	00671563          	bne	a4,t1,1ad82 <__letf2+0x46>
   1ad7c:	00c7e5b3          	or	a1,a5,a2
   1ad80:	f9e5                	bnez	a1,1ad70 <__letf2+0x34>
   1ad82:	04081e63          	bnez	a6,1adde <__letf2+0xa2>
   1ad86:	011e65b3          	or	a1,t3,a7
   1ad8a:	0015b593          	seqz	a1,a1
   1ad8e:	e709                	bnez	a4,1ad98 <__letf2+0x5c>
   1ad90:	00c7e333          	or	t1,a5,a2
   1ad94:	02030e63          	beqz	t1,1add0 <__letf2+0x94>
   1ad98:	e981                	bnez	a1,1ada8 <__letf2+0x6c>
   1ad9a:	00d51463          	bne	a0,a3,1ada2 <__letf2+0x66>
   1ad9e:	01075963          	bge	a4,a6,1adb0 <__letf2+0x74>
   1ada2:	c50d                	beqz	a0,1adcc <__letf2+0x90>
   1ada4:	557d                	li	a0,-1
   1ada6:	8082                	ret
   1ada8:	557d                	li	a0,-1
   1adaa:	c691                	beqz	a3,1adb6 <__letf2+0x7a>
   1adac:	8536                	mv	a0,a3
   1adae:	8082                	ret
   1adb0:	00e85463          	bge	a6,a4,1adb8 <__letf2+0x7c>
   1adb4:	d965                	beqz	a0,1ada4 <__letf2+0x68>
   1adb6:	8082                	ret
   1adb8:	ffc7e5e3          	bltu	a5,t3,1ada2 <__letf2+0x66>
   1adbc:	00fe1c63          	bne	t3,a5,1add4 <__letf2+0x98>
   1adc0:	ff1661e3          	bltu	a2,a7,1ada2 <__letf2+0x66>
   1adc4:	fec8e8e3          	bltu	a7,a2,1adb4 <__letf2+0x78>
   1adc8:	4501                	li	a0,0
   1adca:	8082                	ret
   1adcc:	4505                	li	a0,1
   1adce:	8082                	ret
   1add0:	fde5                	bnez	a1,1adc8 <__letf2+0x8c>
   1add2:	bfc1                	j	1ada2 <__letf2+0x66>
   1add4:	fefe60e3          	bltu	t3,a5,1adb4 <__letf2+0x78>
   1add8:	bfc5                	j	1adc8 <__letf2+0x8c>
   1adda:	fb0701e3          	beq	a4,a6,1ad7c <__letf2+0x40>
   1adde:	ff55                	bnez	a4,1ad9a <__letf2+0x5e>
   1ade0:	4581                	li	a1,0
   1ade2:	b77d                	j	1ad90 <__letf2+0x54>

000000000001ade4 <__multf3>:
   1ade4:	711d                	addi	sp,sp,-96
   1ade6:	f05a                	sd	s6,32(sp)
   1ade8:	e466                	sd	s9,8(sp)
   1adea:	ec86                	sd	ra,88(sp)
   1adec:	e8a2                	sd	s0,80(sp)
   1adee:	e4a6                	sd	s1,72(sp)
   1adf0:	e0ca                	sd	s2,64(sp)
   1adf2:	fc4e                	sd	s3,56(sp)
   1adf4:	f852                	sd	s4,48(sp)
   1adf6:	f456                	sd	s5,40(sp)
   1adf8:	ec5e                	sd	s7,24(sp)
   1adfa:	e862                	sd	s8,16(sp)
   1adfc:	8cb2                	mv	s9,a2
   1adfe:	8b36                	mv	s6,a3
   1ae00:	00202973          	frrm	s2
   1ae04:	6721                	lui	a4,0x8
   1ae06:	0305da93          	srli	s5,a1,0x30
   1ae0a:	177d                	addi	a4,a4,-1
   1ae0c:	01059993          	slli	s3,a1,0x10
   1ae10:	00eaf7b3          	and	a5,s5,a4
   1ae14:	2901                	sext.w	s2,s2
   1ae16:	0109d993          	srli	s3,s3,0x10
   1ae1a:	03f5db93          	srli	s7,a1,0x3f
   1ae1e:	c79d                	beqz	a5,1ae4c <__multf3+0x68>
   1ae20:	8a2a                	mv	s4,a0
   1ae22:	00078a9b          	sext.w	s5,a5
   1ae26:	08e78663          	beq	a5,a4,1aeb2 <__multf3+0xce>
   1ae2a:	098e                	slli	s3,s3,0x3
   1ae2c:	03d55713          	srli	a4,a0,0x3d
   1ae30:	01376733          	or	a4,a4,s3
   1ae34:	7af1                	lui	s5,0xffffc
   1ae36:	4985                	li	s3,1
   1ae38:	19ce                	slli	s3,s3,0x33
   1ae3a:	0a85                	addi	s5,s5,1
   1ae3c:	013769b3          	or	s3,a4,s3
   1ae40:	00351a13          	slli	s4,a0,0x3
   1ae44:	9abe                	add	s5,s5,a5
   1ae46:	4c01                	li	s8,0
   1ae48:	4481                	li	s1,0
   1ae4a:	a8ad                	j	1aec4 <__multf3+0xe0>
   1ae4c:	00a9e7b3          	or	a5,s3,a0
   1ae50:	842a                	mv	s0,a0
   1ae52:	cbf1                	beqz	a5,1af26 <__multf3+0x142>
   1ae54:	04098263          	beqz	s3,1ae98 <__multf3+0xb4>
   1ae58:	854e                	mv	a0,s3
   1ae5a:	198010ef          	jal	ra,1bff2 <__clzdi2>
   1ae5e:	0005079b          	sext.w	a5,a0
   1ae62:	ff178693          	addi	a3,a5,-15
   1ae66:	03c00613          	li	a2,60
   1ae6a:	0006871b          	sext.w	a4,a3
   1ae6e:	02d64c63          	blt	a2,a3,1aea6 <__multf3+0xc2>
   1ae72:	03d00693          	li	a3,61
   1ae76:	00370a1b          	addiw	s4,a4,3
   1ae7a:	40e6873b          	subw	a4,a3,a4
   1ae7e:	014999b3          	sll	s3,s3,s4
   1ae82:	00e45733          	srl	a4,s0,a4
   1ae86:	013769b3          	or	s3,a4,s3
   1ae8a:	01441a33          	sll	s4,s0,s4
   1ae8e:	7af1                	lui	s5,0xffffc
   1ae90:	0ac5                	addi	s5,s5,17
   1ae92:	40fa8ab3          	sub	s5,s5,a5
   1ae96:	bf45                	j	1ae46 <__multf3+0x62>
   1ae98:	15a010ef          	jal	ra,1bff2 <__clzdi2>
   1ae9c:	00050a9b          	sext.w	s5,a0
   1aea0:	040a8793          	addi	a5,s5,64 # ffffffffffffc040 <__BSS_END__+0xfffffffffffdd050>
   1aea4:	bf7d                	j	1ae62 <__multf3+0x7e>
   1aea6:	fc37099b          	addiw	s3,a4,-61
   1aeaa:	013419b3          	sll	s3,s0,s3
   1aeae:	4a01                	li	s4,0
   1aeb0:	bff9                	j	1ae8e <__multf3+0xaa>
   1aeb2:	00a9e7b3          	or	a5,s3,a0
   1aeb6:	cfad                	beqz	a5,1af30 <__multf3+0x14c>
   1aeb8:	01099793          	slli	a5,s3,0x10
   1aebc:	4c0d                	li	s8,3
   1aebe:	44c1                	li	s1,16
   1aec0:	f807c4e3          	bltz	a5,1ae48 <__multf3+0x64>
   1aec4:	66a1                	lui	a3,0x8
   1aec6:	030b5513          	srli	a0,s6,0x30
   1aeca:	16fd                	addi	a3,a3,-1
   1aecc:	010b1413          	slli	s0,s6,0x10
   1aed0:	00d57733          	and	a4,a0,a3
   1aed4:	87e6                	mv	a5,s9
   1aed6:	8041                	srli	s0,s0,0x10
   1aed8:	03fb5b13          	srli	s6,s6,0x3f
   1aedc:	cf31                	beqz	a4,1af38 <__multf3+0x154>
   1aede:	0007051b          	sext.w	a0,a4
   1aee2:	0ad70a63          	beq	a4,a3,1af96 <__multf3+0x1b2>
   1aee6:	040e                	slli	s0,s0,0x3
   1aee8:	03dcd693          	srli	a3,s9,0x3d
   1aeec:	8ec1                	or	a3,a3,s0
   1aeee:	7571                	lui	a0,0xffffc
   1aef0:	4405                	li	s0,1
   1aef2:	144e                	slli	s0,s0,0x33
   1aef4:	0505                	addi	a0,a0,1
   1aef6:	8c55                	or	s0,s0,a3
   1aef8:	003c9793          	slli	a5,s9,0x3
   1aefc:	953a                	add	a0,a0,a4
   1aefe:	4701                	li	a4,0
   1af00:	002c1693          	slli	a3,s8,0x2
   1af04:	8ed9                	or	a3,a3,a4
   1af06:	9aaa                	add	s5,s5,a0
   1af08:	16fd                	addi	a3,a3,-1
   1af0a:	45b9                	li	a1,14
   1af0c:	016bc633          	xor	a2,s7,s6
   1af10:	001a8813          	addi	a6,s5,1
   1af14:	0ed5e663          	bltu	a1,a3,1b000 <__multf3+0x21c>
   1af18:	65f5                	lui	a1,0x1d
   1af1a:	068a                	slli	a3,a3,0x2
   1af1c:	ca858593          	addi	a1,a1,-856 # 1cca8 <zeroes.4483+0x10>
   1af20:	96ae                	add	a3,a3,a1
   1af22:	4294                	lw	a3,0(a3)
   1af24:	8682                	jr	a3
   1af26:	4981                	li	s3,0
   1af28:	4a01                	li	s4,0
   1af2a:	4a81                	li	s5,0
   1af2c:	4c05                	li	s8,1
   1af2e:	bf29                	j	1ae48 <__multf3+0x64>
   1af30:	4981                	li	s3,0
   1af32:	4a01                	li	s4,0
   1af34:	4c09                	li	s8,2
   1af36:	bf09                	j	1ae48 <__multf3+0x64>
   1af38:	019467b3          	or	a5,s0,s9
   1af3c:	c7bd                	beqz	a5,1afaa <__multf3+0x1c6>
   1af3e:	cc1d                	beqz	s0,1af7c <__multf3+0x198>
   1af40:	8522                	mv	a0,s0
   1af42:	0b0010ef          	jal	ra,1bff2 <__clzdi2>
   1af46:	0005071b          	sext.w	a4,a0
   1af4a:	ff170793          	addi	a5,a4,-15 # 7ff1 <register_fini-0x80f7>
   1af4e:	03c00613          	li	a2,60
   1af52:	0007869b          	sext.w	a3,a5
   1af56:	02f64a63          	blt	a2,a5,1af8a <__multf3+0x1a6>
   1af5a:	03d00613          	li	a2,61
   1af5e:	0036879b          	addiw	a5,a3,3
   1af62:	40d606bb          	subw	a3,a2,a3
   1af66:	00f41433          	sll	s0,s0,a5
   1af6a:	00dcd6b3          	srl	a3,s9,a3
   1af6e:	8c55                	or	s0,s0,a3
   1af70:	00fc97b3          	sll	a5,s9,a5
   1af74:	7571                	lui	a0,0xffffc
   1af76:	0545                	addi	a0,a0,17
   1af78:	8d19                	sub	a0,a0,a4
   1af7a:	b751                	j	1aefe <__multf3+0x11a>
   1af7c:	8566                	mv	a0,s9
   1af7e:	074010ef          	jal	ra,1bff2 <__clzdi2>
   1af82:	2501                	sext.w	a0,a0
   1af84:	04050713          	addi	a4,a0,64 # ffffffffffffc040 <__BSS_END__+0xfffffffffffdd050>
   1af88:	b7c9                	j	1af4a <__multf3+0x166>
   1af8a:	fc36841b          	addiw	s0,a3,-61
   1af8e:	008c9433          	sll	s0,s9,s0
   1af92:	4781                	li	a5,0
   1af94:	b7c5                	j	1af74 <__multf3+0x190>
   1af96:	01946733          	or	a4,s0,s9
   1af9a:	cf09                	beqz	a4,1afb4 <__multf3+0x1d0>
   1af9c:	01041713          	slli	a4,s0,0x10
   1afa0:	00074e63          	bltz	a4,1afbc <__multf3+0x1d8>
   1afa4:	470d                	li	a4,3
   1afa6:	44c1                	li	s1,16
   1afa8:	bfa1                	j	1af00 <__multf3+0x11c>
   1afaa:	4401                	li	s0,0
   1afac:	4781                	li	a5,0
   1afae:	4501                	li	a0,0
   1afb0:	4705                	li	a4,1
   1afb2:	b7b9                	j	1af00 <__multf3+0x11c>
   1afb4:	4401                	li	s0,0
   1afb6:	4781                	li	a5,0
   1afb8:	4709                	li	a4,2
   1afba:	b799                	j	1af00 <__multf3+0x11c>
   1afbc:	470d                	li	a4,3
   1afbe:	b789                	j	1af00 <__multf3+0x11c>
   1afc0:	4405                	li	s0,1
   1afc2:	6721                	lui	a4,0x8
   1afc4:	143e                	slli	s0,s0,0x2f
   1afc6:	4501                	li	a0,0
   1afc8:	177d                	addi	a4,a4,-1
   1afca:	4601                	li	a2,0
   1afcc:	44c1                	li	s1,16
   1afce:	1746                	slli	a4,a4,0x31
   1afd0:	9345                	srli	a4,a4,0x31
   1afd2:	063e                	slli	a2,a2,0xf
   1afd4:	0442                	slli	s0,s0,0x10
   1afd6:	8f51                	or	a4,a4,a2
   1afd8:	1742                	slli	a4,a4,0x30
   1afda:	01045593          	srli	a1,s0,0x10
   1afde:	8dd9                	or	a1,a1,a4
   1afe0:	c099                	beqz	s1,1afe6 <__multf3+0x202>
   1afe2:	0014a073          	csrs	fflags,s1
   1afe6:	60e6                	ld	ra,88(sp)
   1afe8:	6446                	ld	s0,80(sp)
   1afea:	64a6                	ld	s1,72(sp)
   1afec:	6906                	ld	s2,64(sp)
   1afee:	79e2                	ld	s3,56(sp)
   1aff0:	7a42                	ld	s4,48(sp)
   1aff2:	7aa2                	ld	s5,40(sp)
   1aff4:	7b02                	ld	s6,32(sp)
   1aff6:	6be2                	ld	s7,24(sp)
   1aff8:	6c42                	ld	s8,16(sp)
   1affa:	6ca2                	ld	s9,8(sp)
   1affc:	6125                	addi	sp,sp,96
   1affe:	8082                	ret
   1b000:	557d                	li	a0,-1
   1b002:	9101                	srli	a0,a0,0x20
   1b004:	014983b3          	add	t2,s3,s4
   1b008:	00878f33          	add	t5,a5,s0
   1b00c:	020a5e93          	srli	t4,s4,0x20
   1b010:	0207d693          	srli	a3,a5,0x20
   1b014:	0143bfb3          	sltu	t6,t2,s4
   1b018:	00ff32b3          	sltu	t0,t5,a5
   1b01c:	00aa7a33          	and	s4,s4,a0
   1b020:	8fe9                	and	a5,a5,a0
   1b022:	03478533          	mul	a0,a5,s4
   1b026:	8e7e                	mv	t3,t6
   1b028:	8316                	mv	t1,t0
   1b02a:	02fe87b3          	mul	a5,t4,a5
   1b02e:	02de8733          	mul	a4,t4,a3
   1b032:	034686b3          	mul	a3,a3,s4
   1b036:	02055a13          	srli	s4,a0,0x20
   1b03a:	96be                	add	a3,a3,a5
   1b03c:	9a36                	add	s4,s4,a3
   1b03e:	00fa7563          	bgeu	s4,a5,1b048 <__multf3+0x264>
   1b042:	4785                	li	a5,1
   1b044:	1782                	slli	a5,a5,0x20
   1b046:	973e                	add	a4,a4,a5
   1b048:	56fd                	li	a3,-1
   1b04a:	9281                	srli	a3,a3,0x20
   1b04c:	00da75b3          	and	a1,s4,a3
   1b050:	8d75                	and	a0,a0,a3
   1b052:	1582                	slli	a1,a1,0x20
   1b054:	0203d893          	srli	a7,t2,0x20
   1b058:	020f5793          	srli	a5,t5,0x20
   1b05c:	020a5e93          	srli	t4,s4,0x20
   1b060:	95aa                	add	a1,a1,a0
   1b062:	00d3f533          	and	a0,t2,a3
   1b066:	00df76b3          	and	a3,t5,a3
   1b06a:	02f88b33          	mul	s6,a7,a5
   1b06e:	9eba                	add	t4,t4,a4
   1b070:	02a787b3          	mul	a5,a5,a0
   1b074:	02a68733          	mul	a4,a3,a0
   1b078:	02d886b3          	mul	a3,a7,a3
   1b07c:	00d78533          	add	a0,a5,a3
   1b080:	02075793          	srli	a5,a4,0x20
   1b084:	97aa                	add	a5,a5,a0
   1b086:	00d7f563          	bgeu	a5,a3,1b090 <__multf3+0x2ac>
   1b08a:	4685                	li	a3,1
   1b08c:	1682                	slli	a3,a3,0x20
   1b08e:	9b36                	add	s6,s6,a3
   1b090:	58fd                	li	a7,-1
   1b092:	0208d893          	srli	a7,a7,0x20
   1b096:	0117f6b3          	and	a3,a5,a7
   1b09a:	02045b93          	srli	s7,s0,0x20
   1b09e:	0207da13          	srli	s4,a5,0x20
   1b0a2:	01147433          	and	s0,s0,a7
   1b0a6:	0209d793          	srli	a5,s3,0x20
   1b0aa:	0119f9b3          	and	s3,s3,a7
   1b0ae:	01177533          	and	a0,a4,a7
   1b0b2:	028988b3          	mul	a7,s3,s0
   1b0b6:	1682                	slli	a3,a3,0x20
   1b0b8:	9536                	add	a0,a0,a3
   1b0ba:	02878433          	mul	s0,a5,s0
   1b0be:	037787b3          	mul	a5,a5,s7
   1b0c2:	033b8bb3          	mul	s7,s7,s3
   1b0c6:	0208d993          	srli	s3,a7,0x20
   1b0ca:	9ba2                	add	s7,s7,s0
   1b0cc:	99de                	add	s3,s3,s7
   1b0ce:	0089f563          	bgeu	s3,s0,1b0d8 <__multf3+0x2f4>
   1b0d2:	4705                	li	a4,1
   1b0d4:	1702                	slli	a4,a4,0x20
   1b0d6:	97ba                	add	a5,a5,a4
   1b0d8:	0209d693          	srli	a3,s3,0x20
   1b0dc:	97b6                	add	a5,a5,a3
   1b0de:	56fd                	li	a3,-1
   1b0e0:	9281                	srli	a3,a3,0x20
   1b0e2:	00d8f8b3          	and	a7,a7,a3
   1b0e6:	00d9f733          	and	a4,s3,a3
   1b0ea:	01d506b3          	add	a3,a0,t4
   1b0ee:	01d6b533          	sltu	a0,a3,t4
   1b0f2:	1702                	slli	a4,a4,0x20
   1b0f4:	40600333          	neg	t1,t1
   1b0f8:	9746                	add	a4,a4,a7
   1b0fa:	00aa08b3          	add	a7,s4,a0
   1b0fe:	98da                	add	a7,a7,s6
   1b100:	007373b3          	and	t2,t1,t2
   1b104:	41c00e33          	neg	t3,t3
   1b108:	93c6                	add	t2,t2,a7
   1b10a:	01ee7f33          	and	t5,t3,t5
   1b10e:	00a8b533          	sltu	a0,a7,a0
   1b112:	005fffb3          	and	t6,t6,t0
   1b116:	9f1e                	add	t5,t5,t2
   1b118:	0113b8b3          	sltu	a7,t2,a7
   1b11c:	957e                	add	a0,a0,t6
   1b11e:	40b68333          	sub	t1,a3,a1
   1b122:	9546                	add	a0,a0,a7
   1b124:	0066be33          	sltu	t3,a3,t1
   1b128:	41df08b3          	sub	a7,t5,t4
   1b12c:	007f33b3          	sltu	t2,t5,t2
   1b130:	011f3fb3          	sltu	t6,t5,a7
   1b134:	951e                	add	a0,a0,t2
   1b136:	41c888b3          	sub	a7,a7,t3
   1b13a:	4e01                	li	t3,0
   1b13c:	0066f663          	bgeu	a3,t1,1b148 <__multf3+0x364>
   1b140:	41ee8f33          	sub	t5,t4,t5
   1b144:	001f3e13          	seqz	t3,t5
   1b148:	01fe6f33          	or	t5,t3,t6
   1b14c:	40e30e33          	sub	t3,t1,a4
   1b150:	40f886b3          	sub	a3,a7,a5
   1b154:	953e                	add	a0,a0,a5
   1b156:	01c337b3          	sltu	a5,t1,t3
   1b15a:	00d8b8b3          	sltu	a7,a7,a3
   1b15e:	40f707b3          	sub	a5,a4,a5
   1b162:	4f81                	li	t6,0
   1b164:	01c37463          	bgeu	t1,t3,1b16c <__multf3+0x388>
   1b168:	0016bf93          	seqz	t6,a3
   1b16c:	96be                	add	a3,a3,a5
   1b16e:	00e6b733          	sltu	a4,a3,a4
   1b172:	972a                	add	a4,a4,a0
   1b174:	00de1793          	slli	a5,t3,0xd
   1b178:	41e70733          	sub	a4,a4,t5
   1b17c:	011fe8b3          	or	a7,t6,a7
   1b180:	8fcd                	or	a5,a5,a1
   1b182:	41170733          	sub	a4,a4,a7
   1b186:	00f037b3          	snez	a5,a5
   1b18a:	033e5513          	srli	a0,t3,0x33
   1b18e:	0736                	slli	a4,a4,0xd
   1b190:	0336d413          	srli	s0,a3,0x33
   1b194:	8fc9                	or	a5,a5,a0
   1b196:	06b6                	slli	a3,a3,0xd
   1b198:	8fd5                	or	a5,a5,a3
   1b19a:	00b71693          	slli	a3,a4,0xb
   1b19e:	8c59                	or	s0,s0,a4
   1b1a0:	0606da63          	bgez	a3,1b214 <__multf3+0x430>
   1b1a4:	0017d713          	srli	a4,a5,0x1
   1b1a8:	8b85                	andi	a5,a5,1
   1b1aa:	03f41513          	slli	a0,s0,0x3f
   1b1ae:	8fd9                	or	a5,a5,a4
   1b1b0:	8fc9                	or	a5,a5,a0
   1b1b2:	8005                	srli	s0,s0,0x1
   1b1b4:	6711                	lui	a4,0x4
   1b1b6:	177d                	addi	a4,a4,-1
   1b1b8:	9742                	add	a4,a4,a6
   1b1ba:	0ce05263          	blez	a4,1b27e <__multf3+0x49a>
   1b1be:	0077f693          	andi	a3,a5,7
   1b1c2:	c2a5                	beqz	a3,1b222 <__multf3+0x43e>
   1b1c4:	4689                	li	a3,2
   1b1c6:	0014e493          	ori	s1,s1,1
   1b1ca:	04d90b63          	beq	s2,a3,1b220 <__multf3+0x43c>
   1b1ce:	468d                	li	a3,3
   1b1d0:	04d90463          	beq	s2,a3,1b218 <__multf3+0x434>
   1b1d4:	04091763          	bnez	s2,1b222 <__multf3+0x43e>
   1b1d8:	00f7f693          	andi	a3,a5,15
   1b1dc:	4591                	li	a1,4
   1b1de:	04b68263          	beq	a3,a1,1b222 <__multf3+0x43e>
   1b1e2:	00478693          	addi	a3,a5,4
   1b1e6:	00f6b7b3          	sltu	a5,a3,a5
   1b1ea:	943e                	add	s0,s0,a5
   1b1ec:	87b6                	mv	a5,a3
   1b1ee:	a815                	j	1b222 <__multf3+0x43e>
   1b1f0:	865e                	mv	a2,s7
   1b1f2:	844e                	mv	s0,s3
   1b1f4:	87d2                	mv	a5,s4
   1b1f6:	8762                	mv	a4,s8
   1b1f8:	4689                	li	a3,2
   1b1fa:	1ed70363          	beq	a4,a3,1b3e0 <__multf3+0x5fc>
   1b1fe:	468d                	li	a3,3
   1b200:	1ed70563          	beq	a4,a3,1b3ea <__multf3+0x606>
   1b204:	4685                	li	a3,1
   1b206:	fad717e3          	bne	a4,a3,1b1b4 <__multf3+0x3d0>
   1b20a:	4401                	li	s0,0
   1b20c:	4501                	li	a0,0
   1b20e:	a2c1                	j	1b3ce <__multf3+0x5ea>
   1b210:	865a                	mv	a2,s6
   1b212:	b7dd                	j	1b1f8 <__multf3+0x414>
   1b214:	8856                	mv	a6,s5
   1b216:	bf79                	j	1b1b4 <__multf3+0x3d0>
   1b218:	e609                	bnez	a2,1b222 <__multf3+0x43e>
   1b21a:	00878693          	addi	a3,a5,8
   1b21e:	b7e1                	j	1b1e6 <__multf3+0x402>
   1b220:	fe6d                	bnez	a2,1b21a <__multf3+0x436>
   1b222:	00b41693          	slli	a3,s0,0xb
   1b226:	0006d863          	bgez	a3,1b236 <__multf3+0x452>
   1b22a:	577d                	li	a4,-1
   1b22c:	1752                	slli	a4,a4,0x34
   1b22e:	177d                	addi	a4,a4,-1
   1b230:	8c79                	and	s0,s0,a4
   1b232:	6711                	lui	a4,0x4
   1b234:	9742                	add	a4,a4,a6
   1b236:	66a1                	lui	a3,0x8
   1b238:	ffe68593          	addi	a1,a3,-2 # 7ffe <register_fini-0x80ea>
   1b23c:	00e5c963          	blt	a1,a4,1b24e <__multf3+0x46a>
   1b240:	0037d513          	srli	a0,a5,0x3
   1b244:	03d41793          	slli	a5,s0,0x3d
   1b248:	8d5d                	or	a0,a0,a5
   1b24a:	800d                	srli	s0,s0,0x3
   1b24c:	b349                	j	1afce <__multf3+0x1ea>
   1b24e:	4789                	li	a5,2
   1b250:	02f90263          	beq	s2,a5,1b274 <__multf3+0x490>
   1b254:	478d                	li	a5,3
   1b256:	fff68713          	addi	a4,a3,-1
   1b25a:	00f90663          	beq	s2,a5,1b266 <__multf3+0x482>
   1b25e:	00091563          	bnez	s2,1b268 <__multf3+0x484>
   1b262:	4501                	li	a0,0
   1b264:	a021                	j	1b26c <__multf3+0x488>
   1b266:	de75                	beqz	a2,1b262 <__multf3+0x47e>
   1b268:	557d                	li	a0,-1
   1b26a:	872e                	mv	a4,a1
   1b26c:	0054e493          	ori	s1,s1,5
   1b270:	842a                	mv	s0,a0
   1b272:	bbb1                	j	1afce <__multf3+0x1ea>
   1b274:	da75                	beqz	a2,1b268 <__multf3+0x484>
   1b276:	4501                	li	a0,0
   1b278:	fff68713          	addi	a4,a3,-1
   1b27c:	bfc5                	j	1b26c <__multf3+0x488>
   1b27e:	4685                	li	a3,1
   1b280:	eb21                	bnez	a4,1b2d0 <__multf3+0x4ec>
   1b282:	0077f593          	andi	a1,a5,7
   1b286:	86a2                	mv	a3,s0
   1b288:	c1a1                	beqz	a1,1b2c8 <__multf3+0x4e4>
   1b28a:	4689                	li	a3,2
   1b28c:	0014e493          	ori	s1,s1,1
   1b290:	02d90a63          	beq	s2,a3,1b2c4 <__multf3+0x4e0>
   1b294:	468d                	li	a3,3
   1b296:	02d90263          	beq	s2,a3,1b2ba <__multf3+0x4d6>
   1b29a:	86a2                	mv	a3,s0
   1b29c:	02091663          	bnez	s2,1b2c8 <__multf3+0x4e4>
   1b2a0:	00f7f593          	andi	a1,a5,15
   1b2a4:	4511                	li	a0,4
   1b2a6:	02a58163          	beq	a1,a0,1b2c8 <__multf3+0x4e4>
   1b2aa:	ffc7b693          	sltiu	a3,a5,-4
   1b2ae:	0016c693          	xori	a3,a3,1
   1b2b2:	1682                	slli	a3,a3,0x20
   1b2b4:	9281                	srli	a3,a3,0x20
   1b2b6:	96a2                	add	a3,a3,s0
   1b2b8:	a801                	j	1b2c8 <__multf3+0x4e4>
   1b2ba:	86a2                	mv	a3,s0
   1b2bc:	e611                	bnez	a2,1b2c8 <__multf3+0x4e4>
   1b2be:	ff87b693          	sltiu	a3,a5,-8
   1b2c2:	b7f5                	j	1b2ae <__multf3+0x4ca>
   1b2c4:	86a2                	mv	a3,s0
   1b2c6:	fe65                	bnez	a2,1b2be <__multf3+0x4da>
   1b2c8:	92d1                	srli	a3,a3,0x34
   1b2ca:	0016c693          	xori	a3,a3,1
   1b2ce:	8a85                	andi	a3,a3,1
   1b2d0:	4805                	li	a6,1
   1b2d2:	40e80833          	sub	a6,a6,a4
   1b2d6:	07400713          	li	a4,116
   1b2da:	0d074663          	blt	a4,a6,1b3a6 <__multf3+0x5c2>
   1b2de:	03f00593          	li	a1,63
   1b2e2:	0008071b          	sext.w	a4,a6
   1b2e6:	0505cb63          	blt	a1,a6,1b33c <__multf3+0x558>
   1b2ea:	04000593          	li	a1,64
   1b2ee:	9d99                	subw	a1,a1,a4
   1b2f0:	00b41533          	sll	a0,s0,a1
   1b2f4:	00e7d833          	srl	a6,a5,a4
   1b2f8:	00b797b3          	sll	a5,a5,a1
   1b2fc:	01056533          	or	a0,a0,a6
   1b300:	00f037b3          	snez	a5,a5
   1b304:	8d5d                	or	a0,a0,a5
   1b306:	00e45433          	srl	s0,s0,a4
   1b30a:	00757793          	andi	a5,a0,7
   1b30e:	c3ad                	beqz	a5,1b370 <__multf3+0x58c>
   1b310:	4789                	li	a5,2
   1b312:	0014e493          	ori	s1,s1,1
   1b316:	04f90c63          	beq	s2,a5,1b36e <__multf3+0x58a>
   1b31a:	478d                	li	a5,3
   1b31c:	04f90563          	beq	s2,a5,1b366 <__multf3+0x582>
   1b320:	04091863          	bnez	s2,1b370 <__multf3+0x58c>
   1b324:	00f57793          	andi	a5,a0,15
   1b328:	4711                	li	a4,4
   1b32a:	04e78363          	beq	a5,a4,1b370 <__multf3+0x58c>
   1b32e:	00450793          	addi	a5,a0,4
   1b332:	00a7b533          	sltu	a0,a5,a0
   1b336:	942a                	add	s0,s0,a0
   1b338:	853e                	mv	a0,a5
   1b33a:	a81d                	j	1b370 <__multf3+0x58c>
   1b33c:	fc07051b          	addiw	a0,a4,-64
   1b340:	04000893          	li	a7,64
   1b344:	00a45533          	srl	a0,s0,a0
   1b348:	4581                	li	a1,0
   1b34a:	01180863          	beq	a6,a7,1b35a <__multf3+0x576>
   1b34e:	08000593          	li	a1,128
   1b352:	40e5873b          	subw	a4,a1,a4
   1b356:	00e415b3          	sll	a1,s0,a4
   1b35a:	8fcd                	or	a5,a5,a1
   1b35c:	00f037b3          	snez	a5,a5
   1b360:	8d5d                	or	a0,a0,a5
   1b362:	4401                	li	s0,0
   1b364:	b75d                	j	1b30a <__multf3+0x526>
   1b366:	e609                	bnez	a2,1b370 <__multf3+0x58c>
   1b368:	00850793          	addi	a5,a0,8
   1b36c:	b7d9                	j	1b332 <__multf3+0x54e>
   1b36e:	fe6d                	bnez	a2,1b368 <__multf3+0x584>
   1b370:	00c41793          	slli	a5,s0,0xc
   1b374:	0007dc63          	bgez	a5,1b38c <__multf3+0x5a8>
   1b378:	0014e493          	ori	s1,s1,1
   1b37c:	4401                	li	s0,0
   1b37e:	4501                	li	a0,0
   1b380:	4705                	li	a4,1
   1b382:	c40686e3          	beqz	a3,1afce <__multf3+0x1ea>
   1b386:	0024e493          	ori	s1,s1,2
   1b38a:	b191                	j	1afce <__multf3+0x1ea>
   1b38c:	03d41793          	slli	a5,s0,0x3d
   1b390:	810d                	srli	a0,a0,0x3
   1b392:	8d5d                	or	a0,a0,a5
   1b394:	800d                	srli	s0,s0,0x3
   1b396:	4701                	li	a4,0
   1b398:	c2068be3          	beqz	a3,1afce <__multf3+0x1ea>
   1b39c:	0014f793          	andi	a5,s1,1
   1b3a0:	c20787e3          	beqz	a5,1afce <__multf3+0x1ea>
   1b3a4:	b7cd                	j	1b386 <__multf3+0x5a2>
   1b3a6:	0087e533          	or	a0,a5,s0
   1b3aa:	cd19                	beqz	a0,1b3c8 <__multf3+0x5e4>
   1b3ac:	4789                	li	a5,2
   1b3ae:	0014e493          	ori	s1,s1,1
   1b3b2:	02f90463          	beq	s2,a5,1b3da <__multf3+0x5f6>
   1b3b6:	478d                	li	a5,3
   1b3b8:	00f90d63          	beq	s2,a5,1b3d2 <__multf3+0x5ee>
   1b3bc:	4785                	li	a5,1
   1b3be:	00091363          	bnez	s2,1b3c4 <__multf3+0x5e0>
   1b3c2:	4795                	li	a5,5
   1b3c4:	0037d513          	srli	a0,a5,0x3
   1b3c8:	0024e493          	ori	s1,s1,2
   1b3cc:	4401                	li	s0,0
   1b3ce:	4701                	li	a4,0
   1b3d0:	befd                	j	1afce <__multf3+0x1ea>
   1b3d2:	47a5                	li	a5,9
   1b3d4:	da65                	beqz	a2,1b3c4 <__multf3+0x5e0>
   1b3d6:	4785                	li	a5,1
   1b3d8:	b7f5                	j	1b3c4 <__multf3+0x5e0>
   1b3da:	47a5                	li	a5,9
   1b3dc:	f665                	bnez	a2,1b3c4 <__multf3+0x5e0>
   1b3de:	bfe5                	j	1b3d6 <__multf3+0x5f2>
   1b3e0:	6721                	lui	a4,0x8
   1b3e2:	4401                	li	s0,0
   1b3e4:	4501                	li	a0,0
   1b3e6:	177d                	addi	a4,a4,-1
   1b3e8:	b6dd                	j	1afce <__multf3+0x1ea>
   1b3ea:	4405                	li	s0,1
   1b3ec:	6721                	lui	a4,0x8
   1b3ee:	143e                	slli	s0,s0,0x2f
   1b3f0:	4501                	li	a0,0
   1b3f2:	177d                	addi	a4,a4,-1
   1b3f4:	4601                	li	a2,0
   1b3f6:	bee1                	j	1afce <__multf3+0x1ea>

000000000001b3f8 <__subtf3>:
   1b3f8:	7179                	addi	sp,sp,-48
   1b3fa:	f406                	sd	ra,40(sp)
   1b3fc:	f022                	sd	s0,32(sp)
   1b3fe:	ec26                	sd	s1,24(sp)
   1b400:	e84a                	sd	s2,16(sp)
   1b402:	e44e                	sd	s3,8(sp)
   1b404:	e052                	sd	s4,0(sp)
   1b406:	00202473          	frrm	s0
   1b40a:	537d                	li	t1,-1
   1b40c:	01035313          	srli	t1,t1,0x10
   1b410:	0305d893          	srli	a7,a1,0x30
   1b414:	6721                	lui	a4,0x8
   1b416:	03f5d493          	srli	s1,a1,0x3f
   1b41a:	0065f5b3          	and	a1,a1,t1
   1b41e:	177d                	addi	a4,a4,-1
   1b420:	058e                	slli	a1,a1,0x3
   1b422:	03d55793          	srli	a5,a0,0x3d
   1b426:	0306de13          	srli	t3,a3,0x30
   1b42a:	03f6de93          	srli	t4,a3,0x3f
   1b42e:	0066f6b3          	and	a3,a3,t1
   1b432:	00e8f8b3          	and	a7,a7,a4
   1b436:	8fcd                	or	a5,a5,a1
   1b438:	00ee7e33          	and	t3,t3,a4
   1b43c:	03d65593          	srli	a1,a2,0x3d
   1b440:	068e                	slli	a3,a3,0x3
   1b442:	2401                	sext.w	s0,s0
   1b444:	89c6                	mv	s3,a7
   1b446:	050e                	slli	a0,a0,0x3
   1b448:	8872                	mv	a6,t3
   1b44a:	8dd5                	or	a1,a1,a3
   1b44c:	060e                	slli	a2,a2,0x3
   1b44e:	00ee1563          	bne	t3,a4,1b458 <__subtf3+0x60>
   1b452:	00c5e733          	or	a4,a1,a2
   1b456:	e319                	bnez	a4,1b45c <__subtf3+0x64>
   1b458:	001ece93          	xori	t4,t4,1
   1b45c:	41c8873b          	subw	a4,a7,t3
   1b460:	6f21                	lui	t5,0x8
   1b462:	0007069b          	sext.w	a3,a4
   1b466:	ffff0313          	addi	t1,t5,-1 # 7fff <register_fini-0x80e9>
   1b46a:	369e9663          	bne	t4,s1,1b7d6 <__subtf3+0x3de>
   1b46e:	10d05263          	blez	a3,1b572 <__subtf3+0x17a>
   1b472:	080e1263          	bnez	t3,1b4f6 <__subtf3+0xfe>
   1b476:	00c5e6b3          	or	a3,a1,a2
   1b47a:	ee91                	bnez	a3,1b496 <__subtf3+0x9e>
   1b47c:	6c689463          	bne	a7,t1,1bb44 <__subtf3+0x74c>
   1b480:	00a7e733          	or	a4,a5,a0
   1b484:	70070b63          	beqz	a4,1bb9a <__subtf3+0x7a2>
   1b488:	00d79713          	slli	a4,a5,0xd
   1b48c:	8846                	mv	a6,a7
   1b48e:	04074563          	bltz	a4,1b4d8 <__subtf3+0xe0>
   1b492:	4741                	li	a4,16
   1b494:	a2e5                	j	1b67c <__subtf3+0x284>
   1b496:	fff7069b          	addiw	a3,a4,-1
   1b49a:	e2a9                	bnez	a3,1b4dc <__subtf3+0xe4>
   1b49c:	962a                	add	a2,a2,a0
   1b49e:	97ae                	add	a5,a5,a1
   1b4a0:	00a63533          	sltu	a0,a2,a0
   1b4a4:	97aa                	add	a5,a5,a0
   1b4a6:	8532                	mv	a0,a2
   1b4a8:	00c79713          	slli	a4,a5,0xc
   1b4ac:	68075c63          	bgez	a4,1bb44 <__subtf3+0x74c>
   1b4b0:	6721                	lui	a4,0x8
   1b4b2:	00198813          	addi	a6,s3,1
   1b4b6:	fff70693          	addi	a3,a4,-1 # 7fff <register_fini-0x80e9>
   1b4ba:	2ed80e63          	beq	a6,a3,1b7b6 <__subtf3+0x3be>
   1b4be:	577d                	li	a4,-1
   1b4c0:	174e                	slli	a4,a4,0x33
   1b4c2:	177d                	addi	a4,a4,-1
   1b4c4:	8f7d                	and	a4,a4,a5
   1b4c6:	00155693          	srli	a3,a0,0x1
   1b4ca:	8905                	andi	a0,a0,1
   1b4cc:	03f71793          	slli	a5,a4,0x3f
   1b4d0:	8d55                	or	a0,a0,a3
   1b4d2:	8d5d                	or	a0,a0,a5
   1b4d4:	00175793          	srli	a5,a4,0x1
   1b4d8:	4681                	li	a3,0
   1b4da:	a469                	j	1b764 <__subtf3+0x36c>
   1b4dc:	02689263          	bne	a7,t1,1b500 <__subtf3+0x108>
   1b4e0:	00a7e733          	or	a4,a5,a0
   1b4e4:	6a070b63          	beqz	a4,1bb9a <__subtf3+0x7a2>
   1b4e8:	00d79713          	slli	a4,a5,0xd
   1b4ec:	8846                	mv	a6,a7
   1b4ee:	4681                	li	a3,0
   1b4f0:	26074a63          	bltz	a4,1b764 <__subtf3+0x36c>
   1b4f4:	bf79                	j	1b492 <__subtf3+0x9a>
   1b4f6:	fe6885e3          	beq	a7,t1,1b4e0 <__subtf3+0xe8>
   1b4fa:	4705                	li	a4,1
   1b4fc:	174e                	slli	a4,a4,0x33
   1b4fe:	8dd9                	or	a1,a1,a4
   1b500:	07400713          	li	a4,116
   1b504:	06d74363          	blt	a4,a3,1b56a <__subtf3+0x172>
   1b508:	03f00713          	li	a4,63
   1b50c:	02d74963          	blt	a4,a3,1b53e <__subtf3+0x146>
   1b510:	04000813          	li	a6,64
   1b514:	40d8083b          	subw	a6,a6,a3
   1b518:	00d658b3          	srl	a7,a2,a3
   1b51c:	01059733          	sll	a4,a1,a6
   1b520:	01061633          	sll	a2,a2,a6
   1b524:	01176733          	or	a4,a4,a7
   1b528:	00c03633          	snez	a2,a2
   1b52c:	8e59                	or	a2,a2,a4
   1b52e:	00d5d6b3          	srl	a3,a1,a3
   1b532:	962a                	add	a2,a2,a0
   1b534:	96be                	add	a3,a3,a5
   1b536:	00a637b3          	sltu	a5,a2,a0
   1b53a:	97b6                	add	a5,a5,a3
   1b53c:	b7ad                	j	1b4a6 <__subtf3+0xae>
   1b53e:	fc06871b          	addiw	a4,a3,-64
   1b542:	04000893          	li	a7,64
   1b546:	00e5d733          	srl	a4,a1,a4
   1b54a:	4801                	li	a6,0
   1b54c:	01168863          	beq	a3,a7,1b55c <__subtf3+0x164>
   1b550:	08000813          	li	a6,128
   1b554:	40d806bb          	subw	a3,a6,a3
   1b558:	00d59833          	sll	a6,a1,a3
   1b55c:	00c86633          	or	a2,a6,a2
   1b560:	00c03633          	snez	a2,a2
   1b564:	8e59                	or	a2,a2,a4
   1b566:	4681                	li	a3,0
   1b568:	b7e9                	j	1b532 <__subtf3+0x13a>
   1b56a:	8e4d                	or	a2,a2,a1
   1b56c:	00c03633          	snez	a2,a2
   1b570:	bfdd                	j	1b566 <__subtf3+0x16e>
   1b572:	c2f9                	beqz	a3,1b638 <__subtf3+0x240>
   1b574:	08089063          	bnez	a7,1b5f4 <__subtf3+0x1fc>
   1b578:	00a7e8b3          	or	a7,a5,a0
   1b57c:	02089063          	bnez	a7,1b59c <__subtf3+0x1a4>
   1b580:	5c6e1663          	bne	t3,t1,1bb4c <__subtf3+0x754>
   1b584:	00c5e533          	or	a0,a1,a2
   1b588:	60050363          	beqz	a0,1bb8e <__subtf3+0x796>
   1b58c:	00d59793          	slli	a5,a1,0xd
   1b590:	6007c263          	bltz	a5,1bb94 <__subtf3+0x79c>
   1b594:	87ae                	mv	a5,a1
   1b596:	8532                	mv	a0,a2
   1b598:	4681                	li	a3,0
   1b59a:	bde5                	j	1b492 <__subtf3+0x9a>
   1b59c:	58fd                	li	a7,-1
   1b59e:	01169963          	bne	a3,a7,1b5b0 <__subtf3+0x1b8>
   1b5a2:	9532                	add	a0,a0,a2
   1b5a4:	97ae                	add	a5,a5,a1
   1b5a6:	00c53633          	sltu	a2,a0,a2
   1b5aa:	97b2                	add	a5,a5,a2
   1b5ac:	89f2                	mv	s3,t3
   1b5ae:	bded                	j	1b4a8 <__subtf3+0xb0>
   1b5b0:	fc6e0ae3          	beq	t3,t1,1b584 <__subtf3+0x18c>
   1b5b4:	fff74693          	not	a3,a4
   1b5b8:	2681                	sext.w	a3,a3
   1b5ba:	07400713          	li	a4,116
   1b5be:	06d74963          	blt	a4,a3,1b630 <__subtf3+0x238>
   1b5c2:	03f00713          	li	a4,63
   1b5c6:	02d74f63          	blt	a4,a3,1b604 <__subtf3+0x20c>
   1b5ca:	04000813          	li	a6,64
   1b5ce:	40d8083b          	subw	a6,a6,a3
   1b5d2:	00d558b3          	srl	a7,a0,a3
   1b5d6:	01079733          	sll	a4,a5,a6
   1b5da:	01051533          	sll	a0,a0,a6
   1b5de:	01176733          	or	a4,a4,a7
   1b5e2:	00a03533          	snez	a0,a0
   1b5e6:	8d59                	or	a0,a0,a4
   1b5e8:	00d7d6b3          	srl	a3,a5,a3
   1b5ec:	9532                	add	a0,a0,a2
   1b5ee:	00b687b3          	add	a5,a3,a1
   1b5f2:	bf55                	j	1b5a6 <__subtf3+0x1ae>
   1b5f4:	f86e08e3          	beq	t3,t1,1b584 <__subtf3+0x18c>
   1b5f8:	40e006bb          	negw	a3,a4
   1b5fc:	4705                	li	a4,1
   1b5fe:	174e                	slli	a4,a4,0x33
   1b600:	8fd9                	or	a5,a5,a4
   1b602:	bf65                	j	1b5ba <__subtf3+0x1c2>
   1b604:	fc06871b          	addiw	a4,a3,-64
   1b608:	04000893          	li	a7,64
   1b60c:	00e7d733          	srl	a4,a5,a4
   1b610:	4801                	li	a6,0
   1b612:	01168863          	beq	a3,a7,1b622 <__subtf3+0x22a>
   1b616:	08000813          	li	a6,128
   1b61a:	40d806bb          	subw	a3,a6,a3
   1b61e:	00d79833          	sll	a6,a5,a3
   1b622:	00a86533          	or	a0,a6,a0
   1b626:	00a03533          	snez	a0,a0
   1b62a:	8d59                	or	a0,a0,a4
   1b62c:	4681                	li	a3,0
   1b62e:	bf7d                	j	1b5ec <__subtf3+0x1f4>
   1b630:	8d5d                	or	a0,a0,a5
   1b632:	00a03533          	snez	a0,a0
   1b636:	bfdd                	j	1b62c <__subtf3+0x234>
   1b638:	00188813          	addi	a6,a7,1
   1b63c:	ffef0713          	addi	a4,t5,-2
   1b640:	00e87eb3          	and	t4,a6,a4
   1b644:	100e9263          	bnez	t4,1b748 <__subtf3+0x350>
   1b648:	00a7e833          	or	a6,a5,a0
   1b64c:	04089063          	bnez	a7,1b68c <__subtf3+0x294>
   1b650:	50080763          	beqz	a6,1bb5e <__subtf3+0x766>
   1b654:	00c5e733          	or	a4,a1,a2
   1b658:	32070c63          	beqz	a4,1b990 <__subtf3+0x598>
   1b65c:	962a                	add	a2,a2,a0
   1b65e:	97ae                	add	a5,a5,a1
   1b660:	00a63533          	sltu	a0,a2,a0
   1b664:	97aa                	add	a5,a5,a0
   1b666:	00c79713          	slli	a4,a5,0xc
   1b66a:	4e075b63          	bgez	a4,1bb60 <__subtf3+0x768>
   1b66e:	577d                	li	a4,-1
   1b670:	174e                	slli	a4,a4,0x33
   1b672:	177d                	addi	a4,a4,-1
   1b674:	8ff9                	and	a5,a5,a4
   1b676:	8532                	mv	a0,a2
   1b678:	4701                	li	a4,0
   1b67a:	4805                	li	a6,1
   1b67c:	00757613          	andi	a2,a0,7
   1b680:	10061563          	bnez	a2,1b78a <__subtf3+0x392>
   1b684:	cea9                	beqz	a3,1b6de <__subtf3+0x2e6>
   1b686:	00177693          	andi	a3,a4,1
   1b68a:	a3a1                	j	1bbd2 <__subtf3+0x7da>
   1b68c:	02689c63          	bne	a7,t1,1b6c4 <__subtf3+0x2cc>
   1b690:	56080c63          	beqz	a6,1bc08 <__subtf3+0x810>
   1b694:	0327d713          	srli	a4,a5,0x32
   1b698:	8b05                	andi	a4,a4,1
   1b69a:	00173713          	seqz	a4,a4
   1b69e:	0712                	slli	a4,a4,0x4
   1b6a0:	031e1763          	bne	t3,a7,1b6ce <__subtf3+0x2d6>
   1b6a4:	00c5e8b3          	or	a7,a1,a2
   1b6a8:	00088763          	beqz	a7,1b6b6 <__subtf3+0x2be>
   1b6ac:	00d59893          	slli	a7,a1,0xd
   1b6b0:	0008c363          	bltz	a7,1b6b6 <__subtf3+0x2be>
   1b6b4:	4741                	li	a4,16
   1b6b6:	00081c63          	bnez	a6,1b6ce <__subtf3+0x2d6>
   1b6ba:	87ae                	mv	a5,a1
   1b6bc:	8532                	mv	a0,a2
   1b6be:	6821                	lui	a6,0x8
   1b6c0:	187d                	addi	a6,a6,-1
   1b6c2:	bf6d                	j	1b67c <__subtf3+0x284>
   1b6c4:	4701                	li	a4,0
   1b6c6:	fe6e18e3          	bne	t3,t1,1b6b6 <__subtf3+0x2be>
   1b6ca:	4701                	li	a4,0
   1b6cc:	bfe1                	j	1b6a4 <__subtf3+0x2ac>
   1b6ce:	8e4d                	or	a2,a2,a1
   1b6d0:	d67d                	beqz	a2,1b6be <__subtf3+0x2c6>
   1b6d2:	4785                	li	a5,1
   1b6d4:	6821                	lui	a6,0x8
   1b6d6:	4481                	li	s1,0
   1b6d8:	17ca                	slli	a5,a5,0x32
   1b6da:	4501                	li	a0,0
   1b6dc:	187d                	addi	a6,a6,-1
   1b6de:	00c79693          	slli	a3,a5,0xc
   1b6e2:	0006dc63          	bgez	a3,1b6fa <__subtf3+0x302>
   1b6e6:	66a1                	lui	a3,0x8
   1b6e8:	0805                	addi	a6,a6,1
   1b6ea:	fff68613          	addi	a2,a3,-1 # 7fff <register_fini-0x80e9>
   1b6ee:	4ec80763          	beq	a6,a2,1bbdc <__subtf3+0x7e4>
   1b6f2:	56fd                	li	a3,-1
   1b6f4:	16ce                	slli	a3,a3,0x33
   1b6f6:	16fd                	addi	a3,a3,-1
   1b6f8:	8ff5                	and	a5,a5,a3
   1b6fa:	00355693          	srli	a3,a0,0x3
   1b6fe:	03d79513          	slli	a0,a5,0x3d
   1b702:	8d55                	or	a0,a0,a3
   1b704:	66a1                	lui	a3,0x8
   1b706:	16fd                	addi	a3,a3,-1
   1b708:	838d                	srli	a5,a5,0x3
   1b70a:	00d81963          	bne	a6,a3,1b71c <__subtf3+0x324>
   1b70e:	8d5d                	or	a0,a0,a5
   1b710:	4781                	li	a5,0
   1b712:	c509                	beqz	a0,1b71c <__subtf3+0x324>
   1b714:	4785                	li	a5,1
   1b716:	17be                	slli	a5,a5,0x2f
   1b718:	4501                	li	a0,0
   1b71a:	4481                	li	s1,0
   1b71c:	03181593          	slli	a1,a6,0x31
   1b720:	04be                	slli	s1,s1,0xf
   1b722:	91c5                	srli	a1,a1,0x31
   1b724:	8dc5                	or	a1,a1,s1
   1b726:	07c2                	slli	a5,a5,0x10
   1b728:	03059493          	slli	s1,a1,0x30
   1b72c:	0107d593          	srli	a1,a5,0x10
   1b730:	8dc5                	or	a1,a1,s1
   1b732:	c319                	beqz	a4,1b738 <__subtf3+0x340>
   1b734:	00172073          	csrs	fflags,a4
   1b738:	70a2                	ld	ra,40(sp)
   1b73a:	7402                	ld	s0,32(sp)
   1b73c:	64e2                	ld	s1,24(sp)
   1b73e:	6942                	ld	s2,16(sp)
   1b740:	69a2                	ld	s3,8(sp)
   1b742:	6a02                	ld	s4,0(sp)
   1b744:	6145                	addi	sp,sp,48
   1b746:	8082                	ret
   1b748:	02680063          	beq	a6,t1,1b768 <__subtf3+0x370>
   1b74c:	962a                	add	a2,a2,a0
   1b74e:	95be                	add	a1,a1,a5
   1b750:	00a637b3          	sltu	a5,a2,a0
   1b754:	95be                	add	a1,a1,a5
   1b756:	03f59793          	slli	a5,a1,0x3f
   1b75a:	8205                	srli	a2,a2,0x1
   1b75c:	00c7e533          	or	a0,a5,a2
   1b760:	0015d793          	srli	a5,a1,0x1
   1b764:	4701                	li	a4,0
   1b766:	bf19                	j	1b67c <__subtf3+0x284>
   1b768:	c409                	beqz	s0,1b772 <__subtf3+0x37a>
   1b76a:	478d                	li	a5,3
   1b76c:	00f41763          	bne	s0,a5,1b77a <__subtf3+0x382>
   1b770:	e889                	bnez	s1,1b782 <__subtf3+0x38a>
   1b772:	4781                	li	a5,0
   1b774:	4501                	li	a0,0
   1b776:	4715                	li	a4,5
   1b778:	b79d                	j	1b6de <__subtf3+0x2e6>
   1b77a:	4789                	li	a5,2
   1b77c:	00f41363          	bne	s0,a5,1b782 <__subtf3+0x38a>
   1b780:	f8ed                	bnez	s1,1b772 <__subtf3+0x37a>
   1b782:	57fd                	li	a5,-1
   1b784:	557d                	li	a0,-1
   1b786:	883a                	mv	a6,a4
   1b788:	4715                	li	a4,5
   1b78a:	4609                	li	a2,2
   1b78c:	00176713          	ori	a4,a4,1
   1b790:	44c40063          	beq	s0,a2,1bbd0 <__subtf3+0x7d8>
   1b794:	460d                	li	a2,3
   1b796:	42c40963          	beq	s0,a2,1bbc8 <__subtf3+0x7d0>
   1b79a:	42041c63          	bnez	s0,1bbd2 <__subtf3+0x7da>
   1b79e:	00f57613          	andi	a2,a0,15
   1b7a2:	4591                	li	a1,4
   1b7a4:	42b60763          	beq	a2,a1,1bbd2 <__subtf3+0x7da>
   1b7a8:	00450613          	addi	a2,a0,4
   1b7ac:	00a63533          	sltu	a0,a2,a0
   1b7b0:	97aa                	add	a5,a5,a0
   1b7b2:	8532                	mv	a0,a2
   1b7b4:	a939                	j	1bbd2 <__subtf3+0x7da>
   1b7b6:	dc55                	beqz	s0,1b772 <__subtf3+0x37a>
   1b7b8:	478d                	li	a5,3
   1b7ba:	00f41963          	bne	s0,a5,1b7cc <__subtf3+0x3d4>
   1b7be:	d8d5                	beqz	s1,1b772 <__subtf3+0x37a>
   1b7c0:	57fd                	li	a5,-1
   1b7c2:	557d                	li	a0,-1
   1b7c4:	ffe70813          	addi	a6,a4,-2
   1b7c8:	4681                	li	a3,0
   1b7ca:	bf7d                	j	1b788 <__subtf3+0x390>
   1b7cc:	4789                	li	a5,2
   1b7ce:	fef419e3          	bne	s0,a5,1b7c0 <__subtf3+0x3c8>
   1b7d2:	f0c5                	bnez	s1,1b772 <__subtf3+0x37a>
   1b7d4:	b7f5                	j	1b7c0 <__subtf3+0x3c8>
   1b7d6:	0ad05f63          	blez	a3,1b894 <__subtf3+0x49c>
   1b7da:	060e1d63          	bnez	t3,1b854 <__subtf3+0x45c>
   1b7de:	00c5e6b3          	or	a3,a1,a2
   1b7e2:	c8068de3          	beqz	a3,1b47c <__subtf3+0x84>
   1b7e6:	fff7069b          	addiw	a3,a4,-1
   1b7ea:	e28d                	bnez	a3,1b80c <__subtf3+0x414>
   1b7ec:	40c50633          	sub	a2,a0,a2
   1b7f0:	8f8d                	sub	a5,a5,a1
   1b7f2:	00c53533          	sltu	a0,a0,a2
   1b7f6:	8f89                	sub	a5,a5,a0
   1b7f8:	8532                	mv	a0,a2
   1b7fa:	00c79713          	slli	a4,a5,0xc
   1b7fe:	34075363          	bgez	a4,1bb44 <__subtf3+0x74c>
   1b802:	07b6                	slli	a5,a5,0xd
   1b804:	00d7d913          	srli	s2,a5,0xd
   1b808:	8a2a                	mv	s4,a0
   1b80a:	a441                	j	1ba8a <__subtf3+0x692>
   1b80c:	cc688ae3          	beq	a7,t1,1b4e0 <__subtf3+0xe8>
   1b810:	07400713          	li	a4,116
   1b814:	06d74c63          	blt	a4,a3,1b88c <__subtf3+0x494>
   1b818:	03f00713          	li	a4,63
   1b81c:	04d74263          	blt	a4,a3,1b860 <__subtf3+0x468>
   1b820:	04000813          	li	a6,64
   1b824:	40d8083b          	subw	a6,a6,a3
   1b828:	00d658b3          	srl	a7,a2,a3
   1b82c:	01059733          	sll	a4,a1,a6
   1b830:	01061633          	sll	a2,a2,a6
   1b834:	01176733          	or	a4,a4,a7
   1b838:	00c03633          	snez	a2,a2
   1b83c:	8e59                	or	a2,a2,a4
   1b83e:	00d5d6b3          	srl	a3,a1,a3
   1b842:	40c50633          	sub	a2,a0,a2
   1b846:	40d786b3          	sub	a3,a5,a3
   1b84a:	00c537b3          	sltu	a5,a0,a2
   1b84e:	40f687b3          	sub	a5,a3,a5
   1b852:	b75d                	j	1b7f8 <__subtf3+0x400>
   1b854:	c86886e3          	beq	a7,t1,1b4e0 <__subtf3+0xe8>
   1b858:	4705                	li	a4,1
   1b85a:	174e                	slli	a4,a4,0x33
   1b85c:	8dd9                	or	a1,a1,a4
   1b85e:	bf4d                	j	1b810 <__subtf3+0x418>
   1b860:	fc06871b          	addiw	a4,a3,-64
   1b864:	04000893          	li	a7,64
   1b868:	00e5d733          	srl	a4,a1,a4
   1b86c:	4801                	li	a6,0
   1b86e:	01168863          	beq	a3,a7,1b87e <__subtf3+0x486>
   1b872:	08000813          	li	a6,128
   1b876:	40d806bb          	subw	a3,a6,a3
   1b87a:	00d59833          	sll	a6,a1,a3
   1b87e:	00c86633          	or	a2,a6,a2
   1b882:	00c03633          	snez	a2,a2
   1b886:	8e59                	or	a2,a2,a4
   1b888:	4681                	li	a3,0
   1b88a:	bf65                	j	1b842 <__subtf3+0x44a>
   1b88c:	8e4d                	or	a2,a2,a1
   1b88e:	00c03633          	snez	a2,a2
   1b892:	bfdd                	j	1b888 <__subtf3+0x490>
   1b894:	c6f9                	beqz	a3,1b962 <__subtf3+0x56a>
   1b896:	08089463          	bnez	a7,1b91e <__subtf3+0x526>
   1b89a:	00a7e8b3          	or	a7,a5,a0
   1b89e:	02089063          	bnez	a7,1b8be <__subtf3+0x4c6>
   1b8a2:	2a6e1963          	bne	t3,t1,1bb54 <__subtf3+0x75c>
   1b8a6:	00c5e533          	or	a0,a1,a2
   1b8aa:	2e050c63          	beqz	a0,1bba2 <__subtf3+0x7aa>
   1b8ae:	00d59793          	slli	a5,a1,0xd
   1b8b2:	2e07cb63          	bltz	a5,1bba8 <__subtf3+0x7b0>
   1b8b6:	87ae                	mv	a5,a1
   1b8b8:	8532                	mv	a0,a2
   1b8ba:	84f6                	mv	s1,t4
   1b8bc:	b9f1                	j	1b598 <__subtf3+0x1a0>
   1b8be:	58fd                	li	a7,-1
   1b8c0:	01169c63          	bne	a3,a7,1b8d8 <__subtf3+0x4e0>
   1b8c4:	40a60533          	sub	a0,a2,a0
   1b8c8:	40f587b3          	sub	a5,a1,a5
   1b8cc:	00a63633          	sltu	a2,a2,a0
   1b8d0:	8f91                	sub	a5,a5,a2
   1b8d2:	89f2                	mv	s3,t3
   1b8d4:	84f6                	mv	s1,t4
   1b8d6:	b715                	j	1b7fa <__subtf3+0x402>
   1b8d8:	fc6e07e3          	beq	t3,t1,1b8a6 <__subtf3+0x4ae>
   1b8dc:	fff74693          	not	a3,a4
   1b8e0:	2681                	sext.w	a3,a3
   1b8e2:	07400713          	li	a4,116
   1b8e6:	06d74a63          	blt	a4,a3,1b95a <__subtf3+0x562>
   1b8ea:	03f00713          	li	a4,63
   1b8ee:	04d74063          	blt	a4,a3,1b92e <__subtf3+0x536>
   1b8f2:	04000813          	li	a6,64
   1b8f6:	40d8083b          	subw	a6,a6,a3
   1b8fa:	00d558b3          	srl	a7,a0,a3
   1b8fe:	01079733          	sll	a4,a5,a6
   1b902:	01051533          	sll	a0,a0,a6
   1b906:	01176733          	or	a4,a4,a7
   1b90a:	00a03533          	snez	a0,a0
   1b90e:	8d59                	or	a0,a0,a4
   1b910:	00d7d6b3          	srl	a3,a5,a3
   1b914:	40a60533          	sub	a0,a2,a0
   1b918:	40d587b3          	sub	a5,a1,a3
   1b91c:	bf45                	j	1b8cc <__subtf3+0x4d4>
   1b91e:	f86e04e3          	beq	t3,t1,1b8a6 <__subtf3+0x4ae>
   1b922:	40e006bb          	negw	a3,a4
   1b926:	4705                	li	a4,1
   1b928:	174e                	slli	a4,a4,0x33
   1b92a:	8fd9                	or	a5,a5,a4
   1b92c:	bf5d                	j	1b8e2 <__subtf3+0x4ea>
   1b92e:	fc06871b          	addiw	a4,a3,-64
   1b932:	04000893          	li	a7,64
   1b936:	00e7d733          	srl	a4,a5,a4
   1b93a:	4801                	li	a6,0
   1b93c:	01168863          	beq	a3,a7,1b94c <__subtf3+0x554>
   1b940:	08000813          	li	a6,128
   1b944:	40d806bb          	subw	a3,a6,a3
   1b948:	00d79833          	sll	a6,a5,a3
   1b94c:	00a86533          	or	a0,a6,a0
   1b950:	00a03533          	snez	a0,a0
   1b954:	8d59                	or	a0,a0,a4
   1b956:	4681                	li	a3,0
   1b958:	bf75                	j	1b914 <__subtf3+0x51c>
   1b95a:	8d5d                	or	a0,a0,a5
   1b95c:	00a03533          	snez	a0,a0
   1b960:	bfdd                	j	1b956 <__subtf3+0x55e>
   1b962:	00188813          	addi	a6,a7,1
   1b966:	ffef0713          	addi	a4,t5,-2
   1b96a:	00e87733          	and	a4,a6,a4
   1b96e:	eb6d                	bnez	a4,1ba60 <__subtf3+0x668>
   1b970:	00a7ef33          	or	t5,a5,a0
   1b974:	00c5e833          	or	a6,a1,a2
   1b978:	0a089163          	bnez	a7,1ba1a <__subtf3+0x622>
   1b97c:	040f1e63          	bnez	t5,1b9d8 <__subtf3+0x5e0>
   1b980:	1e081263          	bnez	a6,1bb64 <__subtf3+0x76c>
   1b984:	ffe40493          	addi	s1,s0,-2
   1b988:	0014b493          	seqz	s1,s1
   1b98c:	4781                	li	a5,0
   1b98e:	4501                	li	a0,0
   1b990:	00f56733          	or	a4,a0,a5
   1b994:	22070663          	beqz	a4,1bbc0 <__subtf3+0x7c8>
   1b998:	00151613          	slli	a2,a0,0x1
   1b99c:	03f55713          	srli	a4,a0,0x3f
   1b9a0:	00179693          	slli	a3,a5,0x1
   1b9a4:	00767593          	andi	a1,a2,7
   1b9a8:	96ba                	add	a3,a3,a4
   1b9aa:	4701                	li	a4,0
   1b9ac:	c185                	beqz	a1,1b9cc <__subtf3+0x5d4>
   1b9ae:	4709                	li	a4,2
   1b9b0:	1ce40b63          	beq	s0,a4,1bb86 <__subtf3+0x78e>
   1b9b4:	470d                	li	a4,3
   1b9b6:	1ae40d63          	beq	s0,a4,1bb70 <__subtf3+0x778>
   1b9ba:	4705                	li	a4,1
   1b9bc:	e801                	bnez	s0,1b9cc <__subtf3+0x5d4>
   1b9be:	00f67593          	andi	a1,a2,15
   1b9c2:	4811                	li	a6,4
   1b9c4:	ffc63613          	sltiu	a2,a2,-4
   1b9c8:	1b059963          	bne	a1,a6,1bb7a <__subtf3+0x782>
   1b9cc:	92d1                	srli	a3,a3,0x34
   1b9ce:	0016c693          	xori	a3,a3,1
   1b9d2:	8a85                	andi	a3,a3,1
   1b9d4:	4801                	li	a6,0
   1b9d6:	b15d                	j	1b67c <__subtf3+0x284>
   1b9d8:	fa080ce3          	beqz	a6,1b990 <__subtf3+0x598>
   1b9dc:	40c506b3          	sub	a3,a0,a2
   1b9e0:	00d53833          	sltu	a6,a0,a3
   1b9e4:	40b78733          	sub	a4,a5,a1
   1b9e8:	41070733          	sub	a4,a4,a6
   1b9ec:	00c71813          	slli	a6,a4,0xc
   1b9f0:	00085b63          	bgez	a6,1ba06 <__subtf3+0x60e>
   1b9f4:	40a60533          	sub	a0,a2,a0
   1b9f8:	40f587b3          	sub	a5,a1,a5
   1b9fc:	00a63633          	sltu	a2,a2,a0
   1ba00:	8f91                	sub	a5,a5,a2
   1ba02:	84f6                	mv	s1,t4
   1ba04:	b771                	j	1b990 <__subtf3+0x598>
   1ba06:	00e6e533          	or	a0,a3,a4
   1ba0a:	16051063          	bnez	a0,1bb6a <__subtf3+0x772>
   1ba0e:	ffe40493          	addi	s1,s0,-2
   1ba12:	0014b493          	seqz	s1,s1
   1ba16:	4781                	li	a5,0
   1ba18:	bfa5                	j	1b990 <__subtf3+0x598>
   1ba1a:	02689b63          	bne	a7,t1,1ba50 <__subtf3+0x658>
   1ba1e:	1e0f0163          	beqz	t5,1bc00 <__subtf3+0x808>
   1ba22:	0327d713          	srli	a4,a5,0x32
   1ba26:	8b05                	andi	a4,a4,1
   1ba28:	00173713          	seqz	a4,a4
   1ba2c:	0712                	slli	a4,a4,0x4
   1ba2e:	031e1663          	bne	t3,a7,1ba5a <__subtf3+0x662>
   1ba32:	00080763          	beqz	a6,1ba40 <__subtf3+0x648>
   1ba36:	00d59893          	slli	a7,a1,0xd
   1ba3a:	0008c363          	bltz	a7,1ba40 <__subtf3+0x648>
   1ba3e:	4741                	li	a4,16
   1ba40:	000f1d63          	bnez	t5,1ba5a <__subtf3+0x662>
   1ba44:	16080663          	beqz	a6,1bbb0 <__subtf3+0x7b8>
   1ba48:	87ae                	mv	a5,a1
   1ba4a:	8532                	mv	a0,a2
   1ba4c:	84f6                	mv	s1,t4
   1ba4e:	b985                	j	1b6be <__subtf3+0x2c6>
   1ba50:	4701                	li	a4,0
   1ba52:	fe6e17e3          	bne	t3,t1,1ba40 <__subtf3+0x648>
   1ba56:	4701                	li	a4,0
   1ba58:	bfe9                	j	1ba32 <__subtf3+0x63a>
   1ba5a:	c60802e3          	beqz	a6,1b6be <__subtf3+0x2c6>
   1ba5e:	b995                	j	1b6d2 <__subtf3+0x2da>
   1ba60:	40c50a33          	sub	s4,a0,a2
   1ba64:	40b78933          	sub	s2,a5,a1
   1ba68:	014536b3          	sltu	a3,a0,s4
   1ba6c:	40d90933          	sub	s2,s2,a3
   1ba70:	00c91713          	slli	a4,s2,0xc
   1ba74:	06075d63          	bgez	a4,1baee <__subtf3+0x6f6>
   1ba78:	40a60a33          	sub	s4,a2,a0
   1ba7c:	40f587b3          	sub	a5,a1,a5
   1ba80:	01463633          	sltu	a2,a2,s4
   1ba84:	40c78933          	sub	s2,a5,a2
   1ba88:	84f6                	mv	s1,t4
   1ba8a:	06090663          	beqz	s2,1baf6 <__subtf3+0x6fe>
   1ba8e:	854a                	mv	a0,s2
   1ba90:	562000ef          	jal	ra,1bff2 <__clzdi2>
   1ba94:	2501                	sext.w	a0,a0
   1ba96:	ff45069b          	addiw	a3,a0,-12
   1ba9a:	03f00793          	li	a5,63
   1ba9e:	8736                	mv	a4,a3
   1baa0:	06d7c163          	blt	a5,a3,1bb02 <__subtf3+0x70a>
   1baa4:	04000793          	li	a5,64
   1baa8:	9f95                	subw	a5,a5,a3
   1baaa:	00d91933          	sll	s2,s2,a3
   1baae:	00fa57b3          	srl	a5,s4,a5
   1bab2:	0127e7b3          	or	a5,a5,s2
   1bab6:	00da1533          	sll	a0,s4,a3
   1baba:	0736cf63          	blt	a3,s3,1bb38 <__subtf3+0x740>
   1babe:	413709bb          	subw	s3,a4,s3
   1bac2:	0019869b          	addiw	a3,s3,1
   1bac6:	03f00713          	li	a4,63
   1baca:	04d74263          	blt	a4,a3,1bb0e <__subtf3+0x716>
   1bace:	04000713          	li	a4,64
   1bad2:	9f15                	subw	a4,a4,a3
   1bad4:	00e79633          	sll	a2,a5,a4
   1bad8:	00d555b3          	srl	a1,a0,a3
   1badc:	00e51533          	sll	a0,a0,a4
   1bae0:	8e4d                	or	a2,a2,a1
   1bae2:	00a03533          	snez	a0,a0
   1bae6:	8d51                	or	a0,a0,a2
   1bae8:	00d7d7b3          	srl	a5,a5,a3
   1baec:	b555                	j	1b990 <__subtf3+0x598>
   1baee:	012a6533          	or	a0,s4,s2
   1baf2:	fd41                	bnez	a0,1ba8a <__subtf3+0x692>
   1baf4:	bf29                	j	1ba0e <__subtf3+0x616>
   1baf6:	8552                	mv	a0,s4
   1baf8:	4fa000ef          	jal	ra,1bff2 <__clzdi2>
   1bafc:	0405051b          	addiw	a0,a0,64
   1bb00:	bf59                	j	1ba96 <__subtf3+0x69e>
   1bb02:	fb45079b          	addiw	a5,a0,-76
   1bb06:	00fa17b3          	sll	a5,s4,a5
   1bb0a:	4501                	li	a0,0
   1bb0c:	b77d                	j	1baba <__subtf3+0x6c2>
   1bb0e:	fc19899b          	addiw	s3,s3,-63
   1bb12:	04000593          	li	a1,64
   1bb16:	0137d9b3          	srl	s3,a5,s3
   1bb1a:	4701                	li	a4,0
   1bb1c:	00b68763          	beq	a3,a1,1bb2a <__subtf3+0x732>
   1bb20:	08000713          	li	a4,128
   1bb24:	9f15                	subw	a4,a4,a3
   1bb26:	00e79733          	sll	a4,a5,a4
   1bb2a:	00e567b3          	or	a5,a0,a4
   1bb2e:	00f037b3          	snez	a5,a5
   1bb32:	00f9e533          	or	a0,s3,a5
   1bb36:	b5c5                	j	1ba16 <__subtf3+0x61e>
   1bb38:	577d                	li	a4,-1
   1bb3a:	174e                	slli	a4,a4,0x33
   1bb3c:	177d                	addi	a4,a4,-1
   1bb3e:	40d989b3          	sub	s3,s3,a3
   1bb42:	8ff9                	and	a5,a5,a4
   1bb44:	e40986e3          	beqz	s3,1b990 <__subtf3+0x598>
   1bb48:	884e                	mv	a6,s3
   1bb4a:	b279                	j	1b4d8 <__subtf3+0xe0>
   1bb4c:	87ae                	mv	a5,a1
   1bb4e:	8532                	mv	a0,a2
   1bb50:	89f2                	mv	s3,t3
   1bb52:	bfcd                	j	1bb44 <__subtf3+0x74c>
   1bb54:	87ae                	mv	a5,a1
   1bb56:	8532                	mv	a0,a2
   1bb58:	89f2                	mv	s3,t3
   1bb5a:	84f6                	mv	s1,t4
   1bb5c:	b7e5                	j	1bb44 <__subtf3+0x74c>
   1bb5e:	87ae                	mv	a5,a1
   1bb60:	8532                	mv	a0,a2
   1bb62:	b53d                	j	1b990 <__subtf3+0x598>
   1bb64:	87ae                	mv	a5,a1
   1bb66:	8532                	mv	a0,a2
   1bb68:	bd69                	j	1ba02 <__subtf3+0x60a>
   1bb6a:	87ba                	mv	a5,a4
   1bb6c:	8536                	mv	a0,a3
   1bb6e:	b50d                	j	1b990 <__subtf3+0x598>
   1bb70:	4705                	li	a4,1
   1bb72:	e4049de3          	bnez	s1,1b9cc <__subtf3+0x5d4>
   1bb76:	ff863613          	sltiu	a2,a2,-8
   1bb7a:	00164613          	xori	a2,a2,1
   1bb7e:	1602                	slli	a2,a2,0x20
   1bb80:	9201                	srli	a2,a2,0x20
   1bb82:	96b2                	add	a3,a3,a2
   1bb84:	b5a1                	j	1b9cc <__subtf3+0x5d4>
   1bb86:	4705                	li	a4,1
   1bb88:	e40482e3          	beqz	s1,1b9cc <__subtf3+0x5d4>
   1bb8c:	b7ed                	j	1bb76 <__subtf3+0x77e>
   1bb8e:	4781                	li	a5,0
   1bb90:	4701                	li	a4,0
   1bb92:	b6b1                	j	1b6de <__subtf3+0x2e6>
   1bb94:	87ae                	mv	a5,a1
   1bb96:	8532                	mv	a0,a2
   1bb98:	b281                	j	1b4d8 <__subtf3+0xe0>
   1bb9a:	4781                	li	a5,0
   1bb9c:	4501                	li	a0,0
   1bb9e:	8846                	mv	a6,a7
   1bba0:	bfc5                	j	1bb90 <__subtf3+0x798>
   1bba2:	4781                	li	a5,0
   1bba4:	84f6                	mv	s1,t4
   1bba6:	b7ed                	j	1bb90 <__subtf3+0x798>
   1bba8:	87ae                	mv	a5,a1
   1bbaa:	8532                	mv	a0,a2
   1bbac:	84f6                	mv	s1,t4
   1bbae:	b22d                	j	1b4d8 <__subtf3+0xe0>
   1bbb0:	4785                	li	a5,1
   1bbb2:	6821                	lui	a6,0x8
   1bbb4:	4501                	li	a0,0
   1bbb6:	4481                	li	s1,0
   1bbb8:	17ca                	slli	a5,a5,0x32
   1bbba:	187d                	addi	a6,a6,-1
   1bbbc:	4741                	li	a4,16
   1bbbe:	b605                	j	1b6de <__subtf3+0x2e6>
   1bbc0:	4781                	li	a5,0
   1bbc2:	4501                	li	a0,0
   1bbc4:	4801                	li	a6,0
   1bbc6:	b7e9                	j	1bb90 <__subtf3+0x798>
   1bbc8:	e489                	bnez	s1,1bbd2 <__subtf3+0x7da>
   1bbca:	00850613          	addi	a2,a0,8
   1bbce:	bef9                	j	1b7ac <__subtf3+0x3b4>
   1bbd0:	fced                	bnez	s1,1bbca <__subtf3+0x7d2>
   1bbd2:	b00686e3          	beqz	a3,1b6de <__subtf3+0x2e6>
   1bbd6:	00276713          	ori	a4,a4,2
   1bbda:	b611                	j	1b6de <__subtf3+0x2e6>
   1bbdc:	4501                	li	a0,0
   1bbde:	cc09                	beqz	s0,1bbf8 <__subtf3+0x800>
   1bbe0:	478d                	li	a5,3
   1bbe2:	00f41763          	bne	s0,a5,1bbf0 <__subtf3+0x7f8>
   1bbe6:	c889                	beqz	s1,1bbf8 <__subtf3+0x800>
   1bbe8:	557d                	li	a0,-1
   1bbea:	ffe68813          	addi	a6,a3,-2 # 7ffe <register_fini-0x80ea>
   1bbee:	a029                	j	1bbf8 <__subtf3+0x800>
   1bbf0:	4789                	li	a5,2
   1bbf2:	fef41be3          	bne	s0,a5,1bbe8 <__subtf3+0x7f0>
   1bbf6:	d8ed                	beqz	s1,1bbe8 <__subtf3+0x7f0>
   1bbf8:	00576713          	ori	a4,a4,5
   1bbfc:	87aa                	mv	a5,a0
   1bbfe:	bcf5                	j	1b6fa <__subtf3+0x302>
   1bc00:	4701                	li	a4,0
   1bc02:	e51e11e3          	bne	t3,a7,1ba44 <__subtf3+0x64c>
   1bc06:	bd81                	j	1ba56 <__subtf3+0x65e>
   1bc08:	4701                	li	a4,0
   1bc0a:	ab1e18e3          	bne	t3,a7,1b6ba <__subtf3+0x2c2>
   1bc0e:	bc75                	j	1b6ca <__subtf3+0x2d2>

000000000001bc10 <__fixtfsi>:
   1bc10:	882a                	mv	a6,a0
   1bc12:	002027f3          	frrm	a5
   1bc16:	6611                	lui	a2,0x4
   1bc18:	01059713          	slli	a4,a1,0x10
   1bc1c:	00159693          	slli	a3,a1,0x1
   1bc20:	01075793          	srli	a5,a4,0x10
   1bc24:	92c5                	srli	a3,a3,0x31
   1bc26:	ffe60713          	addi	a4,a2,-2 # 3ffe <register_fini-0xc0ea>
   1bc2a:	91fd                	srli	a1,a1,0x3f
   1bc2c:	00d74763          	blt	a4,a3,1bc3a <__fixtfsi+0x2a>
   1bc30:	e6b5                	bnez	a3,1bc9c <__fixtfsi+0x8c>
   1bc32:	8fc9                	or	a5,a5,a0
   1bc34:	4501                	li	a0,0
   1bc36:	e3ad                	bnez	a5,1bc98 <__fixtfsi+0x88>
   1bc38:	8082                	ret
   1bc3a:	01d60713          	addi	a4,a2,29
   1bc3e:	02d75663          	bge	a4,a3,1bc6a <__fixtfsi+0x5a>
   1bc42:	80000737          	lui	a4,0x80000
   1bc46:	fff74713          	not	a4,a4
   1bc4a:	00b7053b          	addw	a0,a4,a1
   1bc4e:	c9a9                	beqz	a1,1bca0 <__fixtfsi+0x90>
   1bc50:	01e60713          	addi	a4,a2,30
   1bc54:	4641                	li	a2,16
   1bc56:	04e69663          	bne	a3,a4,1bca2 <__fixtfsi+0x92>
   1bc5a:	0117d713          	srli	a4,a5,0x11
   1bc5e:	e331                	bnez	a4,1bca2 <__fixtfsi+0x92>
   1bc60:	17be                	slli	a5,a5,0x2f
   1bc62:	0107e7b3          	or	a5,a5,a6
   1bc66:	eb8d                	bnez	a5,1bc98 <__fixtfsi+0x88>
   1bc68:	8082                	ret
   1bc6a:	4505                	li	a0,1
   1bc6c:	1542                	slli	a0,a0,0x30
   1bc6e:	8fc9                	or	a5,a5,a0
   1bc70:	7771                	lui	a4,0xffffc
   1bc72:	6511                	lui	a0,0x4
   1bc74:	02f5051b          	addiw	a0,a0,47
   1bc78:	2745                	addiw	a4,a4,17
   1bc7a:	9f35                	addw	a4,a4,a3
   1bc7c:	40d506bb          	subw	a3,a0,a3
   1bc80:	00e79733          	sll	a4,a5,a4
   1bc84:	00d7d7b3          	srl	a5,a5,a3
   1bc88:	01076733          	or	a4,a4,a6
   1bc8c:	0007851b          	sext.w	a0,a5
   1bc90:	c199                	beqz	a1,1bc96 <__fixtfsi+0x86>
   1bc92:	40a0053b          	negw	a0,a0
   1bc96:	cb01                	beqz	a4,1bca6 <__fixtfsi+0x96>
   1bc98:	4605                	li	a2,1
   1bc9a:	a021                	j	1bca2 <__fixtfsi+0x92>
   1bc9c:	4501                	li	a0,0
   1bc9e:	bfed                	j	1bc98 <__fixtfsi+0x88>
   1bca0:	4641                	li	a2,16
   1bca2:	00162073          	csrs	fflags,a2
   1bca6:	8082                	ret

000000000001bca8 <__floatsitf>:
   1bca8:	1101                	addi	sp,sp,-32
   1bcaa:	ec06                	sd	ra,24(sp)
   1bcac:	e822                	sd	s0,16(sp)
   1bcae:	e426                	sd	s1,8(sp)
   1bcb0:	c529                	beqz	a0,1bcfa <__floatsitf+0x52>
   1bcb2:	0005079b          	sext.w	a5,a0
   1bcb6:	03f55493          	srli	s1,a0,0x3f
   1bcba:	00055463          	bgez	a0,1bcc2 <__floatsitf+0x1a>
   1bcbe:	40f007bb          	negw	a5,a5
   1bcc2:	02079413          	slli	s0,a5,0x20
   1bcc6:	9001                	srli	s0,s0,0x20
   1bcc8:	8522                	mv	a0,s0
   1bcca:	328000ef          	jal	ra,1bff2 <__clzdi2>
   1bcce:	6711                	lui	a4,0x4
   1bcd0:	03e7079b          	addiw	a5,a4,62
   1bcd4:	40a785bb          	subw	a1,a5,a0
   1bcd8:	02f7079b          	addiw	a5,a4,47
   1bcdc:	9f8d                	subw	a5,a5,a1
   1bcde:	00f417b3          	sll	a5,s0,a5
   1bce2:	60e2                	ld	ra,24(sp)
   1bce4:	6442                	ld	s0,16(sp)
   1bce6:	04be                	slli	s1,s1,0xf
   1bce8:	8dc5                	or	a1,a1,s1
   1bcea:	07c2                	slli	a5,a5,0x10
   1bcec:	15c2                	slli	a1,a1,0x30
   1bcee:	83c1                	srli	a5,a5,0x10
   1bcf0:	64a2                	ld	s1,8(sp)
   1bcf2:	4501                	li	a0,0
   1bcf4:	8ddd                	or	a1,a1,a5
   1bcf6:	6105                	addi	sp,sp,32
   1bcf8:	8082                	ret
   1bcfa:	4781                	li	a5,0
   1bcfc:	4581                	li	a1,0
   1bcfe:	4481                	li	s1,0
   1bd00:	b7cd                	j	1bce2 <__floatsitf+0x3a>

000000000001bd02 <__extenddftf2>:
   1bd02:	1101                	addi	sp,sp,-32
   1bd04:	e20507d3          	fmv.x.d	a5,fa0
   1bd08:	ec06                	sd	ra,24(sp)
   1bd0a:	e822                	sd	s0,16(sp)
   1bd0c:	e426                	sd	s1,8(sp)
   1bd0e:	00202773          	frrm	a4
   1bd12:	0347d513          	srli	a0,a5,0x34
   1bd16:	7ff57513          	andi	a0,a0,2047
   1bd1a:	00c79413          	slli	s0,a5,0xc
   1bd1e:	03f7d493          	srli	s1,a5,0x3f
   1bd22:	00150793          	addi	a5,a0,1 # 4001 <register_fini-0xc0e7>
   1bd26:	7fe7f793          	andi	a5,a5,2046
   1bd2a:	8031                	srli	s0,s0,0xc
   1bd2c:	cb91                	beqz	a5,1bd40 <__extenddftf2+0x3e>
   1bd2e:	6791                	lui	a5,0x4
   1bd30:	c0078793          	addi	a5,a5,-1024 # 3c00 <register_fini-0xc4e8>
   1bd34:	00445593          	srli	a1,s0,0x4
   1bd38:	953e                	add	a0,a0,a5
   1bd3a:	1472                	slli	s0,s0,0x3c
   1bd3c:	4781                	li	a5,0
   1bd3e:	a8b9                	j	1bd9c <__extenddftf2+0x9a>
   1bd40:	ed1d                	bnez	a0,1bd7e <__extenddftf2+0x7c>
   1bd42:	4581                	li	a1,0
   1bd44:	dc65                	beqz	s0,1bd3c <__extenddftf2+0x3a>
   1bd46:	8522                	mv	a0,s0
   1bd48:	2aa000ef          	jal	ra,1bff2 <__clzdi2>
   1bd4c:	0005071b          	sext.w	a4,a0
   1bd50:	47b9                	li	a5,14
   1bd52:	02e7c063          	blt	a5,a4,1bd72 <__extenddftf2+0x70>
   1bd56:	45bd                	li	a1,15
   1bd58:	9d89                	subw	a1,a1,a0
   1bd5a:	0315079b          	addiw	a5,a0,49
   1bd5e:	00b455b3          	srl	a1,s0,a1
   1bd62:	00f41433          	sll	s0,s0,a5
   1bd66:	6791                	lui	a5,0x4
   1bd68:	c0c7879b          	addiw	a5,a5,-1012
   1bd6c:	40a7853b          	subw	a0,a5,a0
   1bd70:	b7f1                	j	1bd3c <__extenddftf2+0x3a>
   1bd72:	ff15059b          	addiw	a1,a0,-15
   1bd76:	00b415b3          	sll	a1,s0,a1
   1bd7a:	4401                	li	s0,0
   1bd7c:	b7ed                	j	1bd66 <__extenddftf2+0x64>
   1bd7e:	cc15                	beqz	s0,1bdba <__extenddftf2+0xb8>
   1bd80:	4705                	li	a4,1
   1bd82:	03371793          	slli	a5,a4,0x33
   1bd86:	8fe1                	and	a5,a5,s0
   1bd88:	00445593          	srli	a1,s0,0x4
   1bd8c:	0017b793          	seqz	a5,a5
   1bd90:	173e                	slli	a4,a4,0x2f
   1bd92:	6521                	lui	a0,0x8
   1bd94:	0792                	slli	a5,a5,0x4
   1bd96:	8dd9                	or	a1,a1,a4
   1bd98:	1472                	slli	s0,s0,0x3c
   1bd9a:	157d                	addi	a0,a0,-1
   1bd9c:	04be                	slli	s1,s1,0xf
   1bd9e:	05c2                	slli	a1,a1,0x10
   1bda0:	8d45                	or	a0,a0,s1
   1bda2:	1542                	slli	a0,a0,0x30
   1bda4:	81c1                	srli	a1,a1,0x10
   1bda6:	8dc9                	or	a1,a1,a0
   1bda8:	c399                	beqz	a5,1bdae <__extenddftf2+0xac>
   1bdaa:	0017a073          	csrs	fflags,a5
   1bdae:	60e2                	ld	ra,24(sp)
   1bdb0:	8522                	mv	a0,s0
   1bdb2:	6442                	ld	s0,16(sp)
   1bdb4:	64a2                	ld	s1,8(sp)
   1bdb6:	6105                	addi	sp,sp,32
   1bdb8:	8082                	ret
   1bdba:	6521                	lui	a0,0x8
   1bdbc:	4581                	li	a1,0
   1bdbe:	157d                	addi	a0,a0,-1
   1bdc0:	bfb5                	j	1bd3c <__extenddftf2+0x3a>

000000000001bdc2 <__trunctfdf2>:
   1bdc2:	00202873          	frrm	a6
   1bdc6:	68a1                	lui	a7,0x8
   1bdc8:	0305d613          	srli	a2,a1,0x30
   1bdcc:	fff88e13          	addi	t3,a7,-1 # 7fff <register_fini-0x80e9>
   1bdd0:	03f5d693          	srli	a3,a1,0x3f
   1bdd4:	05c2                	slli	a1,a1,0x10
   1bdd6:	00d5d793          	srli	a5,a1,0xd
   1bdda:	01c67633          	and	a2,a2,t3
   1bdde:	03d55713          	srli	a4,a0,0x3d
   1bde2:	8f5d                	or	a4,a4,a5
   1bde4:	18f9                	addi	a7,a7,-2
   1bde6:	00160793          	addi	a5,a2,1
   1bdea:	0117f8b3          	and	a7,a5,a7
   1bdee:	2801                	sext.w	a6,a6
   1bdf0:	00351e93          	slli	t4,a0,0x3
   1bdf4:	16088f63          	beqz	a7,1bf72 <__trunctfdf2+0x1b0>
   1bdf8:	78f1                	lui	a7,0xffffc
   1bdfa:	40088893          	addi	a7,a7,1024 # ffffffffffffc400 <__BSS_END__+0xfffffffffffdd410>
   1bdfe:	9646                	add	a2,a2,a7
   1be00:	7fe00793          	li	a5,2046
   1be04:	08c7de63          	bge	a5,a2,1bea0 <__trunctfdf2+0xde>
   1be08:	04080363          	beqz	a6,1be4e <__trunctfdf2+0x8c>
   1be0c:	478d                	li	a5,3
   1be0e:	02f81c63          	bne	a6,a5,1be46 <__trunctfdf2+0x84>
   1be12:	ce95                	beqz	a3,1be4e <__trunctfdf2+0x8c>
   1be14:	57fd                	li	a5,-1
   1be16:	7fe00613          	li	a2,2046
   1be1a:	4701                	li	a4,0
   1be1c:	4315                	li	t1,5
   1be1e:	4589                	li	a1,2
   1be20:	00136313          	ori	t1,t1,1
   1be24:	1ab80263          	beq	a6,a1,1bfc8 <__trunctfdf2+0x206>
   1be28:	458d                	li	a1,3
   1be2a:	18b80b63          	beq	a6,a1,1bfc0 <__trunctfdf2+0x1fe>
   1be2e:	00081863          	bnez	a6,1be3e <__trunctfdf2+0x7c>
   1be32:	00f7f513          	andi	a0,a5,15
   1be36:	4591                	li	a1,4
   1be38:	00b50363          	beq	a0,a1,1be3e <__trunctfdf2+0x7c>
   1be3c:	0791                	addi	a5,a5,4
   1be3e:	cf01                	beqz	a4,1be56 <__trunctfdf2+0x94>
   1be40:	00236313          	ori	t1,t1,2
   1be44:	a809                	j	1be56 <__trunctfdf2+0x94>
   1be46:	4789                	li	a5,2
   1be48:	fcf816e3          	bne	a6,a5,1be14 <__trunctfdf2+0x52>
   1be4c:	d6e1                	beqz	a3,1be14 <__trunctfdf2+0x52>
   1be4e:	4781                	li	a5,0
   1be50:	7ff00613          	li	a2,2047
   1be54:	4315                	li	t1,5
   1be56:	00879713          	slli	a4,a5,0x8
   1be5a:	00075b63          	bgez	a4,1be70 <__trunctfdf2+0xae>
   1be5e:	0605                	addi	a2,a2,1
   1be60:	7ff00713          	li	a4,2047
   1be64:	16e60563          	beq	a2,a4,1bfce <__trunctfdf2+0x20c>
   1be68:	557d                	li	a0,-1
   1be6a:	155e                	slli	a0,a0,0x37
   1be6c:	157d                	addi	a0,a0,-1
   1be6e:	8fe9                	and	a5,a5,a0
   1be70:	7ff00713          	li	a4,2047
   1be74:	838d                	srli	a5,a5,0x3
   1be76:	00e61663          	bne	a2,a4,1be82 <__trunctfdf2+0xc0>
   1be7a:	c781                	beqz	a5,1be82 <__trunctfdf2+0xc0>
   1be7c:	4785                	li	a5,1
   1be7e:	17ce                	slli	a5,a5,0x33
   1be80:	4681                	li	a3,0
   1be82:	7ff67713          	andi	a4,a2,2047
   1be86:	07b2                	slli	a5,a5,0xc
   1be88:	1752                	slli	a4,a4,0x34
   1be8a:	83b1                	srli	a5,a5,0xc
   1be8c:	8fd9                	or	a5,a5,a4
   1be8e:	16fe                	slli	a3,a3,0x3f
   1be90:	8fd5                	or	a5,a5,a3
   1be92:	00030463          	beqz	t1,1be9a <__trunctfdf2+0xd8>
   1be96:	00132073          	csrs	fflags,t1
   1be9a:	f2078553          	fmv.d.x	fa0,a5
   1be9e:	8082                	ret
   1bea0:	0ac04563          	bgtz	a2,1bf4a <__trunctfdf2+0x188>
   1bea4:	fcc00793          	li	a5,-52
   1bea8:	10f64063          	blt	a2,a5,1bfa8 <__trunctfdf2+0x1e6>
   1beac:	4785                	li	a5,1
   1beae:	17ce                	slli	a5,a5,0x33
   1beb0:	03d00e13          	li	t3,61
   1beb4:	8f5d                	or	a4,a4,a5
   1beb6:	40ce0e33          	sub	t3,t3,a2
   1beba:	03f00793          	li	a5,63
   1bebe:	0006089b          	sext.w	a7,a2
   1bec2:	05c7cf63          	blt	a5,t3,1bf20 <__trunctfdf2+0x15e>
   1bec6:	0038859b          	addiw	a1,a7,3
   1beca:	03d00613          	li	a2,61
   1bece:	4116063b          	subw	a2,a2,a7
   1bed2:	00be97b3          	sll	a5,t4,a1
   1bed6:	00ced633          	srl	a2,t4,a2
   1beda:	00f037b3          	snez	a5,a5
   1bede:	8fd1                	or	a5,a5,a2
   1bee0:	00b71733          	sll	a4,a4,a1
   1bee4:	8fd9                	or	a5,a5,a4
   1bee6:	4601                	li	a2,0
   1bee8:	cbf1                	beqz	a5,1bfbc <__trunctfdf2+0x1fa>
   1beea:	00179713          	slli	a4,a5,0x1
   1beee:	00777613          	andi	a2,a4,7
   1bef2:	4301                	li	t1,0
   1bef4:	c205                	beqz	a2,1bf14 <__trunctfdf2+0x152>
   1bef6:	4609                	li	a2,2
   1bef8:	0ac80d63          	beq	a6,a2,1bfb2 <__trunctfdf2+0x1f0>
   1befc:	460d                	li	a2,3
   1befe:	4305                	li	t1,1
   1bf00:	0ac80663          	beq	a6,a2,1bfac <__trunctfdf2+0x1ea>
   1bf04:	00081863          	bnez	a6,1bf14 <__trunctfdf2+0x152>
   1bf08:	00f77613          	andi	a2,a4,15
   1bf0c:	4591                	li	a1,4
   1bf0e:	00b60363          	beq	a2,a1,1bf14 <__trunctfdf2+0x152>
   1bf12:	0711                	addi	a4,a4,4
   1bf14:	9361                	srli	a4,a4,0x38
   1bf16:	00174713          	xori	a4,a4,1
   1bf1a:	8b05                	andi	a4,a4,1
   1bf1c:	4601                	li	a2,0
   1bf1e:	a089                	j	1bf60 <__trunctfdf2+0x19e>
   1bf20:	5375                	li	t1,-3
   1bf22:	4113033b          	subw	t1,t1,a7
   1bf26:	04000793          	li	a5,64
   1bf2a:	00675333          	srl	t1,a4,t1
   1bf2e:	4581                	li	a1,0
   1bf30:	00fe0663          	beq	t3,a5,1bf3c <__trunctfdf2+0x17a>
   1bf34:	0438861b          	addiw	a2,a7,67
   1bf38:	00c715b3          	sll	a1,a4,a2
   1bf3c:	01d5e5b3          	or	a1,a1,t4
   1bf40:	00b035b3          	snez	a1,a1
   1bf44:	00b367b3          	or	a5,t1,a1
   1bf48:	bf79                	j	1bee6 <__trunctfdf2+0x124>
   1bf4a:	00751793          	slli	a5,a0,0x7
   1bf4e:	00f037b3          	snez	a5,a5
   1bf52:	03ced593          	srli	a1,t4,0x3c
   1bf56:	0712                	slli	a4,a4,0x4
   1bf58:	8fcd                	or	a5,a5,a1
   1bf5a:	8fd9                	or	a5,a5,a4
   1bf5c:	4301                	li	t1,0
   1bf5e:	4701                	li	a4,0
   1bf60:	0077f593          	andi	a1,a5,7
   1bf64:	ea059de3          	bnez	a1,1be1e <__trunctfdf2+0x5c>
   1bf68:	ee0707e3          	beqz	a4,1be56 <__trunctfdf2+0x94>
   1bf6c:	00137713          	andi	a4,t1,1
   1bf70:	b5f9                	j	1be3e <__trunctfdf2+0x7c>
   1bf72:	01d767b3          	or	a5,a4,t4
   1bf76:	e601                	bnez	a2,1bf7e <__trunctfdf2+0x1bc>
   1bf78:	00f037b3          	snez	a5,a5
   1bf7c:	b7ad                	j	1bee6 <__trunctfdf2+0x124>
   1bf7e:	cf8d                	beqz	a5,1bfb8 <__trunctfdf2+0x1f6>
   1bf80:	4301                	li	t1,0
   1bf82:	01c61763          	bne	a2,t3,1bf90 <__trunctfdf2+0x1ce>
   1bf86:	03275313          	srli	t1,a4,0x32
   1bf8a:	00133313          	seqz	t1,t1
   1bf8e:	0312                	slli	t1,t1,0x4
   1bf90:	03ced793          	srli	a5,t4,0x3c
   1bf94:	0712                	slli	a4,a4,0x4
   1bf96:	8f5d                	or	a4,a4,a5
   1bf98:	4785                	li	a5,1
   1bf9a:	9b61                	andi	a4,a4,-8
   1bf9c:	17da                	slli	a5,a5,0x36
   1bf9e:	8fd9                	or	a5,a5,a4
   1bfa0:	7ff00613          	li	a2,2047
   1bfa4:	4701                	li	a4,0
   1bfa6:	bf6d                	j	1bf60 <__trunctfdf2+0x19e>
   1bfa8:	4785                	li	a5,1
   1bfaa:	b781                	j	1beea <__trunctfdf2+0x128>
   1bfac:	f6a5                	bnez	a3,1bf14 <__trunctfdf2+0x152>
   1bfae:	0721                	addi	a4,a4,8
   1bfb0:	b795                	j	1bf14 <__trunctfdf2+0x152>
   1bfb2:	4305                	li	t1,1
   1bfb4:	d2a5                	beqz	a3,1bf14 <__trunctfdf2+0x152>
   1bfb6:	bfe5                	j	1bfae <__trunctfdf2+0x1ec>
   1bfb8:	7ff00613          	li	a2,2047
   1bfbc:	4301                	li	t1,0
   1bfbe:	bd61                	j	1be56 <__trunctfdf2+0x94>
   1bfc0:	e6069fe3          	bnez	a3,1be3e <__trunctfdf2+0x7c>
   1bfc4:	07a1                	addi	a5,a5,8
   1bfc6:	bda5                	j	1be3e <__trunctfdf2+0x7c>
   1bfc8:	e6068be3          	beqz	a3,1be3e <__trunctfdf2+0x7c>
   1bfcc:	bfe5                	j	1bfc4 <__trunctfdf2+0x202>
   1bfce:	4781                	li	a5,0
   1bfd0:	00080e63          	beqz	a6,1bfec <__trunctfdf2+0x22a>
   1bfd4:	470d                	li	a4,3
   1bfd6:	00e81763          	bne	a6,a4,1bfe4 <__trunctfdf2+0x222>
   1bfda:	ca89                	beqz	a3,1bfec <__trunctfdf2+0x22a>
   1bfdc:	57fd                	li	a5,-1
   1bfde:	7fe00613          	li	a2,2046
   1bfe2:	a029                	j	1bfec <__trunctfdf2+0x22a>
   1bfe4:	4709                	li	a4,2
   1bfe6:	fee81be3          	bne	a6,a4,1bfdc <__trunctfdf2+0x21a>
   1bfea:	daed                	beqz	a3,1bfdc <__trunctfdf2+0x21a>
   1bfec:	00536313          	ori	t1,t1,5
   1bff0:	b541                	j	1be70 <__trunctfdf2+0xae>

000000000001bff2 <__clzdi2>:
   1bff2:	03800793          	li	a5,56
   1bff6:	00f55733          	srl	a4,a0,a5
   1bffa:	0ff77713          	andi	a4,a4,255
   1bffe:	e319                	bnez	a4,1c004 <__clzdi2+0x12>
   1c000:	17e1                	addi	a5,a5,-8
   1c002:	fbf5                	bnez	a5,1bff6 <__clzdi2+0x4>
   1c004:	6775                	lui	a4,0x1d
   1c006:	04000693          	li	a3,64
   1c00a:	8e9d                	sub	a3,a3,a5
   1c00c:	00f55533          	srl	a0,a0,a5
   1c010:	ce870793          	addi	a5,a4,-792 # 1cce8 <__clz_tab>
   1c014:	953e                	add	a0,a0,a5
   1c016:	00054503          	lbu	a0,0(a0) # 8000 <register_fini-0x80e8>
   1c01a:	40a6853b          	subw	a0,a3,a0
   1c01e:	8082                	ret
